
kernel/bin-x86_64/kernel:     file format elf64-x86-64


Disassembly of section .text:

ffffffff80001000 <serial_init>:
ffffffff80001000:	b8 03 00 00 00       	mov    eax,0x3
ffffffff80001005:	ba fb 03 00 00       	mov    edx,0x3fb
ffffffff8000100a:	ee                   	out    dx,al
ffffffff8000100b:	48 c7 c1 00 c0 00 80 	mov    rcx,0xffffffff8000c000
ffffffff80001012:	ba 15 00 00 00       	mov    edx,0x15
ffffffff80001017:	48 c7 c6 10 c5 00 80 	mov    rsi,0xffffffff8000c510
ffffffff8000101e:	31 c0                	xor    eax,eax
ffffffff80001020:	48 c7 c7 0d c0 00 80 	mov    rdi,0xffffffff8000c00d
ffffffff80001027:	e9 34 18 00 00       	jmp    ffffffff80002860 <log>
ffffffff8000102c:	0f 1f 40 00          	nop    DWORD PTR [rax+0x0]

ffffffff80001030 <serial_write>:
ffffffff80001030:	eb 10                	jmp    ffffffff80001042 <serial_write+0x12>
ffffffff80001032:	66 66 2e 0f 1f 84 00 	data16 cs nop WORD PTR [rax+rax*1+0x0]
ffffffff80001039:	00 00 00 00 
ffffffff8000103d:	0f 1f 00             	nop    DWORD PTR [rax]
ffffffff80001040:	f3 90                	pause
ffffffff80001042:	ba 01 00 00 00       	mov    edx,0x1
ffffffff80001047:	86 15 b3 1d 01 00    	xchg   BYTE PTR [rip+0x11db3],dl        # ffffffff80012e00 <serial_lock>
ffffffff8000104d:	84 d2                	test   dl,dl
ffffffff8000104f:	75 ef                	jne    ffffffff80001040 <serial_write+0x10>
ffffffff80001051:	fa                   	cli
ffffffff80001052:	ba fd 03 00 00       	mov    edx,0x3fd
ffffffff80001057:	66 0f 1f 84 00 00 00 	nop    WORD PTR [rax+rax*1+0x0]
ffffffff8000105e:	00 00 
ffffffff80001060:	ec                   	in     al,dx
ffffffff80001061:	a8 20                	test   al,0x20
ffffffff80001063:	74 fb                	je     ffffffff80001060 <serial_write+0x30>
ffffffff80001065:	ba f8 03 00 00       	mov    edx,0x3f8
ffffffff8000106a:	89 f8                	mov    eax,edi
ffffffff8000106c:	ee                   	out    dx,al
ffffffff8000106d:	c6 05 8c 1d 01 00 00 	mov    BYTE PTR [rip+0x11d8c],0x0        # ffffffff80012e00 <serial_lock>
ffffffff80001074:	fb                   	sti
ffffffff80001075:	c3                   	ret
ffffffff80001076:	66 2e 0f 1f 84 00 00 	cs nop WORD PTR [rax+rax*1+0x0]
ffffffff8000107d:	00 00 00 

ffffffff80001080 <serial_write_ch>:
ffffffff80001080:	40 0f b6 ff          	movzx  edi,dil
ffffffff80001084:	e9 a7 ff ff ff       	jmp    ffffffff80001030 <serial_write>
ffffffff80001089:	0f 1f 80 00 00 00 00 	nop    DWORD PTR [rax+0x0]

ffffffff80001090 <serial_vprintf>:
ffffffff80001090:	48 89 f2             	mov    rdx,rsi
ffffffff80001093:	48 89 fe             	mov    rsi,rdi
ffffffff80001096:	48 c7 c7 80 10 00 80 	mov    rdi,0xffffffff80001080
ffffffff8000109d:	e9 7e 09 00 00       	jmp    ffffffff80001a20 <vfprintf>
ffffffff800010a2:	66 2e 0f 1f 84 00 00 	cs nop WORD PTR [rax+rax*1+0x0]
ffffffff800010a9:	00 00 00 
ffffffff800010ac:	0f 1f 40 00          	nop    DWORD PTR [rax+0x0]

ffffffff800010b0 <serial_printf>:
ffffffff800010b0:	48 83 ec 58          	sub    rsp,0x58
ffffffff800010b4:	48 8d 44 24 60       	lea    rax,[rsp+0x60]
ffffffff800010b9:	48 89 74 24 28       	mov    QWORD PTR [rsp+0x28],rsi
ffffffff800010be:	48 89 fe             	mov    rsi,rdi
ffffffff800010c1:	48 c7 c7 80 10 00 80 	mov    rdi,0xffffffff80001080
ffffffff800010c8:	48 89 54 24 30       	mov    QWORD PTR [rsp+0x30],rdx
ffffffff800010cd:	48 8d 54 24 08       	lea    rdx,[rsp+0x8]
ffffffff800010d2:	48 89 44 24 10       	mov    QWORD PTR [rsp+0x10],rax
ffffffff800010d7:	48 8d 44 24 20       	lea    rax,[rsp+0x20]
ffffffff800010dc:	48 89 4c 24 38       	mov    QWORD PTR [rsp+0x38],rcx
ffffffff800010e1:	4c 89 44 24 40       	mov    QWORD PTR [rsp+0x40],r8
ffffffff800010e6:	4c 89 4c 24 48       	mov    QWORD PTR [rsp+0x48],r9
ffffffff800010eb:	c7 44 24 08 08 00 00 	mov    DWORD PTR [rsp+0x8],0x8
ffffffff800010f2:	00 
ffffffff800010f3:	48 89 44 24 18       	mov    QWORD PTR [rsp+0x18],rax
ffffffff800010f8:	e8 23 09 00 00       	call   ffffffff80001a20 <vfprintf>
ffffffff800010fd:	48 83 c4 58          	add    rsp,0x58
ffffffff80001101:	c3                   	ret

ffffffff80001102 <ltos.cold>:
ffffffff80001102:	4c 89 c6             	mov    rsi,r8
ffffffff80001105:	4c 89 ea             	mov    rdx,r13
ffffffff80001108:	4c 89 4c 24 18       	mov    QWORD PTR [rsp+0x18],r9
ffffffff8000110d:	48 c7 c7 e0 e5 00 80 	mov    rdi,0xffffffff8000e5e0
ffffffff80001114:	4c 89 44 24 10       	mov    QWORD PTR [rsp+0x10],r8
ffffffff80001119:	e8 32 50 00 00       	call   ffffffff80006150 <__ubsan_handle_divrem_overflow>
ffffffff8000111e:	4c 8b 44 24 10       	mov    r8,QWORD PTR [rsp+0x10]
ffffffff80001123:	4c 8b 4c 24 18       	mov    r9,QWORD PTR [rsp+0x18]
ffffffff80001128:	e9 17 01 00 00       	jmp    ffffffff80001244 <ltos+0xd4>
ffffffff8000112d:	4c 89 ea             	mov    rdx,r13
ffffffff80001130:	4c 89 c6             	mov    rsi,r8
ffffffff80001133:	4c 89 54 24 28       	mov    QWORD PTR [rsp+0x28],r10
ffffffff80001138:	48 c7 c7 c0 e5 00 80 	mov    rdi,0xffffffff8000e5c0
ffffffff8000113f:	4c 89 4c 24 20       	mov    QWORD PTR [rsp+0x20],r9
ffffffff80001144:	48 89 44 24 18       	mov    QWORD PTR [rsp+0x18],rax
ffffffff80001149:	4c 89 5c 24 10       	mov    QWORD PTR [rsp+0x10],r11
ffffffff8000114e:	e8 fd 4f 00 00       	call   ffffffff80006150 <__ubsan_handle_divrem_overflow>
ffffffff80001153:	4c 8b 5c 24 10       	mov    r11,QWORD PTR [rsp+0x10]
ffffffff80001158:	48 8b 44 24 18       	mov    rax,QWORD PTR [rsp+0x18]
ffffffff8000115d:	4c 8b 4c 24 20       	mov    r9,QWORD PTR [rsp+0x20]
ffffffff80001162:	4c 8b 54 24 28       	mov    r10,QWORD PTR [rsp+0x28]
ffffffff80001167:	e9 a6 00 00 00       	jmp    ffffffff80001212 <ltos+0xa2>
ffffffff8000116c:	0f 1f 40 00          	nop    DWORD PTR [rax+0x0]

ffffffff80001170 <ltos>:
ffffffff80001170:	41 57                	push   r15
ffffffff80001172:	49 89 f8             	mov    r8,rdi
ffffffff80001175:	41 b9 01 00 00 00    	mov    r9d,0x1
ffffffff8000117b:	41 56                	push   r14
ffffffff8000117d:	49 89 fe             	mov    r14,rdi
ffffffff80001180:	41 55                	push   r13
ffffffff80001182:	4c 63 ee             	movsxd r13,esi
ffffffff80001185:	41 54                	push   r12
ffffffff80001187:	55                   	push   rbp
ffffffff80001188:	48 89 d5             	mov    rbp,rdx
ffffffff8000118b:	53                   	push   rbx
ffffffff8000118c:	48 c7 c3 c1 2e 01 80 	mov    rbx,0xffffffff80012ec1
ffffffff80001193:	48 83 ec 48          	sub    rsp,0x48
ffffffff80001197:	4d 85 ed             	test   r13,r13
ffffffff8000119a:	c6 05 20 1d 01 00 00 	mov    BYTE PTR [rip+0x11d20],0x0        # ffffffff80012ec1 <buffer.1+0x41>
ffffffff800011a1:	0f 94 04 24          	sete   BYTE PTR [rsp]
ffffffff800011a5:	49 83 fd ff          	cmp    r13,0xffffffffffffffff
ffffffff800011a9:	0f 94 44 24 08       	sete   BYTE PTR [rsp+0x8]
ffffffff800011ae:	eb 74                	jmp    ffffffff80001224 <ltos+0xb4>
ffffffff800011b0:	48 39 e9             	cmp    rcx,rbp
ffffffff800011b3:	0f 82 b7 00 00 00    	jb     ffffffff80001270 <ltos+0x100>
ffffffff800011b9:	4c 8d 53 ff          	lea    r10,[rbx-0x1]
ffffffff800011bd:	48 85 db             	test   rbx,rbx
ffffffff800011c0:	0f 84 d2 01 00 00    	je     ffffffff80001398 <ltos+0x228>
ffffffff800011c6:	ba 42 00 00 00       	mov    edx,0x42
ffffffff800011cb:	4c 89 cf             	mov    rdi,r9
ffffffff800011ce:	4d 89 d4             	mov    r12,r10
ffffffff800011d1:	49 39 d1             	cmp    r9,rdx
ffffffff800011d4:	49 0f 43 d1          	cmovae rdx,r9
ffffffff800011d8:	48 89 d6             	mov    rsi,rdx
ffffffff800011db:	4c 29 ce             	sub    rsi,r9
ffffffff800011de:	48 83 ee 01          	sub    rsi,0x1
ffffffff800011e2:	48 39 d6             	cmp    rsi,rdx
ffffffff800011e5:	48 0f 42 f2          	cmovb  rsi,rdx
ffffffff800011e9:	48 29 d7             	sub    rdi,rdx
ffffffff800011ec:	4c 8d 5c 37 01       	lea    r11,[rdi+rsi*1+0x1]
ffffffff800011f1:	48 85 c9             	test   rcx,rcx
ffffffff800011f4:	0f 84 4f 01 00 00    	je     ffffffff80001349 <ltos+0x1d9>
ffffffff800011fa:	0f b6 11             	movzx  edx,BYTE PTR [rcx]
ffffffff800011fd:	4d 85 d2             	test   r10,r10
ffffffff80001200:	0f 84 f5 00 00 00    	je     ffffffff800012fb <ltos+0x18b>
ffffffff80001206:	41 88 12             	mov    BYTE PTR [r10],dl
ffffffff80001209:	45 84 ff             	test   r15b,r15b
ffffffff8000120c:	0f 85 1b ff ff ff    	jne    ffffffff8000112d <ltos.cold+0x2b>
ffffffff80001212:	49 89 c0             	mov    r8,rax
ffffffff80001215:	48 85 c0             	test   rax,rax
ffffffff80001218:	0f 84 92 00 00 00    	je     ffffffff800012b0 <ltos+0x140>
ffffffff8000121e:	4d 89 d9             	mov    r9,r11
ffffffff80001221:	4c 89 d3             	mov    rbx,r10
ffffffff80001224:	48 b8 00 00 00 00 00 	movabs rax,0x8000000000000000
ffffffff8000122b:	00 00 80 
ffffffff8000122e:	49 39 c0             	cmp    r8,rax
ffffffff80001231:	41 0f 94 c7          	sete   r15b
ffffffff80001235:	44 22 7c 24 08       	and    r15b,BYTE PTR [rsp+0x8]
ffffffff8000123a:	44 0a 3c 24          	or     r15b,BYTE PTR [rsp]
ffffffff8000123e:	0f 85 be fe ff ff    	jne    ffffffff80001102 <ltos.cold>
ffffffff80001244:	4c 89 c0             	mov    rax,r8
ffffffff80001247:	48 99                	cqo
ffffffff80001249:	49 f7 fd             	idiv   r13
ffffffff8000124c:	48 89 d1             	mov    rcx,rdx
ffffffff8000124f:	48 f7 d9             	neg    rcx
ffffffff80001252:	4d 85 f6             	test   r14,r14
ffffffff80001255:	48 0f 48 d1          	cmovs  rdx,rcx
ffffffff80001259:	48 8d 4c 15 00       	lea    rcx,[rbp+rdx*1+0x0]
ffffffff8000125e:	48 85 d2             	test   rdx,rdx
ffffffff80001261:	0f 89 49 ff ff ff    	jns    ffffffff800011b0 <ltos+0x40>
ffffffff80001267:	48 39 cd             	cmp    rbp,rcx
ffffffff8000126a:	0f 83 49 ff ff ff    	jae    ffffffff800011b9 <ltos+0x49>
ffffffff80001270:	48 89 ca             	mov    rdx,rcx
ffffffff80001273:	48 89 ee             	mov    rsi,rbp
ffffffff80001276:	4c 89 4c 24 28       	mov    QWORD PTR [rsp+0x28],r9
ffffffff8000127b:	48 c7 c7 50 e5 00 80 	mov    rdi,0xffffffff8000e550
ffffffff80001282:	4c 89 44 24 20       	mov    QWORD PTR [rsp+0x20],r8
ffffffff80001287:	48 89 44 24 18       	mov    QWORD PTR [rsp+0x18],rax
ffffffff8000128c:	48 89 4c 24 10       	mov    QWORD PTR [rsp+0x10],rcx
ffffffff80001291:	e8 4a 50 00 00       	call   ffffffff800062e0 <__ubsan_handle_pointer_overflow>
ffffffff80001296:	48 8b 4c 24 10       	mov    rcx,QWORD PTR [rsp+0x10]
ffffffff8000129b:	48 8b 44 24 18       	mov    rax,QWORD PTR [rsp+0x18]
ffffffff800012a0:	4c 8b 44 24 20       	mov    r8,QWORD PTR [rsp+0x20]
ffffffff800012a5:	4c 8b 4c 24 28       	mov    r9,QWORD PTR [rsp+0x28]
ffffffff800012aa:	e9 0a ff ff ff       	jmp    ffffffff800011b9 <ltos+0x49>
ffffffff800012af:	90                   	nop
ffffffff800012b0:	4d 85 f6             	test   r14,r14
ffffffff800012b3:	78 1b                	js     ffffffff800012d0 <ltos+0x160>
ffffffff800012b5:	48 83 c4 48          	add    rsp,0x48
ffffffff800012b9:	4c 89 e0             	mov    rax,r12
ffffffff800012bc:	5b                   	pop    rbx
ffffffff800012bd:	5d                   	pop    rbp
ffffffff800012be:	41 5c                	pop    r12
ffffffff800012c0:	41 5d                	pop    r13
ffffffff800012c2:	41 5e                	pop    r14
ffffffff800012c4:	41 5f                	pop    r15
ffffffff800012c6:	c3                   	ret
ffffffff800012c7:	66 0f 1f 84 00 00 00 	nop    WORD PTR [rax+rax*1+0x0]
ffffffff800012ce:	00 00 
ffffffff800012d0:	49 8d 52 ff          	lea    rdx,[r10-0x1]
ffffffff800012d4:	4d 85 d2             	test   r10,r10
ffffffff800012d7:	0f 84 28 01 00 00    	je     ffffffff80001405 <ltos+0x295>
ffffffff800012dd:	48 83 eb 02          	sub    rbx,0x2
ffffffff800012e1:	0f 84 43 01 00 00    	je     ffffffff8000142a <ltos+0x2ba>
ffffffff800012e7:	49 83 f9 ff          	cmp    r9,0xffffffffffffffff
ffffffff800012eb:	0f 82 ef 00 00 00    	jb     ffffffff800013e0 <ltos+0x270>
ffffffff800012f1:	41 c6 42 ff 2d       	mov    BYTE PTR [r10-0x1],0x2d
ffffffff800012f6:	49 89 dc             	mov    r12,rbx
ffffffff800012f9:	eb ba                	jmp    ffffffff800012b5 <ltos+0x145>
ffffffff800012fb:	31 f6                	xor    esi,esi
ffffffff800012fd:	48 c7 c7 e0 e4 00 80 	mov    rdi,0xffffffff8000e4e0
ffffffff80001304:	4c 89 54 24 38       	mov    QWORD PTR [rsp+0x38],r10
ffffffff80001309:	4c 89 4c 24 30       	mov    QWORD PTR [rsp+0x30],r9
ffffffff8000130e:	4c 89 44 24 28       	mov    QWORD PTR [rsp+0x28],r8
ffffffff80001313:	48 89 44 24 20       	mov    QWORD PTR [rsp+0x20],rax
ffffffff80001318:	4c 89 5c 24 18       	mov    QWORD PTR [rsp+0x18],r11
ffffffff8000131d:	88 54 24 10          	mov    BYTE PTR [rsp+0x10],dl
ffffffff80001321:	e8 6a 47 00 00       	call   ffffffff80005a90 <__ubsan_handle_type_mismatch_v1>
ffffffff80001326:	4c 8b 54 24 38       	mov    r10,QWORD PTR [rsp+0x38]
ffffffff8000132b:	4c 8b 4c 24 30       	mov    r9,QWORD PTR [rsp+0x30]
ffffffff80001330:	4c 8b 44 24 28       	mov    r8,QWORD PTR [rsp+0x28]
ffffffff80001335:	48 8b 44 24 20       	mov    rax,QWORD PTR [rsp+0x20]
ffffffff8000133a:	4c 8b 5c 24 18       	mov    r11,QWORD PTR [rsp+0x18]
ffffffff8000133f:	0f b6 54 24 10       	movzx  edx,BYTE PTR [rsp+0x10]
ffffffff80001344:	e9 bd fe ff ff       	jmp    ffffffff80001206 <ltos+0x96>
ffffffff80001349:	31 f6                	xor    esi,esi
ffffffff8000134b:	48 c7 c7 00 e5 00 80 	mov    rdi,0xffffffff8000e500
ffffffff80001352:	4c 89 54 24 38       	mov    QWORD PTR [rsp+0x38],r10
ffffffff80001357:	4c 89 4c 24 30       	mov    QWORD PTR [rsp+0x30],r9
ffffffff8000135c:	4c 89 44 24 28       	mov    QWORD PTR [rsp+0x28],r8
ffffffff80001361:	48 89 4c 24 20       	mov    QWORD PTR [rsp+0x20],rcx
ffffffff80001366:	48 89 44 24 18       	mov    QWORD PTR [rsp+0x18],rax
ffffffff8000136b:	4c 89 5c 24 10       	mov    QWORD PTR [rsp+0x10],r11
ffffffff80001370:	e8 1b 47 00 00       	call   ffffffff80005a90 <__ubsan_handle_type_mismatch_v1>
ffffffff80001375:	4c 8b 54 24 38       	mov    r10,QWORD PTR [rsp+0x38]
ffffffff8000137a:	4c 8b 4c 24 30       	mov    r9,QWORD PTR [rsp+0x30]
ffffffff8000137f:	4c 8b 44 24 28       	mov    r8,QWORD PTR [rsp+0x28]
ffffffff80001384:	48 8b 4c 24 20       	mov    rcx,QWORD PTR [rsp+0x20]
ffffffff80001389:	48 8b 44 24 18       	mov    rax,QWORD PTR [rsp+0x18]
ffffffff8000138e:	4c 8b 5c 24 10       	mov    r11,QWORD PTR [rsp+0x10]
ffffffff80001393:	e9 62 fe ff ff       	jmp    ffffffff800011fa <ltos+0x8a>
ffffffff80001398:	4c 89 d2             	mov    rdx,r10
ffffffff8000139b:	31 f6                	xor    esi,esi
ffffffff8000139d:	4c 89 4c 24 30       	mov    QWORD PTR [rsp+0x30],r9
ffffffff800013a2:	48 c7 c7 40 e5 00 80 	mov    rdi,0xffffffff8000e540
ffffffff800013a9:	4c 89 44 24 28       	mov    QWORD PTR [rsp+0x28],r8
ffffffff800013ae:	48 89 4c 24 20       	mov    QWORD PTR [rsp+0x20],rcx
ffffffff800013b3:	48 89 44 24 18       	mov    QWORD PTR [rsp+0x18],rax
ffffffff800013b8:	4c 89 54 24 10       	mov    QWORD PTR [rsp+0x10],r10
ffffffff800013bd:	e8 1e 4f 00 00       	call   ffffffff800062e0 <__ubsan_handle_pointer_overflow>
ffffffff800013c2:	4c 8b 4c 24 30       	mov    r9,QWORD PTR [rsp+0x30]
ffffffff800013c7:	4c 8b 44 24 28       	mov    r8,QWORD PTR [rsp+0x28]
ffffffff800013cc:	48 8b 4c 24 20       	mov    rcx,QWORD PTR [rsp+0x20]
ffffffff800013d1:	48 8b 44 24 18       	mov    rax,QWORD PTR [rsp+0x18]
ffffffff800013d6:	4c 8b 54 24 10       	mov    r10,QWORD PTR [rsp+0x10]
ffffffff800013db:	e9 e6 fd ff ff       	jmp    ffffffff800011c6 <ltos+0x56>
ffffffff800013e0:	48 85 db             	test   rbx,rbx
ffffffff800013e3:	0f 85 08 ff ff ff    	jne    ffffffff800012f1 <ltos+0x181>
ffffffff800013e9:	48 89 de             	mov    rsi,rbx
ffffffff800013ec:	48 c7 c7 80 e4 00 80 	mov    rdi,0xffffffff8000e480
ffffffff800013f3:	4c 89 14 24          	mov    QWORD PTR [rsp],r10
ffffffff800013f7:	e8 94 46 00 00       	call   ffffffff80005a90 <__ubsan_handle_type_mismatch_v1>
ffffffff800013fc:	4c 8b 14 24          	mov    r10,QWORD PTR [rsp]
ffffffff80001400:	e9 ec fe ff ff       	jmp    ffffffff800012f1 <ltos+0x181>
ffffffff80001405:	31 f6                	xor    esi,esi
ffffffff80001407:	48 c7 c7 c0 e4 00 80 	mov    rdi,0xffffffff8000e4c0
ffffffff8000140e:	4c 89 54 24 08       	mov    QWORD PTR [rsp+0x8],r10
ffffffff80001413:	4c 89 0c 24          	mov    QWORD PTR [rsp],r9
ffffffff80001417:	e8 c4 4e 00 00       	call   ffffffff800062e0 <__ubsan_handle_pointer_overflow>
ffffffff8000141c:	4c 8b 54 24 08       	mov    r10,QWORD PTR [rsp+0x8]
ffffffff80001421:	4c 8b 0c 24          	mov    r9,QWORD PTR [rsp]
ffffffff80001425:	e9 b3 fe ff ff       	jmp    ffffffff800012dd <ltos+0x16d>
ffffffff8000142a:	31 f6                	xor    esi,esi
ffffffff8000142c:	48 c7 c7 a0 e4 00 80 	mov    rdi,0xffffffff8000e4a0
ffffffff80001433:	4c 89 54 24 08       	mov    QWORD PTR [rsp+0x8],r10
ffffffff80001438:	4c 89 0c 24          	mov    QWORD PTR [rsp],r9
ffffffff8000143c:	e8 4f 46 00 00       	call   ffffffff80005a90 <__ubsan_handle_type_mismatch_v1>
ffffffff80001441:	4c 8b 54 24 08       	mov    r10,QWORD PTR [rsp+0x8]
ffffffff80001446:	4c 8b 0c 24          	mov    r9,QWORD PTR [rsp]
ffffffff8000144a:	e9 98 fe ff ff       	jmp    ffffffff800012e7 <ltos+0x177>

ffffffff8000144f <ultos.cold>:
ffffffff8000144f:	4c 89 c6             	mov    rsi,r8
ffffffff80001452:	31 d2                	xor    edx,edx
ffffffff80001454:	4c 89 5c 24 20       	mov    QWORD PTR [rsp+0x20],r11
ffffffff80001459:	48 c7 c7 90 e5 00 80 	mov    rdi,0xffffffff8000e590
ffffffff80001460:	4c 89 54 24 18       	mov    QWORD PTR [rsp+0x18],r10
ffffffff80001465:	4c 89 4c 24 10       	mov    QWORD PTR [rsp+0x10],r9
ffffffff8000146a:	4c 89 44 24 08       	mov    QWORD PTR [rsp+0x8],r8
ffffffff8000146f:	e8 dc 4c 00 00       	call   ffffffff80006150 <__ubsan_handle_divrem_overflow>
ffffffff80001474:	4c 8b 44 24 08       	mov    r8,QWORD PTR [rsp+0x8]
ffffffff80001479:	4c 8b 4c 24 10       	mov    r9,QWORD PTR [rsp+0x10]
ffffffff8000147e:	4c 8b 54 24 18       	mov    r10,QWORD PTR [rsp+0x18]
ffffffff80001483:	4c 8b 5c 24 20       	mov    r11,QWORD PTR [rsp+0x20]
ffffffff80001488:	e9 c0 00 00 00       	jmp    ffffffff8000154d <ultos+0x6d>
ffffffff8000148d:	31 d2                	xor    edx,edx
ffffffff8000148f:	4c 89 c6             	mov    rsi,r8
ffffffff80001492:	4c 89 5c 24 20       	mov    QWORD PTR [rsp+0x20],r11
ffffffff80001497:	48 c7 c7 70 e5 00 80 	mov    rdi,0xffffffff8000e570
ffffffff8000149e:	4c 89 54 24 18       	mov    QWORD PTR [rsp+0x18],r10
ffffffff800014a3:	4c 89 4c 24 10       	mov    QWORD PTR [rsp+0x10],r9
ffffffff800014a8:	4c 89 44 24 08       	mov    QWORD PTR [rsp+0x8],r8
ffffffff800014ad:	e8 9e 4c 00 00       	call   ffffffff80006150 <__ubsan_handle_divrem_overflow>
ffffffff800014b2:	48 8b 44 24 08       	mov    rax,QWORD PTR [rsp+0x8]
ffffffff800014b7:	4c 8b 4c 24 10       	mov    r9,QWORD PTR [rsp+0x10]
ffffffff800014bc:	31 d2                	xor    edx,edx
ffffffff800014be:	4c 8b 54 24 18       	mov    r10,QWORD PTR [rsp+0x18]
ffffffff800014c3:	4c 8b 5c 24 20       	mov    r11,QWORD PTR [rsp+0x20]
ffffffff800014c8:	49 f7 f1             	div    r9
ffffffff800014cb:	49 89 c0             	mov    r8,rax
ffffffff800014ce:	e9 2c 00 00 00       	jmp    ffffffff800014ff <ultos+0x1f>
ffffffff800014d3:	66 2e 0f 1f 84 00 00 	cs nop WORD PTR [rax+rax*1+0x0]
ffffffff800014da:	00 00 00 
ffffffff800014dd:	0f 1f 00             	nop    DWORD PTR [rax]

ffffffff800014e0 <ultos>:
ffffffff800014e0:	53                   	push   rbx
ffffffff800014e1:	4c 63 ce             	movsxd r9,esi
ffffffff800014e4:	49 89 f8             	mov    r8,rdi
ffffffff800014e7:	49 89 d3             	mov    r11,rdx
ffffffff800014ea:	4c 89 cb             	mov    rbx,r9
ffffffff800014ed:	49 c7 c2 61 2e 01 80 	mov    r10,0xffffffff80012e61
ffffffff800014f4:	48 83 ec 40          	sub    rsp,0x40
ffffffff800014f8:	c6 05 62 19 01 00 00 	mov    BYTE PTR [rip+0x11962],0x0        # ffffffff80012e61 <buffer.0+0x41>
ffffffff800014ff:	85 db                	test   ebx,ebx
ffffffff80001501:	75 4a                	jne    ffffffff8000154d <ultos+0x6d>
ffffffff80001503:	e9 47 ff ff ff       	jmp    ffffffff8000144f <ultos.cold>
ffffffff80001508:	0f 1f 84 00 00 00 00 	nop    DWORD PTR [rax+rax*1+0x0]
ffffffff8000150f:	00 
ffffffff80001510:	4c 39 d9             	cmp    rcx,r11
ffffffff80001513:	72 4e                	jb     ffffffff80001563 <ultos+0x83>
ffffffff80001515:	49 8d 52 ff          	lea    rdx,[r10-0x1]
ffffffff80001519:	4d 85 d2             	test   r10,r10
ffffffff8000151c:	0f 84 58 01 00 00    	je     ffffffff8000167a <ultos+0x19a>
ffffffff80001522:	49 89 d2             	mov    r10,rdx
ffffffff80001525:	48 85 c9             	test   rcx,rcx
ffffffff80001528:	0f 84 f3 00 00 00    	je     ffffffff80001621 <ultos+0x141>
ffffffff8000152e:	0f b6 09             	movzx  ecx,BYTE PTR [rcx]
ffffffff80001531:	48 85 d2             	test   rdx,rdx
ffffffff80001534:	0f 84 8f 00 00 00    	je     ffffffff800015c9 <ultos+0xe9>
ffffffff8000153a:	88 0a                	mov    BYTE PTR [rdx],cl
ffffffff8000153c:	4d 85 c9             	test   r9,r9
ffffffff8000153f:	0f 84 48 ff ff ff    	je     ffffffff8000148d <ultos.cold+0x3e>
ffffffff80001545:	4d 39 c8             	cmp    r8,r9
ffffffff80001548:	72 76                	jb     ffffffff800015c0 <ultos+0xe0>
ffffffff8000154a:	49 89 c0             	mov    r8,rax
ffffffff8000154d:	4c 89 c0             	mov    rax,r8
ffffffff80001550:	31 d2                	xor    edx,edx
ffffffff80001552:	49 f7 f1             	div    r9
ffffffff80001555:	49 8d 0c 13          	lea    rcx,[r11+rdx*1]
ffffffff80001559:	48 85 d2             	test   rdx,rdx
ffffffff8000155c:	79 b2                	jns    ffffffff80001510 <ultos+0x30>
ffffffff8000155e:	49 39 cb             	cmp    r11,rcx
ffffffff80001561:	73 b2                	jae    ffffffff80001515 <ultos+0x35>
ffffffff80001563:	48 89 ca             	mov    rdx,rcx
ffffffff80001566:	4c 89 de             	mov    rsi,r11
ffffffff80001569:	48 89 44 24 30       	mov    QWORD PTR [rsp+0x30],rax
ffffffff8000156e:	48 c7 c7 70 e4 00 80 	mov    rdi,0xffffffff8000e470
ffffffff80001575:	4c 89 44 24 28       	mov    QWORD PTR [rsp+0x28],r8
ffffffff8000157a:	4c 89 54 24 20       	mov    QWORD PTR [rsp+0x20],r10
ffffffff8000157f:	4c 89 4c 24 18       	mov    QWORD PTR [rsp+0x18],r9
ffffffff80001584:	48 89 4c 24 10       	mov    QWORD PTR [rsp+0x10],rcx
ffffffff80001589:	4c 89 5c 24 08       	mov    QWORD PTR [rsp+0x8],r11
ffffffff8000158e:	e8 4d 4d 00 00       	call   ffffffff800062e0 <__ubsan_handle_pointer_overflow>
ffffffff80001593:	4c 8b 5c 24 08       	mov    r11,QWORD PTR [rsp+0x8]
ffffffff80001598:	48 8b 4c 24 10       	mov    rcx,QWORD PTR [rsp+0x10]
ffffffff8000159d:	4c 8b 4c 24 18       	mov    r9,QWORD PTR [rsp+0x18]
ffffffff800015a2:	4c 8b 54 24 20       	mov    r10,QWORD PTR [rsp+0x20]
ffffffff800015a7:	4c 8b 44 24 28       	mov    r8,QWORD PTR [rsp+0x28]
ffffffff800015ac:	48 8b 44 24 30       	mov    rax,QWORD PTR [rsp+0x30]
ffffffff800015b1:	e9 5f ff ff ff       	jmp    ffffffff80001515 <ultos+0x35>
ffffffff800015b6:	66 2e 0f 1f 84 00 00 	cs nop WORD PTR [rax+rax*1+0x0]
ffffffff800015bd:	00 00 00 
ffffffff800015c0:	48 83 c4 40          	add    rsp,0x40
ffffffff800015c4:	48 89 d0             	mov    rax,rdx
ffffffff800015c7:	5b                   	pop    rbx
ffffffff800015c8:	c3                   	ret
ffffffff800015c9:	31 f6                	xor    esi,esi
ffffffff800015cb:	48 c7 c7 20 e4 00 80 	mov    rdi,0xffffffff8000e420
ffffffff800015d2:	4c 89 5c 24 38       	mov    QWORD PTR [rsp+0x38],r11
ffffffff800015d7:	48 89 54 24 30       	mov    QWORD PTR [rsp+0x30],rdx
ffffffff800015dc:	48 89 44 24 28       	mov    QWORD PTR [rsp+0x28],rax
ffffffff800015e1:	4c 89 44 24 20       	mov    QWORD PTR [rsp+0x20],r8
ffffffff800015e6:	4c 89 54 24 18       	mov    QWORD PTR [rsp+0x18],r10
ffffffff800015eb:	4c 89 4c 24 10       	mov    QWORD PTR [rsp+0x10],r9
ffffffff800015f0:	88 4c 24 08          	mov    BYTE PTR [rsp+0x8],cl
ffffffff800015f4:	e8 97 44 00 00       	call   ffffffff80005a90 <__ubsan_handle_type_mismatch_v1>
ffffffff800015f9:	4c 8b 5c 24 38       	mov    r11,QWORD PTR [rsp+0x38]
ffffffff800015fe:	48 8b 54 24 30       	mov    rdx,QWORD PTR [rsp+0x30]
ffffffff80001603:	48 8b 44 24 28       	mov    rax,QWORD PTR [rsp+0x28]
ffffffff80001608:	4c 8b 44 24 20       	mov    r8,QWORD PTR [rsp+0x20]
ffffffff8000160d:	4c 8b 54 24 18       	mov    r10,QWORD PTR [rsp+0x18]
ffffffff80001612:	4c 8b 4c 24 10       	mov    r9,QWORD PTR [rsp+0x10]
ffffffff80001617:	0f b6 4c 24 08       	movzx  ecx,BYTE PTR [rsp+0x8]
ffffffff8000161c:	e9 19 ff ff ff       	jmp    ffffffff8000153a <ultos+0x5a>
ffffffff80001621:	31 f6                	xor    esi,esi
ffffffff80001623:	48 c7 c7 40 e4 00 80 	mov    rdi,0xffffffff8000e440
ffffffff8000162a:	4c 89 5c 24 38       	mov    QWORD PTR [rsp+0x38],r11
ffffffff8000162f:	48 89 54 24 30       	mov    QWORD PTR [rsp+0x30],rdx
ffffffff80001634:	48 89 4c 24 28       	mov    QWORD PTR [rsp+0x28],rcx
ffffffff80001639:	48 89 44 24 20       	mov    QWORD PTR [rsp+0x20],rax
ffffffff8000163e:	4c 89 44 24 18       	mov    QWORD PTR [rsp+0x18],r8
ffffffff80001643:	48 89 54 24 10       	mov    QWORD PTR [rsp+0x10],rdx
ffffffff80001648:	4c 89 4c 24 08       	mov    QWORD PTR [rsp+0x8],r9
ffffffff8000164d:	e8 3e 44 00 00       	call   ffffffff80005a90 <__ubsan_handle_type_mismatch_v1>
ffffffff80001652:	4c 8b 5c 24 38       	mov    r11,QWORD PTR [rsp+0x38]
ffffffff80001657:	48 8b 54 24 30       	mov    rdx,QWORD PTR [rsp+0x30]
ffffffff8000165c:	48 8b 4c 24 28       	mov    rcx,QWORD PTR [rsp+0x28]
ffffffff80001661:	48 8b 44 24 20       	mov    rax,QWORD PTR [rsp+0x20]
ffffffff80001666:	4c 8b 44 24 18       	mov    r8,QWORD PTR [rsp+0x18]
ffffffff8000166b:	4c 8b 54 24 10       	mov    r10,QWORD PTR [rsp+0x10]
ffffffff80001670:	4c 8b 4c 24 08       	mov    r9,QWORD PTR [rsp+0x8]
ffffffff80001675:	e9 b4 fe ff ff       	jmp    ffffffff8000152e <ultos+0x4e>
ffffffff8000167a:	31 f6                	xor    esi,esi
ffffffff8000167c:	48 c7 c7 60 e4 00 80 	mov    rdi,0xffffffff8000e460
ffffffff80001683:	4c 89 5c 24 30       	mov    QWORD PTR [rsp+0x30],r11
ffffffff80001688:	48 89 4c 24 28       	mov    QWORD PTR [rsp+0x28],rcx
ffffffff8000168d:	48 89 44 24 20       	mov    QWORD PTR [rsp+0x20],rax
ffffffff80001692:	4c 89 44 24 18       	mov    QWORD PTR [rsp+0x18],r8
ffffffff80001697:	4c 89 4c 24 10       	mov    QWORD PTR [rsp+0x10],r9
ffffffff8000169c:	48 89 54 24 08       	mov    QWORD PTR [rsp+0x8],rdx
ffffffff800016a1:	e8 3a 4c 00 00       	call   ffffffff800062e0 <__ubsan_handle_pointer_overflow>
ffffffff800016a6:	4c 8b 5c 24 30       	mov    r11,QWORD PTR [rsp+0x30]
ffffffff800016ab:	48 8b 4c 24 28       	mov    rcx,QWORD PTR [rsp+0x28]
ffffffff800016b0:	48 8b 44 24 20       	mov    rax,QWORD PTR [rsp+0x20]
ffffffff800016b5:	4c 8b 44 24 18       	mov    r8,QWORD PTR [rsp+0x18]
ffffffff800016ba:	4c 8b 4c 24 10       	mov    r9,QWORD PTR [rsp+0x10]
ffffffff800016bf:	48 8b 54 24 08       	mov    rdx,QWORD PTR [rsp+0x8]
ffffffff800016c4:	e9 59 fe ff ff       	jmp    ffffffff80001522 <ultos+0x42>
ffffffff800016c9:	0f 1f 80 00 00 00 00 	nop    DWORD PTR [rax+0x0]

ffffffff800016d0 <write_string>:
ffffffff800016d0:	41 56                	push   r14
ffffffff800016d2:	41 55                	push   r13
ffffffff800016d4:	41 54                	push   r12
ffffffff800016d6:	49 89 fc             	mov    r12,rdi
ffffffff800016d9:	55                   	push   rbp
ffffffff800016da:	53                   	push   rbx
ffffffff800016db:	48 83 ec 10          	sub    rsp,0x10
ffffffff800016df:	48 85 f6             	test   rsi,rsi
ffffffff800016e2:	74 64                	je     ffffffff80001748 <write_string+0x78>
ffffffff800016e4:	44 0f b6 36          	movzx  r14d,BYTE PTR [rsi]
ffffffff800016e8:	48 89 f5             	mov    rbp,rsi
ffffffff800016eb:	31 db                	xor    ebx,ebx
ffffffff800016ed:	45 84 f6             	test   r14b,r14b
ffffffff800016f0:	0f 84 c8 00 00 00    	je     ffffffff800017be <write_string+0xee>
ffffffff800016f6:	66 2e 0f 1f 84 00 00 	cs nop WORD PTR [rax+rax*1+0x0]
ffffffff800016fd:	00 00 00 
ffffffff80001700:	4c 8d 6d 01          	lea    r13,[rbp+0x1]
ffffffff80001704:	48 83 fd ff          	cmp    rbp,0xffffffffffffffff
ffffffff80001708:	0f 83 c1 00 00 00    	jae    ffffffff800017cf <write_string+0xff>
ffffffff8000170e:	41 0f be fe          	movsx  edi,r14b
ffffffff80001712:	41 89 de             	mov    r14d,ebx
ffffffff80001715:	4c 89 ed             	mov    rbp,r13
ffffffff80001718:	41 ff d4             	call   r12
ffffffff8000171b:	41 83 c6 01          	add    r14d,0x1
ffffffff8000171f:	0f 80 c1 00 00 00    	jo     ffffffff800017e6 <write_string+0x116>
ffffffff80001725:	44 89 f3             	mov    ebx,r14d
ffffffff80001728:	45 0f b6 75 00       	movzx  r14d,BYTE PTR [r13+0x0]
ffffffff8000172d:	45 84 f6             	test   r14b,r14b
ffffffff80001730:	75 ce                	jne    ffffffff80001700 <write_string+0x30>
ffffffff80001732:	48 83 c4 10          	add    rsp,0x10
ffffffff80001736:	89 d8                	mov    eax,ebx
ffffffff80001738:	5b                   	pop    rbx
ffffffff80001739:	5d                   	pop    rbp
ffffffff8000173a:	41 5c                	pop    r12
ffffffff8000173c:	41 5d                	pop    r13
ffffffff8000173e:	41 5e                	pop    r14
ffffffff80001740:	c3                   	ret
ffffffff80001741:	0f 1f 80 00 00 00 00 	nop    DWORD PTR [rax+0x0]
ffffffff80001748:	bd 07 00 00 00       	mov    ebp,0x7
ffffffff8000174d:	41 bd 28 00 00 00    	mov    r13d,0x28
ffffffff80001753:	48 c7 c6 1e c0 00 80 	mov    rsi,0xffffffff8000c01e
ffffffff8000175a:	eb 0a                	jmp    ffffffff80001766 <write_string+0x96>
ffffffff8000175c:	0f 1f 40 00          	nop    DWORD PTR [rax+0x0]
ffffffff80001760:	48 89 dd             	mov    rbp,rbx
ffffffff80001763:	4c 89 f6             	mov    rsi,r14
ffffffff80001766:	4c 8d 76 01          	lea    r14,[rsi+0x1]
ffffffff8000176a:	48 83 fe ff          	cmp    rsi,0xffffffffffffffff
ffffffff8000176e:	0f 83 8b 00 00 00    	jae    ffffffff800017ff <write_string+0x12f>
ffffffff80001774:	ba 07 00 00 00       	mov    edx,0x7
ffffffff80001779:	48 8d 4d ff          	lea    rcx,[rbp-0x1]
ffffffff8000177d:	48 39 d5             	cmp    rbp,rdx
ffffffff80001780:	48 0f 43 d5          	cmovae rdx,rbp
ffffffff80001784:	48 89 d0             	mov    rax,rdx
ffffffff80001787:	48 29 e8             	sub    rax,rbp
ffffffff8000178a:	48 83 c0 01          	add    rax,0x1
ffffffff8000178e:	48 39 d0             	cmp    rax,rdx
ffffffff80001791:	48 0f 42 c2          	cmovb  rax,rdx
ffffffff80001795:	48 29 d1             	sub    rcx,rdx
ffffffff80001798:	48 8d 1c 08          	lea    rbx,[rax+rcx*1]
ffffffff8000179c:	48 85 ed             	test   rbp,rbp
ffffffff8000179f:	0f 84 89 00 00 00    	je     ffffffff8000182e <write_string+0x15e>
ffffffff800017a5:	41 0f be fd          	movsx  edi,r13b
ffffffff800017a9:	41 ff d4             	call   r12
ffffffff800017ac:	48 85 db             	test   rbx,rbx
ffffffff800017af:	74 6c                	je     ffffffff8000181d <write_string+0x14d>
ffffffff800017b1:	45 0f b6 2e          	movzx  r13d,BYTE PTR [r14]
ffffffff800017b5:	49 81 fe 24 c0 00 80 	cmp    r14,0xffffffff8000c024
ffffffff800017bc:	75 a2                	jne    ffffffff80001760 <write_string+0x90>
ffffffff800017be:	48 83 c4 10          	add    rsp,0x10
ffffffff800017c2:	31 db                	xor    ebx,ebx
ffffffff800017c4:	89 d8                	mov    eax,ebx
ffffffff800017c6:	5b                   	pop    rbx
ffffffff800017c7:	5d                   	pop    rbp
ffffffff800017c8:	41 5c                	pop    r12
ffffffff800017ca:	41 5d                	pop    r13
ffffffff800017cc:	41 5e                	pop    r14
ffffffff800017ce:	c3                   	ret
ffffffff800017cf:	4c 89 ea             	mov    rdx,r13
ffffffff800017d2:	48 89 ee             	mov    rsi,rbp
ffffffff800017d5:	48 c7 c7 10 e4 00 80 	mov    rdi,0xffffffff8000e410
ffffffff800017dc:	e8 ff 4a 00 00       	call   ffffffff800062e0 <__ubsan_handle_pointer_overflow>
ffffffff800017e1:	e9 28 ff ff ff       	jmp    ffffffff8000170e <write_string+0x3e>
ffffffff800017e6:	48 63 f3             	movsxd rsi,ebx
ffffffff800017e9:	ba 01 00 00 00       	mov    edx,0x1
ffffffff800017ee:	48 c7 c7 80 e3 00 80 	mov    rdi,0xffffffff8000e380
ffffffff800017f5:	e8 c6 47 00 00       	call   ffffffff80005fc0 <__ubsan_handle_add_overflow>
ffffffff800017fa:	e9 26 ff ff ff       	jmp    ffffffff80001725 <write_string+0x55>
ffffffff800017ff:	4c 89 f2             	mov    rdx,r14
ffffffff80001802:	48 c7 c7 00 e4 00 80 	mov    rdi,0xffffffff8000e400
ffffffff80001809:	48 89 74 24 08       	mov    QWORD PTR [rsp+0x8],rsi
ffffffff8000180e:	e8 cd 4a 00 00       	call   ffffffff800062e0 <__ubsan_handle_pointer_overflow>
ffffffff80001813:	48 8b 74 24 08       	mov    rsi,QWORD PTR [rsp+0x8]
ffffffff80001818:	e9 57 ff ff ff       	jmp    ffffffff80001774 <write_string+0xa4>
ffffffff8000181d:	4c 89 f6             	mov    rsi,r14
ffffffff80001820:	48 c7 c7 c0 e3 00 80 	mov    rdi,0xffffffff8000e3c0
ffffffff80001827:	e8 64 42 00 00       	call   ffffffff80005a90 <__ubsan_handle_type_mismatch_v1>
ffffffff8000182c:	eb 83                	jmp    ffffffff800017b1 <write_string+0xe1>
ffffffff8000182e:	48 c7 c7 e0 e3 00 80 	mov    rdi,0xffffffff8000e3e0
ffffffff80001835:	e8 56 42 00 00       	call   ffffffff80005a90 <__ubsan_handle_type_mismatch_v1>
ffffffff8000183a:	e9 66 ff ff ff       	jmp    ffffffff800017a5 <write_string+0xd5>
ffffffff8000183f:	90                   	nop

ffffffff80001840 <next_int>:
ffffffff80001840:	8b 01                	mov    eax,DWORD PTR [rcx]
ffffffff80001842:	40 0f b6 f6          	movzx  esi,sil
ffffffff80001846:	40 80 ff 02          	cmp    dil,0x2
ffffffff8000184a:	74 4c                	je     ffffffff80001898 <next_int+0x58>
ffffffff8000184c:	40 80 ff 03          	cmp    dil,0x3
ffffffff80001850:	74 26                	je     ffffffff80001878 <next_int+0x38>
ffffffff80001852:	40 80 ff 01          	cmp    dil,0x1
ffffffff80001856:	75 60                	jne    ffffffff800018b8 <next_int+0x78>
ffffffff80001858:	83 f8 2f             	cmp    eax,0x2f
ffffffff8000185b:	0f 87 b7 00 00 00    	ja     ffffffff80001918 <next_int+0xd8>
ffffffff80001861:	89 c7                	mov    edi,eax
ffffffff80001863:	83 c0 08             	add    eax,0x8
ffffffff80001866:	48 03 79 10          	add    rdi,QWORD PTR [rcx+0x10]
ffffffff8000186a:	89 01                	mov    DWORD PTR [rcx],eax
ffffffff8000186c:	48 0f be 3f          	movsx  rdi,BYTE PTR [rdi]
ffffffff80001870:	e9 fb f8 ff ff       	jmp    ffffffff80001170 <ltos>
ffffffff80001875:	0f 1f 00             	nop    DWORD PTR [rax]
ffffffff80001878:	83 f8 2f             	cmp    eax,0x2f
ffffffff8000187b:	0f 87 7f 00 00 00    	ja     ffffffff80001900 <next_int+0xc0>
ffffffff80001881:	89 c7                	mov    edi,eax
ffffffff80001883:	83 c0 08             	add    eax,0x8
ffffffff80001886:	48 03 79 10          	add    rdi,QWORD PTR [rcx+0x10]
ffffffff8000188a:	89 01                	mov    DWORD PTR [rcx],eax
ffffffff8000188c:	48 8b 3f             	mov    rdi,QWORD PTR [rdi]
ffffffff8000188f:	e9 dc f8 ff ff       	jmp    ffffffff80001170 <ltos>
ffffffff80001894:	0f 1f 40 00          	nop    DWORD PTR [rax+0x0]
ffffffff80001898:	83 f8 2f             	cmp    eax,0x2f
ffffffff8000189b:	77 4b                	ja     ffffffff800018e8 <next_int+0xa8>
ffffffff8000189d:	89 c7                	mov    edi,eax
ffffffff8000189f:	83 c0 08             	add    eax,0x8
ffffffff800018a2:	48 03 79 10          	add    rdi,QWORD PTR [rcx+0x10]
ffffffff800018a6:	89 01                	mov    DWORD PTR [rcx],eax
ffffffff800018a8:	48 0f bf 3f          	movsx  rdi,WORD PTR [rdi]
ffffffff800018ac:	e9 bf f8 ff ff       	jmp    ffffffff80001170 <ltos>
ffffffff800018b1:	0f 1f 80 00 00 00 00 	nop    DWORD PTR [rax+0x0]
ffffffff800018b8:	83 f8 2f             	cmp    eax,0x2f
ffffffff800018bb:	77 13                	ja     ffffffff800018d0 <next_int+0x90>
ffffffff800018bd:	89 c7                	mov    edi,eax
ffffffff800018bf:	83 c0 08             	add    eax,0x8
ffffffff800018c2:	48 03 79 10          	add    rdi,QWORD PTR [rcx+0x10]
ffffffff800018c6:	89 01                	mov    DWORD PTR [rcx],eax
ffffffff800018c8:	48 63 3f             	movsxd rdi,DWORD PTR [rdi]
ffffffff800018cb:	e9 a0 f8 ff ff       	jmp    ffffffff80001170 <ltos>
ffffffff800018d0:	48 8b 79 08          	mov    rdi,QWORD PTR [rcx+0x8]
ffffffff800018d4:	48 8d 47 08          	lea    rax,[rdi+0x8]
ffffffff800018d8:	48 89 41 08          	mov    QWORD PTR [rcx+0x8],rax
ffffffff800018dc:	48 63 3f             	movsxd rdi,DWORD PTR [rdi]
ffffffff800018df:	e9 8c f8 ff ff       	jmp    ffffffff80001170 <ltos>
ffffffff800018e4:	0f 1f 40 00          	nop    DWORD PTR [rax+0x0]
ffffffff800018e8:	48 8b 79 08          	mov    rdi,QWORD PTR [rcx+0x8]
ffffffff800018ec:	48 8d 47 08          	lea    rax,[rdi+0x8]
ffffffff800018f0:	48 89 41 08          	mov    QWORD PTR [rcx+0x8],rax
ffffffff800018f4:	48 0f bf 3f          	movsx  rdi,WORD PTR [rdi]
ffffffff800018f8:	e9 73 f8 ff ff       	jmp    ffffffff80001170 <ltos>
ffffffff800018fd:	0f 1f 00             	nop    DWORD PTR [rax]
ffffffff80001900:	48 8b 79 08          	mov    rdi,QWORD PTR [rcx+0x8]
ffffffff80001904:	48 8d 47 08          	lea    rax,[rdi+0x8]
ffffffff80001908:	48 89 41 08          	mov    QWORD PTR [rcx+0x8],rax
ffffffff8000190c:	48 8b 3f             	mov    rdi,QWORD PTR [rdi]
ffffffff8000190f:	e9 5c f8 ff ff       	jmp    ffffffff80001170 <ltos>
ffffffff80001914:	0f 1f 40 00          	nop    DWORD PTR [rax+0x0]
ffffffff80001918:	48 8b 79 08          	mov    rdi,QWORD PTR [rcx+0x8]
ffffffff8000191c:	48 8d 47 08          	lea    rax,[rdi+0x8]
ffffffff80001920:	48 89 41 08          	mov    QWORD PTR [rcx+0x8],rax
ffffffff80001924:	48 0f be 3f          	movsx  rdi,BYTE PTR [rdi]
ffffffff80001928:	e9 43 f8 ff ff       	jmp    ffffffff80001170 <ltos>
ffffffff8000192d:	0f 1f 00             	nop    DWORD PTR [rax]

ffffffff80001930 <next_uint>:
ffffffff80001930:	8b 01                	mov    eax,DWORD PTR [rcx]
ffffffff80001932:	40 0f b6 f6          	movzx  esi,sil
ffffffff80001936:	40 80 ff 02          	cmp    dil,0x2
ffffffff8000193a:	74 4c                	je     ffffffff80001988 <next_uint+0x58>
ffffffff8000193c:	40 80 ff 03          	cmp    dil,0x3
ffffffff80001940:	74 26                	je     ffffffff80001968 <next_uint+0x38>
ffffffff80001942:	40 80 ff 01          	cmp    dil,0x1
ffffffff80001946:	75 58                	jne    ffffffff800019a0 <next_uint+0x70>
ffffffff80001948:	83 f8 2f             	cmp    eax,0x2f
ffffffff8000194b:	0f 87 b7 00 00 00    	ja     ffffffff80001a08 <next_uint+0xd8>
ffffffff80001951:	89 c7                	mov    edi,eax
ffffffff80001953:	83 c0 08             	add    eax,0x8
ffffffff80001956:	48 03 79 10          	add    rdi,QWORD PTR [rcx+0x10]
ffffffff8000195a:	89 01                	mov    DWORD PTR [rcx],eax
ffffffff8000195c:	0f b6 3f             	movzx  edi,BYTE PTR [rdi]
ffffffff8000195f:	e9 7c fb ff ff       	jmp    ffffffff800014e0 <ultos>
ffffffff80001964:	0f 1f 40 00          	nop    DWORD PTR [rax+0x0]
ffffffff80001968:	83 f8 2f             	cmp    eax,0x2f
ffffffff8000196b:	0f 87 7f 00 00 00    	ja     ffffffff800019f0 <next_uint+0xc0>
ffffffff80001971:	89 c7                	mov    edi,eax
ffffffff80001973:	83 c0 08             	add    eax,0x8
ffffffff80001976:	48 03 79 10          	add    rdi,QWORD PTR [rcx+0x10]
ffffffff8000197a:	89 01                	mov    DWORD PTR [rcx],eax
ffffffff8000197c:	48 8b 3f             	mov    rdi,QWORD PTR [rdi]
ffffffff8000197f:	e9 5c fb ff ff       	jmp    ffffffff800014e0 <ultos>
ffffffff80001984:	0f 1f 40 00          	nop    DWORD PTR [rax+0x0]
ffffffff80001988:	83 f8 2f             	cmp    eax,0x2f
ffffffff8000198b:	77 4b                	ja     ffffffff800019d8 <next_uint+0xa8>
ffffffff8000198d:	89 c7                	mov    edi,eax
ffffffff8000198f:	83 c0 08             	add    eax,0x8
ffffffff80001992:	48 03 79 10          	add    rdi,QWORD PTR [rcx+0x10]
ffffffff80001996:	89 01                	mov    DWORD PTR [rcx],eax
ffffffff80001998:	0f b7 3f             	movzx  edi,WORD PTR [rdi]
ffffffff8000199b:	e9 40 fb ff ff       	jmp    ffffffff800014e0 <ultos>
ffffffff800019a0:	83 f8 2f             	cmp    eax,0x2f
ffffffff800019a3:	77 1b                	ja     ffffffff800019c0 <next_uint+0x90>
ffffffff800019a5:	89 c7                	mov    edi,eax
ffffffff800019a7:	83 c0 08             	add    eax,0x8
ffffffff800019aa:	48 03 79 10          	add    rdi,QWORD PTR [rcx+0x10]
ffffffff800019ae:	89 01                	mov    DWORD PTR [rcx],eax
ffffffff800019b0:	8b 3f                	mov    edi,DWORD PTR [rdi]
ffffffff800019b2:	e9 29 fb ff ff       	jmp    ffffffff800014e0 <ultos>
ffffffff800019b7:	66 0f 1f 84 00 00 00 	nop    WORD PTR [rax+rax*1+0x0]
ffffffff800019be:	00 00 
ffffffff800019c0:	48 8b 79 08          	mov    rdi,QWORD PTR [rcx+0x8]
ffffffff800019c4:	48 8d 47 08          	lea    rax,[rdi+0x8]
ffffffff800019c8:	48 89 41 08          	mov    QWORD PTR [rcx+0x8],rax
ffffffff800019cc:	8b 3f                	mov    edi,DWORD PTR [rdi]
ffffffff800019ce:	e9 0d fb ff ff       	jmp    ffffffff800014e0 <ultos>
ffffffff800019d3:	0f 1f 44 00 00       	nop    DWORD PTR [rax+rax*1+0x0]
ffffffff800019d8:	48 8b 79 08          	mov    rdi,QWORD PTR [rcx+0x8]
ffffffff800019dc:	48 8d 47 08          	lea    rax,[rdi+0x8]
ffffffff800019e0:	48 89 41 08          	mov    QWORD PTR [rcx+0x8],rax
ffffffff800019e4:	0f b7 3f             	movzx  edi,WORD PTR [rdi]
ffffffff800019e7:	e9 f4 fa ff ff       	jmp    ffffffff800014e0 <ultos>
ffffffff800019ec:	0f 1f 40 00          	nop    DWORD PTR [rax+0x0]
ffffffff800019f0:	48 8b 79 08          	mov    rdi,QWORD PTR [rcx+0x8]
ffffffff800019f4:	48 8d 47 08          	lea    rax,[rdi+0x8]
ffffffff800019f8:	48 89 41 08          	mov    QWORD PTR [rcx+0x8],rax
ffffffff800019fc:	48 8b 3f             	mov    rdi,QWORD PTR [rdi]
ffffffff800019ff:	e9 dc fa ff ff       	jmp    ffffffff800014e0 <ultos>
ffffffff80001a04:	0f 1f 40 00          	nop    DWORD PTR [rax+0x0]
ffffffff80001a08:	48 8b 79 08          	mov    rdi,QWORD PTR [rcx+0x8]
ffffffff80001a0c:	48 8d 47 08          	lea    rax,[rdi+0x8]
ffffffff80001a10:	48 89 41 08          	mov    QWORD PTR [rcx+0x8],rax
ffffffff80001a14:	0f b6 3f             	movzx  edi,BYTE PTR [rdi]
ffffffff80001a17:	e9 c4 fa ff ff       	jmp    ffffffff800014e0 <ultos>
ffffffff80001a1c:	0f 1f 40 00          	nop    DWORD PTR [rax+0x0]

ffffffff80001a20 <vfprintf>:
ffffffff80001a20:	41 57                	push   r15
ffffffff80001a22:	41 56                	push   r14
ffffffff80001a24:	41 55                	push   r13
ffffffff80001a26:	49 89 d5             	mov    r13,rdx
ffffffff80001a29:	41 54                	push   r12
ffffffff80001a2b:	49 89 fc             	mov    r12,rdi
ffffffff80001a2e:	55                   	push   rbp
ffffffff80001a2f:	53                   	push   rbx
ffffffff80001a30:	48 89 f3             	mov    rbx,rsi
ffffffff80001a33:	48 83 ec 28          	sub    rsp,0x28
ffffffff80001a37:	eb 09                	jmp    ffffffff80001a42 <vfprintf+0x22>
ffffffff80001a39:	0f 1f 80 00 00 00 00 	nop    DWORD PTR [rax+0x0]
ffffffff80001a40:	f3 90                	pause
ffffffff80001a42:	41 bf 01 00 00 00    	mov    r15d,0x1
ffffffff80001a48:	44 86 3d 73 14 01 00 	xchg   BYTE PTR [rip+0x11473],r15b        # ffffffff80012ec2 <printf_lock>
ffffffff80001a4f:	45 84 ff             	test   r15b,r15b
ffffffff80001a52:	75 ec                	jne    ffffffff80001a40 <vfprintf+0x20>
ffffffff80001a54:	fa                   	cli
ffffffff80001a55:	48 85 db             	test   rbx,rbx
ffffffff80001a58:	0f 84 7b 07 00 00    	je     ffffffff800021d9 <vfprintf+0x7b9>
ffffffff80001a5e:	0f b6 03             	movzx  eax,BYTE PTR [rbx]
ffffffff80001a61:	31 ed                	xor    ebp,ebp
ffffffff80001a63:	84 c0                	test   al,al
ffffffff80001a65:	75 39                	jne    ffffffff80001aa0 <vfprintf+0x80>
ffffffff80001a67:	e9 a4 00 00 00       	jmp    ffffffff80001b10 <vfprintf+0xf0>
ffffffff80001a6c:	0f 1f 40 00          	nop    DWORD PTR [rax+0x0]
ffffffff80001a70:	48 83 fb ff          	cmp    rbx,0xffffffffffffffff
ffffffff80001a74:	0f 83 5d 05 00 00    	jae    ffffffff80001fd7 <vfprintf+0x5b7>
ffffffff80001a7a:	89 eb                	mov    ebx,ebp
ffffffff80001a7c:	0f be f8             	movsx  edi,al
ffffffff80001a7f:	41 ff d4             	call   r12
ffffffff80001a82:	83 c3 01             	add    ebx,0x1
ffffffff80001a85:	0f 80 33 05 00 00    	jo     ffffffff80001fbe <vfprintf+0x59e>
ffffffff80001a8b:	89 dd                	mov    ebp,ebx
ffffffff80001a8d:	4c 89 f3             	mov    rbx,r14
ffffffff80001a90:	48 85 db             	test   rbx,rbx
ffffffff80001a93:	0f 84 f8 04 00 00    	je     ffffffff80001f91 <vfprintf+0x571>
ffffffff80001a99:	0f b6 03             	movzx  eax,BYTE PTR [rbx]
ffffffff80001a9c:	84 c0                	test   al,al
ffffffff80001a9e:	74 70                	je     ffffffff80001b10 <vfprintf+0xf0>
ffffffff80001aa0:	48 85 db             	test   rbx,rbx
ffffffff80001aa3:	0f 84 fb 04 00 00    	je     ffffffff80001fa4 <vfprintf+0x584>
ffffffff80001aa9:	4c 8d 73 01          	lea    r14,[rbx+0x1]
ffffffff80001aad:	3c 25                	cmp    al,0x25
ffffffff80001aaf:	75 bf                	jne    ffffffff80001a70 <vfprintf+0x50>
ffffffff80001ab1:	48 83 fb ff          	cmp    rbx,0xffffffffffffffff
ffffffff80001ab5:	0f 83 4d 05 00 00    	jae    ffffffff80002008 <vfprintf+0x5e8>
ffffffff80001abb:	0f b6 43 01          	movzx  eax,BYTE PTR [rbx+0x1]
ffffffff80001abf:	3c 68                	cmp    al,0x68
ffffffff80001ac1:	74 6d                	je     ffffffff80001b30 <vfprintf+0x110>
ffffffff80001ac3:	3c 6c                	cmp    al,0x6c
ffffffff80001ac5:	75 18                	jne    ffffffff80001adf <vfprintf+0xbf>
ffffffff80001ac7:	49 8d 56 01          	lea    rdx,[r14+0x1]
ffffffff80001acb:	49 83 fe ff          	cmp    r14,0xffffffffffffffff
ffffffff80001acf:	0f 83 17 07 00 00    	jae    ffffffff800021ec <vfprintf+0x7cc>
ffffffff80001ad5:	4c 8d 73 02          	lea    r14,[rbx+0x2]
ffffffff80001ad9:	41 bf 03 00 00 00    	mov    r15d,0x3
ffffffff80001adf:	49 8d 5e 01          	lea    rbx,[r14+0x1]
ffffffff80001ae3:	49 83 fe ff          	cmp    r14,0xffffffffffffffff
ffffffff80001ae7:	0f 83 32 05 00 00    	jae    ffffffff8000201f <vfprintf+0x5ff>
ffffffff80001aed:	4d 85 f6             	test   r14,r14
ffffffff80001af0:	0f 84 ff 04 00 00    	je     ffffffff80001ff5 <vfprintf+0x5d5>
ffffffff80001af6:	41 0f b6 06          	movzx  eax,BYTE PTR [r14]
ffffffff80001afa:	83 e8 25             	sub    eax,0x25
ffffffff80001afd:	3c 53                	cmp    al,0x53
ffffffff80001aff:	77 8f                	ja     ffffffff80001a90 <vfprintf+0x70>
ffffffff80001b01:	0f b6 c0             	movzx  eax,al
ffffffff80001b04:	ff 24 c5 20 c5 00 80 	jmp    QWORD PTR [rax*8-0x7fff3ae0]
ffffffff80001b0b:	0f 1f 44 00 00       	nop    DWORD PTR [rax+rax*1+0x0]
ffffffff80001b10:	c6 05 ab 13 01 00 00 	mov    BYTE PTR [rip+0x113ab],0x0        # ffffffff80012ec2 <printf_lock>
ffffffff80001b17:	fb                   	sti
ffffffff80001b18:	48 83 c4 28          	add    rsp,0x28
ffffffff80001b1c:	89 e8                	mov    eax,ebp
ffffffff80001b1e:	5b                   	pop    rbx
ffffffff80001b1f:	5d                   	pop    rbp
ffffffff80001b20:	41 5c                	pop    r12
ffffffff80001b22:	41 5d                	pop    r13
ffffffff80001b24:	41 5e                	pop    r14
ffffffff80001b26:	41 5f                	pop    r15
ffffffff80001b28:	c3                   	ret
ffffffff80001b29:	0f 1f 80 00 00 00 00 	nop    DWORD PTR [rax+0x0]
ffffffff80001b30:	49 8d 56 01          	lea    rdx,[r14+0x1]
ffffffff80001b34:	49 83 fe ff          	cmp    r14,0xffffffffffffffff
ffffffff80001b38:	0f 83 cd 05 00 00    	jae    ffffffff8000210b <vfprintf+0x6eb>
ffffffff80001b3e:	49 89 de             	mov    r14,rbx
ffffffff80001b41:	49 83 c6 02          	add    r14,0x2
ffffffff80001b45:	0f 84 d4 05 00 00    	je     ffffffff8000211f <vfprintf+0x6ff>
ffffffff80001b4b:	41 bf 02 00 00 00    	mov    r15d,0x2
ffffffff80001b51:	80 7b 02 68          	cmp    BYTE PTR [rbx+0x2],0x68
ffffffff80001b55:	75 88                	jne    ffffffff80001adf <vfprintf+0xbf>
ffffffff80001b57:	49 8d 56 01          	lea    rdx,[r14+0x1]
ffffffff80001b5b:	49 83 fe ff          	cmp    r14,0xffffffffffffffff
ffffffff80001b5f:	0f 83 b2 06 00 00    	jae    ffffffff80002217 <vfprintf+0x7f7>
ffffffff80001b65:	4c 8d 73 03          	lea    r14,[rbx+0x3]
ffffffff80001b69:	41 bf 01 00 00 00    	mov    r15d,0x1
ffffffff80001b6f:	e9 6b ff ff ff       	jmp    ffffffff80001adf <vfprintf+0xbf>
ffffffff80001b74:	41 0f b6 ff          	movzx  edi,r15b
ffffffff80001b78:	4c 89 e9             	mov    rcx,r13
ffffffff80001b7b:	be 0a 00 00 00       	mov    esi,0xa
ffffffff80001b80:	48 c7 c2 e0 c7 00 80 	mov    rdx,0xffffffff8000c7e0
ffffffff80001b87:	e8 b4 fc ff ff       	call   ffffffff80001840 <next_int>
ffffffff80001b8c:	4c 89 e7             	mov    rdi,r12
ffffffff80001b8f:	48 89 c6             	mov    rsi,rax
ffffffff80001b92:	e8 39 fb ff ff       	call   ffffffff800016d0 <write_string>
ffffffff80001b97:	41 89 c6             	mov    r14d,eax
ffffffff80001b9a:	41 01 ee             	add    r14d,ebp
ffffffff80001b9d:	0f 80 88 06 00 00    	jo     ffffffff8000222b <vfprintf+0x80b>
ffffffff80001ba3:	66 66 2e 0f 1f 84 00 	data16 cs nop WORD PTR [rax+rax*1+0x0]
ffffffff80001baa:	00 00 00 00 
ffffffff80001bae:	66 90                	xchg   ax,ax
ffffffff80001bb0:	44 89 f5             	mov    ebp,r14d
ffffffff80001bb3:	e9 d8 fe ff ff       	jmp    ffffffff80001a90 <vfprintf+0x70>
ffffffff80001bb8:	41 0f b6 ff          	movzx  edi,r15b
ffffffff80001bbc:	4c 89 e9             	mov    rcx,r13
ffffffff80001bbf:	be 10 00 00 00       	mov    esi,0x10
ffffffff80001bc4:	48 c7 c2 e0 c7 00 80 	mov    rdx,0xffffffff8000c7e0
ffffffff80001bcb:	e8 60 fd ff ff       	call   ffffffff80001930 <next_uint>
ffffffff80001bd0:	4c 89 e7             	mov    rdi,r12
ffffffff80001bd3:	48 89 c6             	mov    rsi,rax
ffffffff80001bd6:	e8 f5 fa ff ff       	call   ffffffff800016d0 <write_string>
ffffffff80001bdb:	41 89 c6             	mov    r14d,eax
ffffffff80001bde:	41 01 ee             	add    r14d,ebp
ffffffff80001be1:	71 cd                	jno    ffffffff80001bb0 <vfprintf+0x190>
ffffffff80001be3:	48 63 d5             	movsxd rdx,ebp
ffffffff80001be6:	48 63 f0             	movsxd rsi,eax
ffffffff80001be9:	48 c7 c7 20 e1 00 80 	mov    rdi,0xffffffff8000e120
ffffffff80001bf0:	e8 cb 43 00 00       	call   ffffffff80005fc0 <__ubsan_handle_add_overflow>
ffffffff80001bf5:	eb b9                	jmp    ffffffff80001bb0 <vfprintf+0x190>
ffffffff80001bf7:	66 0f 1f 84 00 00 00 	nop    WORD PTR [rax+rax*1+0x0]
ffffffff80001bfe:	00 00 
ffffffff80001c00:	41 0f b6 ff          	movzx  edi,r15b
ffffffff80001c04:	4c 89 e9             	mov    rcx,r13
ffffffff80001c07:	be 0a 00 00 00       	mov    esi,0xa
ffffffff80001c0c:	48 c7 c2 e0 c7 00 80 	mov    rdx,0xffffffff8000c7e0
ffffffff80001c13:	e8 18 fd ff ff       	call   ffffffff80001930 <next_uint>
ffffffff80001c18:	4c 89 e7             	mov    rdi,r12
ffffffff80001c1b:	48 89 c6             	mov    rsi,rax
ffffffff80001c1e:	e8 ad fa ff ff       	call   ffffffff800016d0 <write_string>
ffffffff80001c23:	41 89 c6             	mov    r14d,eax
ffffffff80001c26:	41 01 ee             	add    r14d,ebp
ffffffff80001c29:	71 85                	jno    ffffffff80001bb0 <vfprintf+0x190>
ffffffff80001c2b:	48 63 d5             	movsxd rdx,ebp
ffffffff80001c2e:	48 63 f0             	movsxd rsi,eax
ffffffff80001c31:	48 c7 c7 60 e1 00 80 	mov    rdi,0xffffffff8000e160
ffffffff80001c38:	e8 83 43 00 00       	call   ffffffff80005fc0 <__ubsan_handle_add_overflow>
ffffffff80001c3d:	e9 6e ff ff ff       	jmp    ffffffff80001bb0 <vfprintf+0x190>
ffffffff80001c42:	66 0f 1f 44 00 00    	nop    WORD PTR [rax+rax*1+0x0]
ffffffff80001c48:	41 8b 45 00          	mov    eax,DWORD PTR [r13+0x0]
ffffffff80001c4c:	83 f8 2f             	cmp    eax,0x2f
ffffffff80001c4f:	0f 87 c3 01 00 00    	ja     ffffffff80001e18 <vfprintf+0x3f8>
ffffffff80001c55:	89 c2                	mov    edx,eax
ffffffff80001c57:	83 c0 08             	add    eax,0x8
ffffffff80001c5a:	49 03 55 10          	add    rdx,QWORD PTR [r13+0x10]
ffffffff80001c5e:	41 89 45 00          	mov    DWORD PTR [r13+0x0],eax
ffffffff80001c62:	48 8b 32             	mov    rsi,QWORD PTR [rdx]
ffffffff80001c65:	4c 89 e7             	mov    rdi,r12
ffffffff80001c68:	e8 63 fa ff ff       	call   ffffffff800016d0 <write_string>
ffffffff80001c6d:	41 89 c6             	mov    r14d,eax
ffffffff80001c70:	41 01 ee             	add    r14d,ebp
ffffffff80001c73:	0f 81 37 ff ff ff    	jno    ffffffff80001bb0 <vfprintf+0x190>
ffffffff80001c79:	48 63 d5             	movsxd rdx,ebp
ffffffff80001c7c:	48 63 f0             	movsxd rsi,eax
ffffffff80001c7f:	48 c7 c7 20 e0 00 80 	mov    rdi,0xffffffff8000e020
ffffffff80001c86:	e8 35 43 00 00       	call   ffffffff80005fc0 <__ubsan_handle_add_overflow>
ffffffff80001c8b:	e9 20 ff ff ff       	jmp    ffffffff80001bb0 <vfprintf+0x190>
ffffffff80001c90:	41 8b 45 00          	mov    eax,DWORD PTR [r13+0x0]
ffffffff80001c94:	83 f8 2f             	cmp    eax,0x2f
ffffffff80001c97:	0f 87 63 01 00 00    	ja     ffffffff80001e00 <vfprintf+0x3e0>
ffffffff80001c9d:	89 c2                	mov    edx,eax
ffffffff80001c9f:	83 c0 08             	add    eax,0x8
ffffffff80001ca2:	49 03 55 10          	add    rdx,QWORD PTR [r13+0x10]
ffffffff80001ca6:	41 89 45 00          	mov    DWORD PTR [r13+0x0],eax
ffffffff80001caa:	41 89 ee             	mov    r14d,ebp
ffffffff80001cad:	0f be 3a             	movsx  edi,BYTE PTR [rdx]
ffffffff80001cb0:	41 ff d4             	call   r12
ffffffff80001cb3:	41 83 c6 01          	add    r14d,0x1
ffffffff80001cb7:	0f 81 f3 fe ff ff    	jno    ffffffff80001bb0 <vfprintf+0x190>
ffffffff80001cbd:	48 63 f5             	movsxd rsi,ebp
ffffffff80001cc0:	ba 01 00 00 00       	mov    edx,0x1
ffffffff80001cc5:	48 c7 c7 40 e0 00 80 	mov    rdi,0xffffffff8000e040
ffffffff80001ccc:	e8 ef 42 00 00       	call   ffffffff80005fc0 <__ubsan_handle_add_overflow>
ffffffff80001cd1:	e9 da fe ff ff       	jmp    ffffffff80001bb0 <vfprintf+0x190>
ffffffff80001cd6:	66 2e 0f 1f 84 00 00 	cs nop WORD PTR [rax+rax*1+0x0]
ffffffff80001cdd:	00 00 00 
ffffffff80001ce0:	41 0f b6 ff          	movzx  edi,r15b
ffffffff80001ce4:	4c 89 e9             	mov    rcx,r13
ffffffff80001ce7:	be 08 00 00 00       	mov    esi,0x8
ffffffff80001cec:	48 c7 c2 e0 c7 00 80 	mov    rdx,0xffffffff8000c7e0
ffffffff80001cf3:	e8 38 fc ff ff       	call   ffffffff80001930 <next_uint>
ffffffff80001cf8:	4c 89 e7             	mov    rdi,r12
ffffffff80001cfb:	48 89 c6             	mov    rsi,rax
ffffffff80001cfe:	e8 cd f9 ff ff       	call   ffffffff800016d0 <write_string>
ffffffff80001d03:	41 89 c6             	mov    r14d,eax
ffffffff80001d06:	41 01 ee             	add    r14d,ebp
ffffffff80001d09:	0f 81 a1 fe ff ff    	jno    ffffffff80001bb0 <vfprintf+0x190>
ffffffff80001d0f:	48 63 d5             	movsxd rdx,ebp
ffffffff80001d12:	48 63 f0             	movsxd rsi,eax
ffffffff80001d15:	48 c7 c7 40 e1 00 80 	mov    rdi,0xffffffff8000e140
ffffffff80001d1c:	e8 9f 42 00 00       	call   ffffffff80005fc0 <__ubsan_handle_add_overflow>
ffffffff80001d21:	e9 8a fe ff ff       	jmp    ffffffff80001bb0 <vfprintf+0x190>
ffffffff80001d26:	66 2e 0f 1f 84 00 00 	cs nop WORD PTR [rax+rax*1+0x0]
ffffffff80001d2d:	00 00 00 
ffffffff80001d30:	41 0f b6 ff          	movzx  edi,r15b
ffffffff80001d34:	4c 89 e9             	mov    rcx,r13
ffffffff80001d37:	be 02 00 00 00       	mov    esi,0x2
ffffffff80001d3c:	48 c7 c2 c0 c7 00 80 	mov    rdx,0xffffffff8000c7c0
ffffffff80001d43:	e8 e8 fb ff ff       	call   ffffffff80001930 <next_uint>
ffffffff80001d48:	4c 89 e7             	mov    rdi,r12
ffffffff80001d4b:	48 89 c6             	mov    rsi,rax
ffffffff80001d4e:	e8 7d f9 ff ff       	call   ffffffff800016d0 <write_string>
ffffffff80001d53:	41 89 c6             	mov    r14d,eax
ffffffff80001d56:	41 01 ee             	add    r14d,ebp
ffffffff80001d59:	0f 81 51 fe ff ff    	jno    ffffffff80001bb0 <vfprintf+0x190>
ffffffff80001d5f:	48 63 d5             	movsxd rdx,ebp
ffffffff80001d62:	48 63 f0             	movsxd rsi,eax
ffffffff80001d65:	48 c7 c7 e0 e0 00 80 	mov    rdi,0xffffffff8000e0e0
ffffffff80001d6c:	e8 4f 42 00 00       	call   ffffffff80005fc0 <__ubsan_handle_add_overflow>
ffffffff80001d71:	e9 3a fe ff ff       	jmp    ffffffff80001bb0 <vfprintf+0x190>
ffffffff80001d76:	66 2e 0f 1f 84 00 00 	cs nop WORD PTR [rax+rax*1+0x0]
ffffffff80001d7d:	00 00 00 
ffffffff80001d80:	41 0f b6 ff          	movzx  edi,r15b
ffffffff80001d84:	4c 89 e9             	mov    rcx,r13
ffffffff80001d87:	be 10 00 00 00       	mov    esi,0x10
ffffffff80001d8c:	48 c7 c2 c0 c7 00 80 	mov    rdx,0xffffffff8000c7c0
ffffffff80001d93:	e8 98 fb ff ff       	call   ffffffff80001930 <next_uint>
ffffffff80001d98:	4c 89 e7             	mov    rdi,r12
ffffffff80001d9b:	48 89 c6             	mov    rsi,rax
ffffffff80001d9e:	e8 2d f9 ff ff       	call   ffffffff800016d0 <write_string>
ffffffff80001da3:	41 89 c6             	mov    r14d,eax
ffffffff80001da6:	41 01 ee             	add    r14d,ebp
ffffffff80001da9:	0f 81 01 fe ff ff    	jno    ffffffff80001bb0 <vfprintf+0x190>
ffffffff80001daf:	48 63 d5             	movsxd rdx,ebp
ffffffff80001db2:	48 63 f0             	movsxd rsi,eax
ffffffff80001db5:	48 c7 c7 00 e1 00 80 	mov    rdi,0xffffffff8000e100
ffffffff80001dbc:	e8 ff 41 00 00       	call   ffffffff80005fc0 <__ubsan_handle_add_overflow>
ffffffff80001dc1:	e9 ea fd ff ff       	jmp    ffffffff80001bb0 <vfprintf+0x190>
ffffffff80001dc6:	66 2e 0f 1f 84 00 00 	cs nop WORD PTR [rax+rax*1+0x0]
ffffffff80001dcd:	00 00 00 
ffffffff80001dd0:	41 89 ee             	mov    r14d,ebp
ffffffff80001dd3:	bf 25 00 00 00       	mov    edi,0x25
ffffffff80001dd8:	41 ff d4             	call   r12
ffffffff80001ddb:	41 83 c6 01          	add    r14d,0x1
ffffffff80001ddf:	0f 81 cb fd ff ff    	jno    ffffffff80001bb0 <vfprintf+0x190>
ffffffff80001de5:	48 63 f5             	movsxd rsi,ebp
ffffffff80001de8:	ba 01 00 00 00       	mov    edx,0x1
ffffffff80001ded:	48 c7 c7 60 e0 00 80 	mov    rdi,0xffffffff8000e060
ffffffff80001df4:	e8 c7 41 00 00       	call   ffffffff80005fc0 <__ubsan_handle_add_overflow>
ffffffff80001df9:	e9 b2 fd ff ff       	jmp    ffffffff80001bb0 <vfprintf+0x190>
ffffffff80001dfe:	66 90                	xchg   ax,ax
ffffffff80001e00:	49 8b 55 08          	mov    rdx,QWORD PTR [r13+0x8]
ffffffff80001e04:	48 8d 42 08          	lea    rax,[rdx+0x8]
ffffffff80001e08:	49 89 45 08          	mov    QWORD PTR [r13+0x8],rax
ffffffff80001e0c:	e9 99 fe ff ff       	jmp    ffffffff80001caa <vfprintf+0x28a>
ffffffff80001e11:	0f 1f 80 00 00 00 00 	nop    DWORD PTR [rax+0x0]
ffffffff80001e18:	49 8b 55 08          	mov    rdx,QWORD PTR [r13+0x8]
ffffffff80001e1c:	48 8d 42 08          	lea    rax,[rdx+0x8]
ffffffff80001e20:	49 89 45 08          	mov    QWORD PTR [r13+0x8],rax
ffffffff80001e24:	e9 39 fe ff ff       	jmp    ffffffff80001c62 <vfprintf+0x242>
ffffffff80001e29:	c7 04 24 00 00 00 00 	mov    DWORD PTR [rsp],0x0
ffffffff80001e30:	b9 03 00 00 00       	mov    ecx,0x3
ffffffff80001e35:	41 b8 30 00 00 00    	mov    r8d,0x30
ffffffff80001e3b:	48 c7 c6 25 c0 00 80 	mov    rsi,0xffffffff8000c025
ffffffff80001e42:	eb 0a                	jmp    ffffffff80001e4e <vfprintf+0x42e>
ffffffff80001e44:	0f 1f 40 00          	nop    DWORD PTR [rax+0x0]
ffffffff80001e48:	48 89 c1             	mov    rcx,rax
ffffffff80001e4b:	4c 89 f6             	mov    rsi,r14
ffffffff80001e4e:	4c 8d 76 01          	lea    r14,[rsi+0x1]
ffffffff80001e52:	48 83 fe ff          	cmp    rsi,0xffffffffffffffff
ffffffff80001e56:	0f 83 4d 02 00 00    	jae    ffffffff800020a9 <vfprintf+0x689>
ffffffff80001e5c:	ba 03 00 00 00       	mov    edx,0x3
ffffffff80001e61:	48 8d 79 ff          	lea    rdi,[rcx-0x1]
ffffffff80001e65:	48 39 d1             	cmp    rcx,rdx
ffffffff80001e68:	48 0f 43 d1          	cmovae rdx,rcx
ffffffff80001e6c:	48 89 d0             	mov    rax,rdx
ffffffff80001e6f:	48 29 c8             	sub    rax,rcx
ffffffff80001e72:	48 83 c0 01          	add    rax,0x1
ffffffff80001e76:	48 39 d0             	cmp    rax,rdx
ffffffff80001e79:	48 0f 42 c2          	cmovb  rax,rdx
ffffffff80001e7d:	48 29 d7             	sub    rdi,rdx
ffffffff80001e80:	48 01 f8             	add    rax,rdi
ffffffff80001e83:	48 85 c9             	test   rcx,rcx
ffffffff80001e86:	0f 84 f7 01 00 00    	je     ffffffff80002083 <vfprintf+0x663>
ffffffff80001e8c:	48 89 44 24 08       	mov    QWORD PTR [rsp+0x8],rax
ffffffff80001e91:	41 0f be f8          	movsx  edi,r8b
ffffffff80001e95:	41 ff d4             	call   r12
ffffffff80001e98:	8b 0c 24             	mov    ecx,DWORD PTR [rsp]
ffffffff80001e9b:	48 8b 44 24 08       	mov    rax,QWORD PTR [rsp+0x8]
ffffffff80001ea0:	83 c1 01             	add    ecx,0x1
ffffffff80001ea3:	0f 80 b3 01 00 00    	jo     ffffffff8000205c <vfprintf+0x63c>
ffffffff80001ea9:	89 0c 24             	mov    DWORD PTR [rsp],ecx
ffffffff80001eac:	48 85 c0             	test   rax,rax
ffffffff80001eaf:	0f 84 81 01 00 00    	je     ffffffff80002036 <vfprintf+0x616>
ffffffff80001eb5:	45 0f b6 06          	movzx  r8d,BYTE PTR [r14]
ffffffff80001eb9:	49 81 fe 27 c0 00 80 	cmp    r14,0xffffffff8000c027
ffffffff80001ec0:	75 86                	jne    ffffffff80001e48 <vfprintf+0x428>
ffffffff80001ec2:	41 89 ce             	mov    r14d,ecx
ffffffff80001ec5:	41 01 ee             	add    r14d,ebp
ffffffff80001ec8:	0f 80 32 03 00 00    	jo     ffffffff80002200 <vfprintf+0x7e0>
ffffffff80001ece:	41 8b 45 00          	mov    eax,DWORD PTR [r13+0x0]
ffffffff80001ed2:	83 f8 2f             	cmp    eax,0x2f
ffffffff80001ed5:	0f 87 a5 00 00 00    	ja     ffffffff80001f80 <vfprintf+0x560>
ffffffff80001edb:	89 c2                	mov    edx,eax
ffffffff80001edd:	83 c0 08             	add    eax,0x8
ffffffff80001ee0:	49 03 55 10          	add    rdx,QWORD PTR [r13+0x10]
ffffffff80001ee4:	41 89 45 00          	mov    DWORD PTR [r13+0x0],eax
ffffffff80001ee8:	48 8b 0a             	mov    rcx,QWORD PTR [rdx]
ffffffff80001eeb:	49 c7 c0 61 2e 01 80 	mov    r8,0xffffffff80012e61
ffffffff80001ef2:	c6 05 68 0f 01 00 00 	mov    BYTE PTR [rip+0x10f68],0x0        # ffffffff80012e61 <buffer.0+0x41>
ffffffff80001ef9:	eb 09                	jmp    ffffffff80001f04 <vfprintf+0x4e4>
ffffffff80001efb:	0f 1f 44 00 00       	nop    DWORD PTR [rax+rax*1+0x0]
ffffffff80001f00:	48 c1 e9 04          	shr    rcx,0x4
ffffffff80001f04:	48 89 cd             	mov    rbp,rcx
ffffffff80001f07:	83 e5 0f             	and    ebp,0xf
ffffffff80001f0a:	49 89 e9             	mov    r9,rbp
ffffffff80001f0d:	49 81 c1 e0 c7 00 80 	add    r9,0xffffffff8000c7e0
ffffffff80001f14:	0f 82 88 02 00 00    	jb     ffffffff800021a2 <vfprintf+0x782>
ffffffff80001f1a:	49 8d 40 ff          	lea    rax,[r8-0x1]
ffffffff80001f1e:	4d 85 c0             	test   r8,r8
ffffffff80001f21:	0f 84 49 02 00 00    	je     ffffffff80002170 <vfprintf+0x750>
ffffffff80001f27:	48 8d 55 01          	lea    rdx,[rbp+0x1]
ffffffff80001f2b:	49 89 c0             	mov    r8,rax
ffffffff80001f2e:	48 83 fa 11          	cmp    rdx,0x11
ffffffff80001f32:	0f 87 fa 01 00 00    	ja     ffffffff80002132 <vfprintf+0x712>
ffffffff80001f38:	0f b6 ad e0 c7 00 80 	movzx  ebp,BYTE PTR [rbp-0x7fff3820]
ffffffff80001f3f:	48 85 c0             	test   rax,rax
ffffffff80001f42:	0f 84 94 01 00 00    	je     ffffffff800020dc <vfprintf+0x6bc>
ffffffff80001f48:	40 88 28             	mov    BYTE PTR [rax],bpl
ffffffff80001f4b:	48 83 f9 0f          	cmp    rcx,0xf
ffffffff80001f4f:	77 af                	ja     ffffffff80001f00 <vfprintf+0x4e0>
ffffffff80001f51:	48 89 c6             	mov    rsi,rax
ffffffff80001f54:	4c 89 e7             	mov    rdi,r12
ffffffff80001f57:	44 89 f5             	mov    ebp,r14d
ffffffff80001f5a:	e8 71 f7 ff ff       	call   ffffffff800016d0 <write_string>
ffffffff80001f5f:	01 c5                	add    ebp,eax
ffffffff80001f61:	0f 81 29 fb ff ff    	jno    ffffffff80001a90 <vfprintf+0x70>
ffffffff80001f67:	48 63 d0             	movsxd rdx,eax
ffffffff80001f6a:	49 63 f6             	movsxd rsi,r14d
ffffffff80001f6d:	48 c7 c7 80 e0 00 80 	mov    rdi,0xffffffff8000e080
ffffffff80001f74:	e8 47 40 00 00       	call   ffffffff80005fc0 <__ubsan_handle_add_overflow>
ffffffff80001f79:	e9 12 fb ff ff       	jmp    ffffffff80001a90 <vfprintf+0x70>
ffffffff80001f7e:	66 90                	xchg   ax,ax
ffffffff80001f80:	49 8b 55 08          	mov    rdx,QWORD PTR [r13+0x8]
ffffffff80001f84:	48 8d 42 08          	lea    rax,[rdx+0x8]
ffffffff80001f88:	49 89 45 08          	mov    QWORD PTR [r13+0x8],rax
ffffffff80001f8c:	e9 57 ff ff ff       	jmp    ffffffff80001ee8 <vfprintf+0x4c8>
ffffffff80001f91:	31 f6                	xor    esi,esi
ffffffff80001f93:	48 c7 c7 a0 e1 00 80 	mov    rdi,0xffffffff8000e1a0
ffffffff80001f9a:	e8 f1 3a 00 00       	call   ffffffff80005a90 <__ubsan_handle_type_mismatch_v1>
ffffffff80001f9f:	e9 f5 fa ff ff       	jmp    ffffffff80001a99 <vfprintf+0x79>
ffffffff80001fa4:	31 f6                	xor    esi,esi
ffffffff80001fa6:	48 c7 c7 40 e3 00 80 	mov    rdi,0xffffffff8000e340
ffffffff80001fad:	88 04 24             	mov    BYTE PTR [rsp],al
ffffffff80001fb0:	e8 db 3a 00 00       	call   ffffffff80005a90 <__ubsan_handle_type_mismatch_v1>
ffffffff80001fb5:	0f b6 04 24          	movzx  eax,BYTE PTR [rsp]
ffffffff80001fb9:	e9 eb fa ff ff       	jmp    ffffffff80001aa9 <vfprintf+0x89>
ffffffff80001fbe:	48 63 f5             	movsxd rsi,ebp
ffffffff80001fc1:	ba 01 00 00 00       	mov    edx,0x1
ffffffff80001fc6:	48 c7 c7 00 e0 00 80 	mov    rdi,0xffffffff8000e000
ffffffff80001fcd:	e8 ee 3f 00 00       	call   ffffffff80005fc0 <__ubsan_handle_add_overflow>
ffffffff80001fd2:	e9 b4 fa ff ff       	jmp    ffffffff80001a8b <vfprintf+0x6b>
ffffffff80001fd7:	4c 89 f2             	mov    rdx,r14
ffffffff80001fda:	48 89 de             	mov    rsi,rbx
ffffffff80001fdd:	48 c7 c7 c0 e1 00 80 	mov    rdi,0xffffffff8000e1c0
ffffffff80001fe4:	88 04 24             	mov    BYTE PTR [rsp],al
ffffffff80001fe7:	e8 f4 42 00 00       	call   ffffffff800062e0 <__ubsan_handle_pointer_overflow>
ffffffff80001fec:	0f b6 04 24          	movzx  eax,BYTE PTR [rsp]
ffffffff80001ff0:	e9 85 fa ff ff       	jmp    ffffffff80001a7a <vfprintf+0x5a>
ffffffff80001ff5:	31 f6                	xor    esi,esi
ffffffff80001ff7:	48 c7 c7 a0 e2 00 80 	mov    rdi,0xffffffff8000e2a0
ffffffff80001ffe:	e8 8d 3a 00 00       	call   ffffffff80005a90 <__ubsan_handle_type_mismatch_v1>
ffffffff80002003:	e9 ee fa ff ff       	jmp    ffffffff80001af6 <vfprintf+0xd6>
ffffffff80002008:	4c 89 f2             	mov    rdx,r14
ffffffff8000200b:	48 89 de             	mov    rsi,rbx
ffffffff8000200e:	48 c7 c7 30 e3 00 80 	mov    rdi,0xffffffff8000e330
ffffffff80002015:	e8 c6 42 00 00       	call   ffffffff800062e0 <__ubsan_handle_pointer_overflow>
ffffffff8000201a:	e9 9c fa ff ff       	jmp    ffffffff80001abb <vfprintf+0x9b>
ffffffff8000201f:	48 89 da             	mov    rdx,rbx
ffffffff80002022:	4c 89 f6             	mov    rsi,r14
ffffffff80002025:	48 c7 c7 c0 e2 00 80 	mov    rdi,0xffffffff8000e2c0
ffffffff8000202c:	e8 af 42 00 00       	call   ffffffff800062e0 <__ubsan_handle_pointer_overflow>
ffffffff80002031:	e9 b7 fa ff ff       	jmp    ffffffff80001aed <vfprintf+0xcd>
ffffffff80002036:	4c 89 f6             	mov    rsi,r14
ffffffff80002039:	48 c7 c7 40 e2 00 80 	mov    rdi,0xffffffff8000e240
ffffffff80002040:	89 4c 24 10          	mov    DWORD PTR [rsp+0x10],ecx
ffffffff80002044:	48 89 44 24 08       	mov    QWORD PTR [rsp+0x8],rax
ffffffff80002049:	e8 42 3a 00 00       	call   ffffffff80005a90 <__ubsan_handle_type_mismatch_v1>
ffffffff8000204e:	8b 4c 24 10          	mov    ecx,DWORD PTR [rsp+0x10]
ffffffff80002052:	48 8b 44 24 08       	mov    rax,QWORD PTR [rsp+0x8]
ffffffff80002057:	e9 59 fe ff ff       	jmp    ffffffff80001eb5 <vfprintf+0x495>
ffffffff8000205c:	48 63 34 24          	movsxd rsi,DWORD PTR [rsp]
ffffffff80002060:	ba 01 00 00 00       	mov    edx,0x1
ffffffff80002065:	48 c7 c7 c0 e0 00 80 	mov    rdi,0xffffffff8000e0c0
ffffffff8000206c:	89 4c 24 10          	mov    DWORD PTR [rsp+0x10],ecx
ffffffff80002070:	e8 4b 3f 00 00       	call   ffffffff80005fc0 <__ubsan_handle_add_overflow>
ffffffff80002075:	8b 4c 24 10          	mov    ecx,DWORD PTR [rsp+0x10]
ffffffff80002079:	48 8b 44 24 08       	mov    rax,QWORD PTR [rsp+0x8]
ffffffff8000207e:	e9 26 fe ff ff       	jmp    ffffffff80001ea9 <vfprintf+0x489>
ffffffff80002083:	48 c7 c7 60 e2 00 80 	mov    rdi,0xffffffff8000e260
ffffffff8000208a:	48 89 44 24 10       	mov    QWORD PTR [rsp+0x10],rax
ffffffff8000208f:	44 88 44 24 08       	mov    BYTE PTR [rsp+0x8],r8b
ffffffff80002094:	e8 f7 39 00 00       	call   ffffffff80005a90 <__ubsan_handle_type_mismatch_v1>
ffffffff80002099:	48 8b 44 24 10       	mov    rax,QWORD PTR [rsp+0x10]
ffffffff8000209e:	44 0f b6 44 24 08    	movzx  r8d,BYTE PTR [rsp+0x8]
ffffffff800020a4:	e9 e3 fd ff ff       	jmp    ffffffff80001e8c <vfprintf+0x46c>
ffffffff800020a9:	4c 89 f2             	mov    rdx,r14
ffffffff800020ac:	48 c7 c7 80 e2 00 80 	mov    rdi,0xffffffff8000e280
ffffffff800020b3:	48 89 4c 24 18       	mov    QWORD PTR [rsp+0x18],rcx
ffffffff800020b8:	44 88 44 24 10       	mov    BYTE PTR [rsp+0x10],r8b
ffffffff800020bd:	48 89 74 24 08       	mov    QWORD PTR [rsp+0x8],rsi
ffffffff800020c2:	e8 19 42 00 00       	call   ffffffff800062e0 <__ubsan_handle_pointer_overflow>
ffffffff800020c7:	48 8b 4c 24 18       	mov    rcx,QWORD PTR [rsp+0x18]
ffffffff800020cc:	44 0f b6 44 24 10    	movzx  r8d,BYTE PTR [rsp+0x10]
ffffffff800020d2:	48 8b 74 24 08       	mov    rsi,QWORD PTR [rsp+0x8]
ffffffff800020d7:	e9 80 fd ff ff       	jmp    ffffffff80001e5c <vfprintf+0x43c>
ffffffff800020dc:	31 f6                	xor    esi,esi
ffffffff800020de:	48 c7 c7 e0 e1 00 80 	mov    rdi,0xffffffff8000e1e0
ffffffff800020e5:	48 89 44 24 10       	mov    QWORD PTR [rsp+0x10],rax
ffffffff800020ea:	4c 89 44 24 08       	mov    QWORD PTR [rsp+0x8],r8
ffffffff800020ef:	48 89 0c 24          	mov    QWORD PTR [rsp],rcx
ffffffff800020f3:	e8 98 39 00 00       	call   ffffffff80005a90 <__ubsan_handle_type_mismatch_v1>
ffffffff800020f8:	48 8b 44 24 10       	mov    rax,QWORD PTR [rsp+0x10]
ffffffff800020fd:	4c 8b 44 24 08       	mov    r8,QWORD PTR [rsp+0x8]
ffffffff80002102:	48 8b 0c 24          	mov    rcx,QWORD PTR [rsp]
ffffffff80002106:	e9 3d fe ff ff       	jmp    ffffffff80001f48 <vfprintf+0x528>
ffffffff8000210b:	4c 89 f6             	mov    rsi,r14
ffffffff8000210e:	48 c7 c7 20 e3 00 80 	mov    rdi,0xffffffff8000e320
ffffffff80002115:	e8 c6 41 00 00       	call   ffffffff800062e0 <__ubsan_handle_pointer_overflow>
ffffffff8000211a:	e9 1f fa ff ff       	jmp    ffffffff80001b3e <vfprintf+0x11e>
ffffffff8000211f:	31 f6                	xor    esi,esi
ffffffff80002121:	48 c7 c7 00 e3 00 80 	mov    rdi,0xffffffff8000e300
ffffffff80002128:	e8 63 39 00 00       	call   ffffffff80005a90 <__ubsan_handle_type_mismatch_v1>
ffffffff8000212d:	e9 19 fa ff ff       	jmp    ffffffff80001b4b <vfprintf+0x12b>
ffffffff80002132:	4c 01 ca             	add    rdx,r9
ffffffff80002135:	0f 82 fd fd ff ff    	jb     ffffffff80001f38 <vfprintf+0x518>
ffffffff8000213b:	4c 89 ce             	mov    rsi,r9
ffffffff8000213e:	48 c7 c7 00 e2 00 80 	mov    rdi,0xffffffff8000e200
ffffffff80002145:	48 89 44 24 10       	mov    QWORD PTR [rsp+0x10],rax
ffffffff8000214a:	48 89 44 24 08       	mov    QWORD PTR [rsp+0x8],rax
ffffffff8000214f:	48 89 0c 24          	mov    QWORD PTR [rsp],rcx
ffffffff80002153:	e8 38 39 00 00       	call   ffffffff80005a90 <__ubsan_handle_type_mismatch_v1>
ffffffff80002158:	48 8b 44 24 10       	mov    rax,QWORD PTR [rsp+0x10]
ffffffff8000215d:	4c 8b 44 24 08       	mov    r8,QWORD PTR [rsp+0x8]
ffffffff80002162:	48 8b 0c 24          	mov    rcx,QWORD PTR [rsp]
ffffffff80002166:	e9 cd fd ff ff       	jmp    ffffffff80001f38 <vfprintf+0x518>
ffffffff8000216b:	0f 1f 44 00 00       	nop    DWORD PTR [rax+rax*1+0x0]
ffffffff80002170:	48 89 c2             	mov    rdx,rax
ffffffff80002173:	31 f6                	xor    esi,esi
ffffffff80002175:	48 c7 c7 20 e2 00 80 	mov    rdi,0xffffffff8000e220
ffffffff8000217c:	48 89 04 24          	mov    QWORD PTR [rsp],rax
ffffffff80002180:	4c 89 4c 24 10       	mov    QWORD PTR [rsp+0x10],r9
ffffffff80002185:	48 89 4c 24 08       	mov    QWORD PTR [rsp+0x8],rcx
ffffffff8000218a:	e8 51 41 00 00       	call   ffffffff800062e0 <__ubsan_handle_pointer_overflow>
ffffffff8000218f:	4c 8b 4c 24 10       	mov    r9,QWORD PTR [rsp+0x10]
ffffffff80002194:	48 8b 4c 24 08       	mov    rcx,QWORD PTR [rsp+0x8]
ffffffff80002199:	48 8b 04 24          	mov    rax,QWORD PTR [rsp]
ffffffff8000219d:	e9 85 fd ff ff       	jmp    ffffffff80001f27 <vfprintf+0x507>
ffffffff800021a2:	4c 89 ca             	mov    rdx,r9
ffffffff800021a5:	48 c7 c6 e0 c7 00 80 	mov    rsi,0xffffffff8000c7e0
ffffffff800021ac:	4c 89 44 24 10       	mov    QWORD PTR [rsp+0x10],r8
ffffffff800021b1:	48 c7 c7 30 e2 00 80 	mov    rdi,0xffffffff8000e230
ffffffff800021b8:	48 89 4c 24 08       	mov    QWORD PTR [rsp+0x8],rcx
ffffffff800021bd:	4c 89 0c 24          	mov    QWORD PTR [rsp],r9
ffffffff800021c1:	e8 1a 41 00 00       	call   ffffffff800062e0 <__ubsan_handle_pointer_overflow>
ffffffff800021c6:	4c 8b 44 24 10       	mov    r8,QWORD PTR [rsp+0x10]
ffffffff800021cb:	48 8b 4c 24 08       	mov    rcx,QWORD PTR [rsp+0x8]
ffffffff800021d0:	4c 8b 0c 24          	mov    r9,QWORD PTR [rsp]
ffffffff800021d4:	e9 41 fd ff ff       	jmp    ffffffff80001f1a <vfprintf+0x4fa>
ffffffff800021d9:	31 f6                	xor    esi,esi
ffffffff800021db:	48 c7 c7 60 e3 00 80 	mov    rdi,0xffffffff8000e360
ffffffff800021e2:	e8 a9 38 00 00       	call   ffffffff80005a90 <__ubsan_handle_type_mismatch_v1>
ffffffff800021e7:	e9 72 f8 ff ff       	jmp    ffffffff80001a5e <vfprintf+0x3e>
ffffffff800021ec:	4c 89 f6             	mov    rsi,r14
ffffffff800021ef:	48 c7 c7 d0 e2 00 80 	mov    rdi,0xffffffff8000e2d0
ffffffff800021f6:	e8 e5 40 00 00       	call   ffffffff800062e0 <__ubsan_handle_pointer_overflow>
ffffffff800021fb:	e9 d5 f8 ff ff       	jmp    ffffffff80001ad5 <vfprintf+0xb5>
ffffffff80002200:	48 63 d5             	movsxd rdx,ebp
ffffffff80002203:	48 63 f1             	movsxd rsi,ecx
ffffffff80002206:	48 c7 c7 a0 e0 00 80 	mov    rdi,0xffffffff8000e0a0
ffffffff8000220d:	e8 ae 3d 00 00       	call   ffffffff80005fc0 <__ubsan_handle_add_overflow>
ffffffff80002212:	e9 b7 fc ff ff       	jmp    ffffffff80001ece <vfprintf+0x4ae>
ffffffff80002217:	4c 89 f6             	mov    rsi,r14
ffffffff8000221a:	48 c7 c7 e0 e2 00 80 	mov    rdi,0xffffffff8000e2e0
ffffffff80002221:	e8 ba 40 00 00       	call   ffffffff800062e0 <__ubsan_handle_pointer_overflow>
ffffffff80002226:	e9 3a f9 ff ff       	jmp    ffffffff80001b65 <vfprintf+0x145>
ffffffff8000222b:	48 63 d5             	movsxd rdx,ebp
ffffffff8000222e:	48 63 f0             	movsxd rsi,eax
ffffffff80002231:	48 c7 c7 80 e1 00 80 	mov    rdi,0xffffffff8000e180
ffffffff80002238:	e8 83 3d 00 00       	call   ffffffff80005fc0 <__ubsan_handle_add_overflow>
ffffffff8000223d:	e9 6e f9 ff ff       	jmp    ffffffff80001bb0 <vfprintf+0x190>
ffffffff80002242:	66 2e 0f 1f 84 00 00 	cs nop WORD PTR [rax+rax*1+0x0]
ffffffff80002249:	00 00 00 
ffffffff8000224c:	0f 1f 40 00          	nop    DWORD PTR [rax+0x0]

ffffffff80002250 <vprintf>:
ffffffff80002250:	48 89 f2             	mov    rdx,rsi
ffffffff80002253:	48 89 fe             	mov    rsi,rdi
ffffffff80002256:	48 c7 c7 b0 29 00 80 	mov    rdi,0xffffffff800029b0
ffffffff8000225d:	e9 be f7 ff ff       	jmp    ffffffff80001a20 <vfprintf>
ffffffff80002262:	66 2e 0f 1f 84 00 00 	cs nop WORD PTR [rax+rax*1+0x0]
ffffffff80002269:	00 00 00 
ffffffff8000226c:	0f 1f 40 00          	nop    DWORD PTR [rax+0x0]

ffffffff80002270 <printf>:
ffffffff80002270:	48 83 ec 58          	sub    rsp,0x58
ffffffff80002274:	48 8d 44 24 60       	lea    rax,[rsp+0x60]
ffffffff80002279:	48 89 74 24 28       	mov    QWORD PTR [rsp+0x28],rsi
ffffffff8000227e:	48 89 fe             	mov    rsi,rdi
ffffffff80002281:	48 c7 c7 b0 29 00 80 	mov    rdi,0xffffffff800029b0
ffffffff80002288:	48 89 54 24 30       	mov    QWORD PTR [rsp+0x30],rdx
ffffffff8000228d:	48 8d 54 24 08       	lea    rdx,[rsp+0x8]
ffffffff80002292:	48 89 44 24 10       	mov    QWORD PTR [rsp+0x10],rax
ffffffff80002297:	48 8d 44 24 20       	lea    rax,[rsp+0x20]
ffffffff8000229c:	48 89 4c 24 38       	mov    QWORD PTR [rsp+0x38],rcx
ffffffff800022a1:	4c 89 44 24 40       	mov    QWORD PTR [rsp+0x40],r8
ffffffff800022a6:	4c 89 4c 24 48       	mov    QWORD PTR [rsp+0x48],r9
ffffffff800022ab:	c7 44 24 08 08 00 00 	mov    DWORD PTR [rsp+0x8],0x8
ffffffff800022b2:	00 
ffffffff800022b3:	48 89 44 24 18       	mov    QWORD PTR [rsp+0x18],rax
ffffffff800022b8:	e8 63 f7 ff ff       	call   ffffffff80001a20 <vfprintf>
ffffffff800022bd:	48 83 c4 58          	add    rsp,0x58
ffffffff800022c1:	c3                   	ret
ffffffff800022c2:	66 2e 0f 1f 84 00 00 	cs nop WORD PTR [rax+rax*1+0x0]
ffffffff800022c9:	00 00 00 
ffffffff800022cc:	0f 1f 40 00          	nop    DWORD PTR [rax+0x0]

ffffffff800022d0 <vec_new>:
ffffffff800022d0:	53                   	push   rbx
ffffffff800022d1:	48 89 fb             	mov    rbx,rdi
ffffffff800022d4:	bf 50 00 00 00       	mov    edi,0x50
ffffffff800022d9:	e8 e2 13 00 00       	call   ffffffff800036c0 <kmalloc>
ffffffff800022de:	48 c7 43 08 0a 00 00 	mov    QWORD PTR [rbx+0x8],0xa
ffffffff800022e5:	00 
ffffffff800022e6:	48 89 03             	mov    QWORD PTR [rbx],rax
ffffffff800022e9:	48 89 d8             	mov    rax,rbx
ffffffff800022ec:	48 c7 43 10 00 00 00 	mov    QWORD PTR [rbx+0x10],0x0
ffffffff800022f3:	00 
ffffffff800022f4:	5b                   	pop    rbx
ffffffff800022f5:	c3                   	ret
ffffffff800022f6:	66 2e 0f 1f 84 00 00 	cs nop WORD PTR [rax+rax*1+0x0]
ffffffff800022fd:	00 00 00 

ffffffff80002300 <vec_at>:
ffffffff80002300:	48 83 ec 18          	sub    rsp,0x18
ffffffff80002304:	48 89 f8             	mov    rax,rdi
ffffffff80002307:	48 89 f1             	mov    rcx,rsi
ffffffff8000230a:	48 85 ff             	test   rdi,rdi
ffffffff8000230d:	0f 84 a1 00 00 00    	je     ffffffff800023b4 <vec_at+0xb4>
ffffffff80002313:	40 f6 c7 07          	test   dil,0x7
ffffffff80002317:	0f 85 97 00 00 00    	jne    ffffffff800023b4 <vec_at+0xb4>
ffffffff8000231d:	48 8d 50 10          	lea    rdx,[rax+0x10]
ffffffff80002321:	48 83 f8 f0          	cmp    rax,0xfffffffffffffff0
ffffffff80002325:	73 67                	jae    ffffffff8000238e <vec_at+0x8e>
ffffffff80002327:	31 d2                	xor    edx,edx
ffffffff80002329:	48 3b 48 10          	cmp    rcx,QWORD PTR [rax+0x10]
ffffffff8000232d:	73 37                	jae    ffffffff80002366 <vec_at+0x66>
ffffffff8000232f:	48 85 c0             	test   rax,rax
ffffffff80002332:	0f 84 a2 00 00 00    	je     ffffffff800023da <vec_at+0xda>
ffffffff80002338:	a8 07                	test   al,0x7
ffffffff8000233a:	0f 85 9a 00 00 00    	jne    ffffffff800023da <vec_at+0xda>
ffffffff80002340:	48 8b 30             	mov    rsi,QWORD PTR [rax]
ffffffff80002343:	48 8d 04 ce          	lea    rax,[rsi+rcx*8]
ffffffff80002347:	48 c1 e1 03          	shl    rcx,0x3
ffffffff8000234b:	79 23                	jns    ffffffff80002370 <vec_at+0x70>
ffffffff8000234d:	48 39 c6             	cmp    rsi,rax
ffffffff80002350:	72 23                	jb     ffffffff80002375 <vec_at+0x75>
ffffffff80002352:	48 85 c0             	test   rax,rax
ffffffff80002355:	0f 84 a5 00 00 00    	je     ffffffff80002400 <vec_at+0x100>
ffffffff8000235b:	a8 07                	test   al,0x7
ffffffff8000235d:	0f 85 9d 00 00 00    	jne    ffffffff80002400 <vec_at+0x100>
ffffffff80002363:	48 8b 10             	mov    rdx,QWORD PTR [rax]
ffffffff80002366:	48 89 d0             	mov    rax,rdx
ffffffff80002369:	48 83 c4 18          	add    rsp,0x18
ffffffff8000236d:	c3                   	ret
ffffffff8000236e:	66 90                	xchg   ax,ax
ffffffff80002370:	48 39 f0             	cmp    rax,rsi
ffffffff80002373:	73 dd                	jae    ffffffff80002352 <vec_at+0x52>
ffffffff80002375:	48 89 c2             	mov    rdx,rax
ffffffff80002378:	48 c7 c7 10 e8 00 80 	mov    rdi,0xffffffff8000e810
ffffffff8000237f:	48 89 04 24          	mov    QWORD PTR [rsp],rax
ffffffff80002383:	e8 58 3f 00 00       	call   ffffffff800062e0 <__ubsan_handle_pointer_overflow>
ffffffff80002388:	48 8b 04 24          	mov    rax,QWORD PTR [rsp]
ffffffff8000238c:	eb c4                	jmp    ffffffff80002352 <vec_at+0x52>
ffffffff8000238e:	48 89 c6             	mov    rsi,rax
ffffffff80002391:	48 c7 c7 40 e8 00 80 	mov    rdi,0xffffffff8000e840
ffffffff80002398:	48 89 4c 24 08       	mov    QWORD PTR [rsp+0x8],rcx
ffffffff8000239d:	48 89 04 24          	mov    QWORD PTR [rsp],rax
ffffffff800023a1:	e8 3a 3f 00 00       	call   ffffffff800062e0 <__ubsan_handle_pointer_overflow>
ffffffff800023a6:	48 8b 4c 24 08       	mov    rcx,QWORD PTR [rsp+0x8]
ffffffff800023ab:	48 8b 04 24          	mov    rax,QWORD PTR [rsp]
ffffffff800023af:	e9 73 ff ff ff       	jmp    ffffffff80002327 <vec_at+0x27>
ffffffff800023b4:	48 89 c6             	mov    rsi,rax
ffffffff800023b7:	48 c7 c7 60 e8 00 80 	mov    rdi,0xffffffff8000e860
ffffffff800023be:	48 89 4c 24 08       	mov    QWORD PTR [rsp+0x8],rcx
ffffffff800023c3:	48 89 04 24          	mov    QWORD PTR [rsp],rax
ffffffff800023c7:	e8 c4 36 00 00       	call   ffffffff80005a90 <__ubsan_handle_type_mismatch_v1>
ffffffff800023cc:	48 8b 4c 24 08       	mov    rcx,QWORD PTR [rsp+0x8]
ffffffff800023d1:	48 8b 04 24          	mov    rax,QWORD PTR [rsp]
ffffffff800023d5:	e9 43 ff ff ff       	jmp    ffffffff8000231d <vec_at+0x1d>
ffffffff800023da:	48 89 c6             	mov    rsi,rax
ffffffff800023dd:	48 c7 c7 20 e8 00 80 	mov    rdi,0xffffffff8000e820
ffffffff800023e4:	48 89 4c 24 08       	mov    QWORD PTR [rsp+0x8],rcx
ffffffff800023e9:	48 89 04 24          	mov    QWORD PTR [rsp],rax
ffffffff800023ed:	e8 9e 36 00 00       	call   ffffffff80005a90 <__ubsan_handle_type_mismatch_v1>
ffffffff800023f2:	48 8b 4c 24 08       	mov    rcx,QWORD PTR [rsp+0x8]
ffffffff800023f7:	48 8b 04 24          	mov    rax,QWORD PTR [rsp]
ffffffff800023fb:	e9 40 ff ff ff       	jmp    ffffffff80002340 <vec_at+0x40>
ffffffff80002400:	48 89 c6             	mov    rsi,rax
ffffffff80002403:	48 c7 c7 e0 e7 00 80 	mov    rdi,0xffffffff8000e7e0
ffffffff8000240a:	48 89 04 24          	mov    QWORD PTR [rsp],rax
ffffffff8000240e:	e8 7d 36 00 00       	call   ffffffff80005a90 <__ubsan_handle_type_mismatch_v1>
ffffffff80002413:	48 8b 04 24          	mov    rax,QWORD PTR [rsp]
ffffffff80002417:	e9 47 ff ff ff       	jmp    ffffffff80002363 <vec_at+0x63>
ffffffff8000241c:	0f 1f 40 00          	nop    DWORD PTR [rax+0x0]

ffffffff80002420 <vec_resize>:
ffffffff80002420:	55                   	push   rbp
ffffffff80002421:	48 8d 04 f5 00 00 00 	lea    rax,[rsi*8+0x0]
ffffffff80002428:	00 
ffffffff80002429:	48 89 f5             	mov    rbp,rsi
ffffffff8000242c:	53                   	push   rbx
ffffffff8000242d:	48 89 fb             	mov    rbx,rdi
ffffffff80002430:	48 83 ec 18          	sub    rsp,0x18
ffffffff80002434:	48 85 ff             	test   rdi,rdi
ffffffff80002437:	74 3d                	je     ffffffff80002476 <vec_resize+0x56>
ffffffff80002439:	40 f6 c7 07          	test   dil,0x7
ffffffff8000243d:	75 37                	jne    ffffffff80002476 <vec_resize+0x56>
ffffffff8000243f:	48 8b 3b             	mov    rdi,QWORD PTR [rbx]
ffffffff80002442:	48 89 c6             	mov    rsi,rax
ffffffff80002445:	e8 c6 17 00 00       	call   ffffffff80003c10 <krealloc>
ffffffff8000244a:	48 85 db             	test   rbx,rbx
ffffffff8000244d:	74 64                	je     ffffffff800024b3 <vec_resize+0x93>
ffffffff8000244f:	f6 c3 07             	test   bl,0x7
ffffffff80002452:	75 5f                	jne    ffffffff800024b3 <vec_resize+0x93>
ffffffff80002454:	48 89 03             	mov    QWORD PTR [rbx],rax
ffffffff80002457:	48 85 db             	test   rbx,rbx
ffffffff8000245a:	74 46                	je     ffffffff800024a2 <vec_resize+0x82>
ffffffff8000245c:	f6 c3 07             	test   bl,0x7
ffffffff8000245f:	75 41                	jne    ffffffff800024a2 <vec_resize+0x82>
ffffffff80002461:	48 8d 53 08          	lea    rdx,[rbx+0x8]
ffffffff80002465:	48 83 fb f8          	cmp    rbx,0xfffffffffffffff8
ffffffff80002469:	73 26                	jae    ffffffff80002491 <vec_resize+0x71>
ffffffff8000246b:	48 89 6b 08          	mov    QWORD PTR [rbx+0x8],rbp
ffffffff8000246f:	48 83 c4 18          	add    rsp,0x18
ffffffff80002473:	5b                   	pop    rbx
ffffffff80002474:	5d                   	pop    rbp
ffffffff80002475:	c3                   	ret
ffffffff80002476:	48 89 de             	mov    rsi,rbx
ffffffff80002479:	48 c7 c7 c0 e7 00 80 	mov    rdi,0xffffffff8000e7c0
ffffffff80002480:	48 89 44 24 08       	mov    QWORD PTR [rsp+0x8],rax
ffffffff80002485:	e8 06 36 00 00       	call   ffffffff80005a90 <__ubsan_handle_type_mismatch_v1>
ffffffff8000248a:	48 8b 44 24 08       	mov    rax,QWORD PTR [rsp+0x8]
ffffffff8000248f:	eb ae                	jmp    ffffffff8000243f <vec_resize+0x1f>
ffffffff80002491:	48 89 de             	mov    rsi,rbx
ffffffff80002494:	48 c7 c7 60 e7 00 80 	mov    rdi,0xffffffff8000e760
ffffffff8000249b:	e8 40 3e 00 00       	call   ffffffff800062e0 <__ubsan_handle_pointer_overflow>
ffffffff800024a0:	eb c9                	jmp    ffffffff8000246b <vec_resize+0x4b>
ffffffff800024a2:	48 89 de             	mov    rsi,rbx
ffffffff800024a5:	48 c7 c7 80 e7 00 80 	mov    rdi,0xffffffff8000e780
ffffffff800024ac:	e8 df 35 00 00       	call   ffffffff80005a90 <__ubsan_handle_type_mismatch_v1>
ffffffff800024b1:	eb ae                	jmp    ffffffff80002461 <vec_resize+0x41>
ffffffff800024b3:	48 89 de             	mov    rsi,rbx
ffffffff800024b6:	48 c7 c7 a0 e7 00 80 	mov    rdi,0xffffffff8000e7a0
ffffffff800024bd:	48 89 44 24 08       	mov    QWORD PTR [rsp+0x8],rax
ffffffff800024c2:	e8 c9 35 00 00       	call   ffffffff80005a90 <__ubsan_handle_type_mismatch_v1>
ffffffff800024c7:	48 8b 44 24 08       	mov    rax,QWORD PTR [rsp+0x8]
ffffffff800024cc:	eb 86                	jmp    ffffffff80002454 <vec_resize+0x34>
ffffffff800024ce:	66 90                	xchg   ax,ax

ffffffff800024d0 <vec_push>:
ffffffff800024d0:	48 83 ec 28          	sub    rsp,0x28
ffffffff800024d4:	48 89 f8             	mov    rax,rdi
ffffffff800024d7:	49 89 f1             	mov    r9,rsi
ffffffff800024da:	48 85 ff             	test   rdi,rdi
ffffffff800024dd:	0f 84 dd 01 00 00    	je     ffffffff800026c0 <vec_push+0x1f0>
ffffffff800024e3:	40 f6 c7 07          	test   dil,0x7
ffffffff800024e7:	0f 85 d3 01 00 00    	jne    ffffffff800026c0 <vec_push+0x1f0>
ffffffff800024ed:	48 8d 50 10          	lea    rdx,[rax+0x10]
ffffffff800024f1:	48 83 f8 f0          	cmp    rax,0xfffffffffffffff0
ffffffff800024f5:	0f 83 9f 01 00 00    	jae    ffffffff8000269a <vec_push+0x1ca>
ffffffff800024fb:	48 8b 48 10          	mov    rcx,QWORD PTR [rax+0x10]
ffffffff800024ff:	48 85 c0             	test   rax,rax
ffffffff80002502:	0f 84 62 01 00 00    	je     ffffffff8000266a <vec_push+0x19a>
ffffffff80002508:	a8 07                	test   al,0x7
ffffffff8000250a:	0f 85 5a 01 00 00    	jne    ffffffff8000266a <vec_push+0x19a>
ffffffff80002510:	48 8b 50 08          	mov    rdx,QWORD PTR [rax+0x8]
ffffffff80002514:	48 39 d1             	cmp    rcx,rdx
ffffffff80002517:	0f 83 c3 00 00 00    	jae    ffffffff800025e0 <vec_push+0x110>
ffffffff8000251d:	48 85 c0             	test   rax,rax
ffffffff80002520:	0f 84 1e 01 00 00    	je     ffffffff80002644 <vec_push+0x174>
ffffffff80002526:	a8 07                	test   al,0x7
ffffffff80002528:	0f 85 16 01 00 00    	jne    ffffffff80002644 <vec_push+0x174>
ffffffff8000252e:	4c 8b 00             	mov    r8,QWORD PTR [rax]
ffffffff80002531:	48 85 c0             	test   rax,rax
ffffffff80002534:	0f 84 da 00 00 00    	je     ffffffff80002614 <vec_push+0x144>
ffffffff8000253a:	a8 07                	test   al,0x7
ffffffff8000253c:	0f 85 d2 00 00 00    	jne    ffffffff80002614 <vec_push+0x144>
ffffffff80002542:	48 8b 48 10          	mov    rcx,QWORD PTR [rax+0x10]
ffffffff80002546:	48 89 cf             	mov    rdi,rcx
ffffffff80002549:	49 8d 14 c8          	lea    rdx,[r8+rcx*8]
ffffffff8000254d:	48 c1 e7 03          	shl    rdi,0x3
ffffffff80002551:	78 4d                	js     ffffffff800025a0 <vec_push+0xd0>
ffffffff80002553:	4c 39 c2             	cmp    rdx,r8
ffffffff80002556:	72 4d                	jb     ffffffff800025a5 <vec_push+0xd5>
ffffffff80002558:	48 85 d2             	test   rdx,rdx
ffffffff8000255b:	0f 84 d1 01 00 00    	je     ffffffff80002732 <vec_push+0x262>
ffffffff80002561:	f6 c2 07             	test   dl,0x7
ffffffff80002564:	0f 85 c8 01 00 00    	jne    ffffffff80002732 <vec_push+0x262>
ffffffff8000256a:	4c 89 0a             	mov    QWORD PTR [rdx],r9
ffffffff8000256d:	48 85 c0             	test   rax,rax
ffffffff80002570:	0f 84 96 01 00 00    	je     ffffffff8000270c <vec_push+0x23c>
ffffffff80002576:	a8 07                	test   al,0x7
ffffffff80002578:	0f 85 8e 01 00 00    	jne    ffffffff8000270c <vec_push+0x23c>
ffffffff8000257e:	48 83 c1 01          	add    rcx,0x1
ffffffff80002582:	48 85 c0             	test   rax,rax
ffffffff80002585:	0f 84 5b 01 00 00    	je     ffffffff800026e6 <vec_push+0x216>
ffffffff8000258b:	a8 07                	test   al,0x7
ffffffff8000258d:	0f 85 53 01 00 00    	jne    ffffffff800026e6 <vec_push+0x216>
ffffffff80002593:	48 89 48 10          	mov    QWORD PTR [rax+0x10],rcx
ffffffff80002597:	48 83 c4 28          	add    rsp,0x28
ffffffff8000259b:	c3                   	ret
ffffffff8000259c:	0f 1f 40 00          	nop    DWORD PTR [rax+0x0]
ffffffff800025a0:	49 39 d0             	cmp    r8,rdx
ffffffff800025a3:	73 b3                	jae    ffffffff80002558 <vec_push+0x88>
ffffffff800025a5:	4c 89 c6             	mov    rsi,r8
ffffffff800025a8:	48 c7 c7 80 e6 00 80 	mov    rdi,0xffffffff8000e680
ffffffff800025af:	4c 89 4c 24 18       	mov    QWORD PTR [rsp+0x18],r9
ffffffff800025b4:	48 89 44 24 10       	mov    QWORD PTR [rsp+0x10],rax
ffffffff800025b9:	48 89 4c 24 08       	mov    QWORD PTR [rsp+0x8],rcx
ffffffff800025be:	48 89 14 24          	mov    QWORD PTR [rsp],rdx
ffffffff800025c2:	e8 19 3d 00 00       	call   ffffffff800062e0 <__ubsan_handle_pointer_overflow>
ffffffff800025c7:	48 8b 14 24          	mov    rdx,QWORD PTR [rsp]
ffffffff800025cb:	48 8b 4c 24 08       	mov    rcx,QWORD PTR [rsp+0x8]
ffffffff800025d0:	48 8b 44 24 10       	mov    rax,QWORD PTR [rsp+0x10]
ffffffff800025d5:	4c 8b 4c 24 18       	mov    r9,QWORD PTR [rsp+0x18]
ffffffff800025da:	e9 79 ff ff ff       	jmp    ffffffff80002558 <vec_push+0x88>
ffffffff800025df:	90                   	nop
ffffffff800025e0:	48 85 c0             	test   rax,rax
ffffffff800025e3:	0f 84 83 01 00 00    	je     ffffffff8000276c <vec_push+0x29c>
ffffffff800025e9:	a8 07                	test   al,0x7
ffffffff800025eb:	0f 85 7b 01 00 00    	jne    ffffffff8000276c <vec_push+0x29c>
ffffffff800025f1:	48 89 c7             	mov    rdi,rax
ffffffff800025f4:	48 8d 34 12          	lea    rsi,[rdx+rdx*1]
ffffffff800025f8:	4c 89 4c 24 08       	mov    QWORD PTR [rsp+0x8],r9
ffffffff800025fd:	48 89 04 24          	mov    QWORD PTR [rsp],rax
ffffffff80002601:	e8 1a fe ff ff       	call   ffffffff80002420 <vec_resize>
ffffffff80002606:	4c 8b 4c 24 08       	mov    r9,QWORD PTR [rsp+0x8]
ffffffff8000260b:	48 8b 04 24          	mov    rax,QWORD PTR [rsp]
ffffffff8000260f:	e9 09 ff ff ff       	jmp    ffffffff8000251d <vec_push+0x4d>
ffffffff80002614:	48 89 c6             	mov    rsi,rax
ffffffff80002617:	48 c7 c7 a0 e6 00 80 	mov    rdi,0xffffffff8000e6a0
ffffffff8000261e:	4c 89 4c 24 10       	mov    QWORD PTR [rsp+0x10],r9
ffffffff80002623:	4c 89 44 24 08       	mov    QWORD PTR [rsp+0x8],r8
ffffffff80002628:	48 89 04 24          	mov    QWORD PTR [rsp],rax
ffffffff8000262c:	e8 5f 34 00 00       	call   ffffffff80005a90 <__ubsan_handle_type_mismatch_v1>
ffffffff80002631:	4c 8b 4c 24 10       	mov    r9,QWORD PTR [rsp+0x10]
ffffffff80002636:	4c 8b 44 24 08       	mov    r8,QWORD PTR [rsp+0x8]
ffffffff8000263b:	48 8b 04 24          	mov    rax,QWORD PTR [rsp]
ffffffff8000263f:	e9 fe fe ff ff       	jmp    ffffffff80002542 <vec_push+0x72>
ffffffff80002644:	48 89 c6             	mov    rsi,rax
ffffffff80002647:	48 c7 c7 c0 e6 00 80 	mov    rdi,0xffffffff8000e6c0
ffffffff8000264e:	4c 89 4c 24 08       	mov    QWORD PTR [rsp+0x8],r9
ffffffff80002653:	48 89 04 24          	mov    QWORD PTR [rsp],rax
ffffffff80002657:	e8 34 34 00 00       	call   ffffffff80005a90 <__ubsan_handle_type_mismatch_v1>
ffffffff8000265c:	4c 8b 4c 24 08       	mov    r9,QWORD PTR [rsp+0x8]
ffffffff80002661:	48 8b 04 24          	mov    rax,QWORD PTR [rsp]
ffffffff80002665:	e9 c4 fe ff ff       	jmp    ffffffff8000252e <vec_push+0x5e>
ffffffff8000266a:	48 89 c6             	mov    rsi,rax
ffffffff8000266d:	48 c7 c7 00 e7 00 80 	mov    rdi,0xffffffff8000e700
ffffffff80002674:	4c 89 4c 24 10       	mov    QWORD PTR [rsp+0x10],r9
ffffffff80002679:	48 89 4c 24 08       	mov    QWORD PTR [rsp+0x8],rcx
ffffffff8000267e:	48 89 04 24          	mov    QWORD PTR [rsp],rax
ffffffff80002682:	e8 09 34 00 00       	call   ffffffff80005a90 <__ubsan_handle_type_mismatch_v1>
ffffffff80002687:	4c 8b 4c 24 10       	mov    r9,QWORD PTR [rsp+0x10]
ffffffff8000268c:	48 8b 4c 24 08       	mov    rcx,QWORD PTR [rsp+0x8]
ffffffff80002691:	48 8b 04 24          	mov    rax,QWORD PTR [rsp]
ffffffff80002695:	e9 76 fe ff ff       	jmp    ffffffff80002510 <vec_push+0x40>
ffffffff8000269a:	48 89 c6             	mov    rsi,rax
ffffffff8000269d:	48 c7 c7 20 e7 00 80 	mov    rdi,0xffffffff8000e720
ffffffff800026a4:	4c 89 4c 24 08       	mov    QWORD PTR [rsp+0x8],r9
ffffffff800026a9:	48 89 04 24          	mov    QWORD PTR [rsp],rax
ffffffff800026ad:	e8 2e 3c 00 00       	call   ffffffff800062e0 <__ubsan_handle_pointer_overflow>
ffffffff800026b2:	4c 8b 4c 24 08       	mov    r9,QWORD PTR [rsp+0x8]
ffffffff800026b7:	48 8b 04 24          	mov    rax,QWORD PTR [rsp]
ffffffff800026bb:	e9 3b fe ff ff       	jmp    ffffffff800024fb <vec_push+0x2b>
ffffffff800026c0:	48 89 c6             	mov    rsi,rax
ffffffff800026c3:	48 c7 c7 40 e7 00 80 	mov    rdi,0xffffffff8000e740
ffffffff800026ca:	4c 89 4c 24 08       	mov    QWORD PTR [rsp+0x8],r9
ffffffff800026cf:	48 89 04 24          	mov    QWORD PTR [rsp],rax
ffffffff800026d3:	e8 b8 33 00 00       	call   ffffffff80005a90 <__ubsan_handle_type_mismatch_v1>
ffffffff800026d8:	4c 8b 4c 24 08       	mov    r9,QWORD PTR [rsp+0x8]
ffffffff800026dd:	48 8b 04 24          	mov    rax,QWORD PTR [rsp]
ffffffff800026e1:	e9 07 fe ff ff       	jmp    ffffffff800024ed <vec_push+0x1d>
ffffffff800026e6:	48 89 c6             	mov    rsi,rax
ffffffff800026e9:	48 c7 c7 20 e6 00 80 	mov    rdi,0xffffffff8000e620
ffffffff800026f0:	48 89 4c 24 08       	mov    QWORD PTR [rsp+0x8],rcx
ffffffff800026f5:	48 89 04 24          	mov    QWORD PTR [rsp],rax
ffffffff800026f9:	e8 92 33 00 00       	call   ffffffff80005a90 <__ubsan_handle_type_mismatch_v1>
ffffffff800026fe:	48 8b 4c 24 08       	mov    rcx,QWORD PTR [rsp+0x8]
ffffffff80002703:	48 8b 04 24          	mov    rax,QWORD PTR [rsp]
ffffffff80002707:	e9 87 fe ff ff       	jmp    ffffffff80002593 <vec_push+0xc3>
ffffffff8000270c:	48 89 c6             	mov    rsi,rax
ffffffff8000270f:	48 c7 c7 40 e6 00 80 	mov    rdi,0xffffffff8000e640
ffffffff80002716:	48 89 4c 24 08       	mov    QWORD PTR [rsp+0x8],rcx
ffffffff8000271b:	48 89 04 24          	mov    QWORD PTR [rsp],rax
ffffffff8000271f:	e8 6c 33 00 00       	call   ffffffff80005a90 <__ubsan_handle_type_mismatch_v1>
ffffffff80002724:	48 8b 4c 24 08       	mov    rcx,QWORD PTR [rsp+0x8]
ffffffff80002729:	48 8b 04 24          	mov    rax,QWORD PTR [rsp]
ffffffff8000272d:	e9 4c fe ff ff       	jmp    ffffffff8000257e <vec_push+0xae>
ffffffff80002732:	48 89 d6             	mov    rsi,rdx
ffffffff80002735:	48 c7 c7 60 e6 00 80 	mov    rdi,0xffffffff8000e660
ffffffff8000273c:	4c 89 4c 24 18       	mov    QWORD PTR [rsp+0x18],r9
ffffffff80002741:	48 89 44 24 10       	mov    QWORD PTR [rsp+0x10],rax
ffffffff80002746:	48 89 4c 24 08       	mov    QWORD PTR [rsp+0x8],rcx
ffffffff8000274b:	48 89 14 24          	mov    QWORD PTR [rsp],rdx
ffffffff8000274f:	e8 3c 33 00 00       	call   ffffffff80005a90 <__ubsan_handle_type_mismatch_v1>
ffffffff80002754:	4c 8b 4c 24 18       	mov    r9,QWORD PTR [rsp+0x18]
ffffffff80002759:	48 8b 44 24 10       	mov    rax,QWORD PTR [rsp+0x10]
ffffffff8000275e:	48 8b 4c 24 08       	mov    rcx,QWORD PTR [rsp+0x8]
ffffffff80002763:	48 8b 14 24          	mov    rdx,QWORD PTR [rsp]
ffffffff80002767:	e9 fe fd ff ff       	jmp    ffffffff8000256a <vec_push+0x9a>
ffffffff8000276c:	48 89 c6             	mov    rsi,rax
ffffffff8000276f:	48 c7 c7 e0 e6 00 80 	mov    rdi,0xffffffff8000e6e0
ffffffff80002776:	4c 89 4c 24 10       	mov    QWORD PTR [rsp+0x10],r9
ffffffff8000277b:	48 89 54 24 08       	mov    QWORD PTR [rsp+0x8],rdx
ffffffff80002780:	48 89 04 24          	mov    QWORD PTR [rsp],rax
ffffffff80002784:	e8 07 33 00 00       	call   ffffffff80005a90 <__ubsan_handle_type_mismatch_v1>
ffffffff80002789:	4c 8b 4c 24 10       	mov    r9,QWORD PTR [rsp+0x10]
ffffffff8000278e:	48 8b 54 24 08       	mov    rdx,QWORD PTR [rsp+0x8]
ffffffff80002793:	48 8b 04 24          	mov    rax,QWORD PTR [rsp]
ffffffff80002797:	e9 55 fe ff ff       	jmp    ffffffff800025f1 <vec_push+0x121>
ffffffff8000279c:	0f 1f 40 00          	nop    DWORD PTR [rax+0x0]

ffffffff800027a0 <timer_handler>:
ffffffff800027a0:	48 83 ec 08          	sub    rsp,0x8
ffffffff800027a4:	e8 27 6c 00 00       	call   ffffffff800093d0 <proc_switch>
ffffffff800027a9:	48 83 c4 08          	add    rsp,0x8
ffffffff800027ad:	e9 ce 5f 00 00       	jmp    ffffffff80008780 <lapic_eoi>
ffffffff800027b2:	66 2e 0f 1f 84 00 00 	cs nop WORD PTR [rax+rax*1+0x0]
ffffffff800027b9:	00 00 00 
ffffffff800027bc:	0f 1f 40 00          	nop    DWORD PTR [rax+0x0]

ffffffff800027c0 <hcf>:
ffffffff800027c0:	f4                   	hlt
ffffffff800027c1:	eb fd                	jmp    ffffffff800027c0 <hcf>
ffffffff800027c3:	66 2e 0f 1f 84 00 00 	cs nop WORD PTR [rax+rax*1+0x0]
ffffffff800027ca:	00 00 00 
ffffffff800027cd:	0f 1f 00             	nop    DWORD PTR [rax]

ffffffff800027d0 <mubsan_log>:
ffffffff800027d0:	53                   	push   rbx
ffffffff800027d1:	48 83 ec 70          	sub    rsp,0x70
ffffffff800027d5:	48 8d 84 24 80 00 00 	lea    rax,[rsp+0x80]
ffffffff800027dc:	00 
ffffffff800027dd:	48 89 74 24 48       	mov    QWORD PTR [rsp+0x48],rsi
ffffffff800027e2:	48 8d 74 24 10       	lea    rsi,[rsp+0x10]
ffffffff800027e7:	48 89 44 24 18       	mov    QWORD PTR [rsp+0x18],rax
ffffffff800027ec:	48 8d 44 24 40       	lea    rax,[rsp+0x40]
ffffffff800027f1:	48 89 44 24 20       	mov    QWORD PTR [rsp+0x20],rax
ffffffff800027f6:	48 8d 84 24 80 00 00 	lea    rax,[rsp+0x80]
ffffffff800027fd:	00 
ffffffff800027fe:	48 89 44 24 30       	mov    QWORD PTR [rsp+0x30],rax
ffffffff80002803:	48 8d 44 24 40       	lea    rax,[rsp+0x40]
ffffffff80002808:	48 89 54 24 50       	mov    QWORD PTR [rsp+0x50],rdx
ffffffff8000280d:	48 89 4c 24 58       	mov    QWORD PTR [rsp+0x58],rcx
ffffffff80002812:	4c 89 44 24 60       	mov    QWORD PTR [rsp+0x60],r8
ffffffff80002817:	4c 89 4c 24 68       	mov    QWORD PTR [rsp+0x68],r9
ffffffff8000281c:	48 89 7c 24 08       	mov    QWORD PTR [rsp+0x8],rdi
ffffffff80002821:	c7 44 24 10 08 00 00 	mov    DWORD PTR [rsp+0x10],0x8
ffffffff80002828:	00 
ffffffff80002829:	c7 44 24 28 08 00 00 	mov    DWORD PTR [rsp+0x28],0x8
ffffffff80002830:	00 
ffffffff80002831:	48 89 44 24 38       	mov    QWORD PTR [rsp+0x38],rax
ffffffff80002836:	e8 55 e8 ff ff       	call   ffffffff80001090 <serial_vprintf>
ffffffff8000283b:	48 8b 7c 24 08       	mov    rdi,QWORD PTR [rsp+0x8]
ffffffff80002840:	48 8d 74 24 28       	lea    rsi,[rsp+0x28]
ffffffff80002845:	89 c3                	mov    ebx,eax
ffffffff80002847:	e8 04 fa ff ff       	call   ffffffff80002250 <vprintf>
ffffffff8000284c:	48 83 c4 70          	add    rsp,0x70
ffffffff80002850:	89 d8                	mov    eax,ebx
ffffffff80002852:	5b                   	pop    rbx
ffffffff80002853:	c3                   	ret
ffffffff80002854:	66 2e 0f 1f 84 00 00 	cs nop WORD PTR [rax+rax*1+0x0]
ffffffff8000285b:	00 00 00 
ffffffff8000285e:	66 90                	xchg   ax,ax

ffffffff80002860 <log>:
ffffffff80002860:	41 55                	push   r13
ffffffff80002862:	41 89 d5             	mov    r13d,edx
ffffffff80002865:	41 54                	push   r12
ffffffff80002867:	49 89 f4             	mov    r12,rsi
ffffffff8000286a:	55                   	push   rbp
ffffffff8000286b:	48 89 fd             	mov    rbp,rdi
ffffffff8000286e:	53                   	push   rbx
ffffffff8000286f:	48 89 cb             	mov    rbx,rcx
ffffffff80002872:	48 83 ec 68          	sub    rsp,0x68
ffffffff80002876:	48 8d 84 24 90 00 00 	lea    rax,[rsp+0x90]
ffffffff8000287d:	00 
ffffffff8000287e:	4c 89 44 24 50       	mov    QWORD PTR [rsp+0x50],r8
ffffffff80002883:	48 89 44 24 08       	mov    QWORD PTR [rsp+0x8],rax
ffffffff80002888:	48 8d 44 24 30       	lea    rax,[rsp+0x30]
ffffffff8000288d:	48 89 44 24 10       	mov    QWORD PTR [rsp+0x10],rax
ffffffff80002892:	48 8d 84 24 90 00 00 	lea    rax,[rsp+0x90]
ffffffff80002899:	00 
ffffffff8000289a:	48 89 44 24 20       	mov    QWORD PTR [rsp+0x20],rax
ffffffff8000289f:	48 8d 44 24 30       	lea    rax,[rsp+0x30]
ffffffff800028a4:	4c 89 4c 24 58       	mov    QWORD PTR [rsp+0x58],r9
ffffffff800028a9:	c7 04 24 20 00 00 00 	mov    DWORD PTR [rsp],0x20
ffffffff800028b0:	c7 44 24 18 20 00 00 	mov    DWORD PTR [rsp+0x18],0x20
ffffffff800028b7:	00 
ffffffff800028b8:	48 89 44 24 28       	mov    QWORD PTR [rsp+0x28],rax
ffffffff800028bd:	eb 03                	jmp    ffffffff800028c2 <log+0x62>
ffffffff800028bf:	90                   	nop
ffffffff800028c0:	f3 90                	pause
ffffffff800028c2:	b8 01 00 00 00       	mov    eax,0x1
ffffffff800028c7:	86 05 4b 06 01 00    	xchg   BYTE PTR [rip+0x1064b],al        # ffffffff80012f18 <log_lock>
ffffffff800028cd:	84 c0                	test   al,al
ffffffff800028cf:	75 ef                	jne    ffffffff800028c0 <log+0x60>
ffffffff800028d1:	fa                   	cli
ffffffff800028d2:	48 c7 c7 47 c0 00 80 	mov    rdi,0xffffffff8000c047
ffffffff800028d9:	44 89 e9             	mov    ecx,r13d
ffffffff800028dc:	4c 89 e2             	mov    rdx,r12
ffffffff800028df:	48 89 ee             	mov    rsi,rbp
ffffffff800028e2:	e8 c9 e7 ff ff       	call   ffffffff800010b0 <serial_printf>
ffffffff800028e7:	48 89 e6             	mov    rsi,rsp
ffffffff800028ea:	48 89 df             	mov    rdi,rbx
ffffffff800028ed:	e8 9e e7 ff ff       	call   ffffffff80001090 <serial_vprintf>
ffffffff800028f2:	44 89 e9             	mov    ecx,r13d
ffffffff800028f5:	4c 89 e2             	mov    rdx,r12
ffffffff800028f8:	48 89 ee             	mov    rsi,rbp
ffffffff800028fb:	48 c7 c7 47 c0 00 80 	mov    rdi,0xffffffff8000c047
ffffffff80002902:	31 c0                	xor    eax,eax
ffffffff80002904:	e8 67 f9 ff ff       	call   ffffffff80002270 <printf>
ffffffff80002909:	48 8d 74 24 18       	lea    rsi,[rsp+0x18]
ffffffff8000290e:	48 89 df             	mov    rdi,rbx
ffffffff80002911:	e8 3a f9 ff ff       	call   ffffffff80002250 <vprintf>
ffffffff80002916:	c6 05 fb 05 01 00 00 	mov    BYTE PTR [rip+0x105fb],0x0        # ffffffff80012f18 <log_lock>
ffffffff8000291d:	fb                   	sti
ffffffff8000291e:	48 83 c4 68          	add    rsp,0x68
ffffffff80002922:	5b                   	pop    rbx
ffffffff80002923:	5d                   	pop    rbp
ffffffff80002924:	41 5c                	pop    r12
ffffffff80002926:	41 5d                	pop    r13
ffffffff80002928:	c3                   	ret
ffffffff80002929:	0f 1f 80 00 00 00 00 	nop    DWORD PTR [rax+0x0]

ffffffff80002930 <proc1>:
ffffffff80002930:	48 83 ec 08          	sub    rsp,0x8
ffffffff80002934:	66 66 2e 0f 1f 84 00 	data16 cs nop WORD PTR [rax+rax*1+0x0]
ffffffff8000293b:	00 00 00 00 
ffffffff8000293f:	90                   	nop
ffffffff80002940:	48 c7 c1 52 c0 00 80 	mov    rcx,0xffffffff8000c052
ffffffff80002947:	ba b7 00 00 00       	mov    edx,0xb7
ffffffff8000294c:	48 c7 c6 d6 cc 00 80 	mov    rsi,0xffffffff8000ccd6
ffffffff80002953:	31 c0                	xor    eax,eax
ffffffff80002955:	48 c7 c7 59 c0 00 80 	mov    rdi,0xffffffff8000c059
ffffffff8000295c:	e8 ff fe ff ff       	call   ffffffff80002860 <log>
ffffffff80002961:	eb dd                	jmp    ffffffff80002940 <proc1+0x10>
ffffffff80002963:	66 2e 0f 1f 84 00 00 	cs nop WORD PTR [rax+rax*1+0x0]
ffffffff8000296a:	00 00 00 
ffffffff8000296d:	0f 1f 00             	nop    DWORD PTR [rax]

ffffffff80002970 <proc2>:
ffffffff80002970:	48 83 ec 08          	sub    rsp,0x8
ffffffff80002974:	66 66 2e 0f 1f 84 00 	data16 cs nop WORD PTR [rax+rax*1+0x0]
ffffffff8000297b:	00 00 00 00 
ffffffff8000297f:	90                   	nop
ffffffff80002980:	48 c7 c1 64 c0 00 80 	mov    rcx,0xffffffff8000c064
ffffffff80002987:	ba bc 00 00 00       	mov    edx,0xbc
ffffffff8000298c:	48 c7 c6 d0 cc 00 80 	mov    rsi,0xffffffff8000ccd0
ffffffff80002993:	31 c0                	xor    eax,eax
ffffffff80002995:	48 c7 c7 59 c0 00 80 	mov    rdi,0xffffffff8000c059
ffffffff8000299c:	e8 bf fe ff ff       	call   ffffffff80002860 <log>
ffffffff800029a1:	eb dd                	jmp    ffffffff80002980 <proc2+0x10>
ffffffff800029a3:	66 2e 0f 1f 84 00 00 	cs nop WORD PTR [rax+rax*1+0x0]
ffffffff800029aa:	00 00 00 
ffffffff800029ad:	0f 1f 00             	nop    DWORD PTR [rax]

ffffffff800029b0 <write_char>:
ffffffff800029b0:	40 0f be f7          	movsx  esi,dil
ffffffff800029b4:	48 c7 c7 e0 2e 01 80 	mov    rdi,0xffffffff80012ee0
ffffffff800029bb:	e9 90 77 00 00       	jmp    ffffffff8000a150 <term_write_char>

ffffffff800029c0 <heap_tests>:
ffffffff800029c0:	41 57                	push   r15
ffffffff800029c2:	48 c7 c7 59 c0 00 80 	mov    rdi,0xffffffff8000c059
ffffffff800029c9:	31 c0                	xor    eax,eax
ffffffff800029cb:	ba 73 00 00 00       	mov    edx,0x73
ffffffff800029d0:	41 56                	push   r14
ffffffff800029d2:	48 c7 c1 6b c0 00 80 	mov    rcx,0xffffffff8000c06b
ffffffff800029d9:	48 c7 c6 e0 cc 00 80 	mov    rsi,0xffffffff8000cce0
ffffffff800029e0:	41 55                	push   r13
ffffffff800029e2:	41 54                	push   r12
ffffffff800029e4:	55                   	push   rbp
ffffffff800029e5:	53                   	push   rbx
ffffffff800029e6:	48 83 ec 68          	sub    rsp,0x68
ffffffff800029ea:	e8 71 fe ff ff       	call   ffffffff80002860 <log>
ffffffff800029ef:	bf 40 00 00 00       	mov    edi,0x40
ffffffff800029f4:	e8 c7 0c 00 00       	call   ffffffff800036c0 <kmalloc>
ffffffff800029f9:	48 85 c0             	test   rax,rax
ffffffff800029fc:	0f 84 be 03 00 00    	je     ffffffff80002dc0 <heap_tests+0x400>
ffffffff80002a02:	49 89 c0             	mov    r8,rax
ffffffff80002a05:	48 89 c3             	mov    rbx,rax
ffffffff80002a08:	31 c0                	xor    eax,eax
ffffffff80002a0a:	48 c7 c1 20 c8 00 80 	mov    rcx,0xffffffff8000c820
ffffffff80002a11:	ba 7a 00 00 00       	mov    edx,0x7a
ffffffff80002a16:	48 c7 c6 e0 cc 00 80 	mov    rsi,0xffffffff8000cce0
ffffffff80002a1d:	48 c7 c7 59 c0 00 80 	mov    rdi,0xffffffff8000c059
ffffffff80002a24:	e8 37 fe ff ff       	call   ffffffff80002860 <log>
ffffffff80002a29:	48 89 df             	mov    rdi,rbx
ffffffff80002a2c:	e8 bf 11 00 00       	call   ffffffff80003bf0 <kfree>
ffffffff80002a31:	49 89 d8             	mov    r8,rbx
ffffffff80002a34:	ba 7c 00 00 00       	mov    edx,0x7c
ffffffff80002a39:	31 c0                	xor    eax,eax
ffffffff80002a3b:	48 c7 c1 83 c0 00 80 	mov    rcx,0xffffffff8000c083
ffffffff80002a42:	48 c7 c6 e0 cc 00 80 	mov    rsi,0xffffffff8000cce0
ffffffff80002a49:	48 c7 c7 59 c0 00 80 	mov    rdi,0xffffffff8000c059
ffffffff80002a50:	e8 0b fe ff ff       	call   ffffffff80002860 <log>
ffffffff80002a55:	48 8d 5c 24 38       	lea    rbx,[rsp+0x38]
ffffffff80002a5a:	41 bf 08 00 00 00    	mov    r15d,0x8
ffffffff80002a60:	41 be 20 00 00 00    	mov    r14d,0x20
ffffffff80002a66:	45 31 e4             	xor    r12d,r12d
ffffffff80002a69:	49 29 df             	sub    r15,rbx
ffffffff80002a6c:	48 89 dd             	mov    rbp,rbx
ffffffff80002a6f:	49 89 dd             	mov    r13,rbx
ffffffff80002a72:	4c 89 7c 24 08       	mov    QWORD PTR [rsp+0x8],r15
ffffffff80002a77:	49 63 f4             	movsxd rsi,r12d
ffffffff80002a7a:	45 89 e3             	mov    r11d,r12d
ffffffff80002a7d:	48 83 fe 05          	cmp    rsi,0x5
ffffffff80002a81:	0f 83 a9 03 00 00    	jae    ffffffff80002e30 <heap_tests+0x470>
ffffffff80002a87:	4c 89 f7             	mov    rdi,r14
ffffffff80002a8a:	44 89 5c 24 10       	mov    DWORD PTR [rsp+0x10],r11d
ffffffff80002a8f:	e8 2c 0c 00 00       	call   ffffffff800036c0 <kmalloc>
ffffffff80002a94:	44 8b 5c 24 10       	mov    r11d,DWORD PTR [rsp+0x10]
ffffffff80002a99:	4a 8d 0c e5 00 00 00 	lea    rcx,[r12*8+0x0]
ffffffff80002aa0:	00 
ffffffff80002aa1:	49 89 c1             	mov    r9,rax
ffffffff80002aa4:	48 8b 44 24 08       	mov    rax,QWORD PTR [rsp+0x8]
ffffffff80002aa9:	4e 8d 04 28          	lea    r8,[rax+r13*1]
ffffffff80002aad:	49 83 f8 28          	cmp    r8,0x28
ffffffff80002ab1:	0f 87 2f 03 00 00    	ja     ffffffff80002de6 <heap_tests+0x426>
ffffffff80002ab7:	48 89 da             	mov    rdx,rbx
ffffffff80002aba:	48 01 ca             	add    rdx,rcx
ffffffff80002abd:	0f 82 f9 04 00 00    	jb     ffffffff80002fbc <heap_tests+0x5fc>
ffffffff80002ac3:	4d 63 fb             	movsxd r15,r11d
ffffffff80002ac6:	4d 89 4d 00          	mov    QWORD PTR [r13+0x0],r9
ffffffff80002aca:	49 83 ff 05          	cmp    r15,0x5
ffffffff80002ace:	0f 83 ac 04 00 00    	jae    ffffffff80002f80 <heap_tests+0x5c0>
ffffffff80002ad4:	49 83 f8 28          	cmp    r8,0x28
ffffffff80002ad8:	0f 87 52 04 00 00    	ja     ffffffff80002f30 <heap_tests+0x570>
ffffffff80002ade:	48 89 da             	mov    rdx,rbx
ffffffff80002ae1:	48 01 ca             	add    rdx,rcx
ffffffff80002ae4:	0f 82 0a 04 00 00    	jb     ffffffff80002ef4 <heap_tests+0x534>
ffffffff80002aea:	4d 85 c9             	test   r9,r9
ffffffff80002aed:	0f 84 8d 01 00 00    	je     ffffffff80002c80 <heap_tests+0x2c0>
ffffffff80002af3:	49 83 ff 05          	cmp    r15,0x5
ffffffff80002af7:	0f 83 bb 03 00 00    	jae    ffffffff80002eb8 <heap_tests+0x4f8>
ffffffff80002afd:	49 83 f8 28          	cmp    r8,0x28
ffffffff80002b01:	0f 87 6f 03 00 00    	ja     ffffffff80002e76 <heap_tests+0x4b6>
ffffffff80002b07:	48 01 d9             	add    rcx,rbx
ffffffff80002b0a:	0f 82 3b 03 00 00    	jb     ffffffff80002e4b <heap_tests+0x48b>
ffffffff80002b10:	45 89 d8             	mov    r8d,r11d
ffffffff80002b13:	48 c7 c1 97 c0 00 80 	mov    rcx,0xffffffff8000c097
ffffffff80002b1a:	31 c0                	xor    eax,eax
ffffffff80002b1c:	49 83 c4 01          	add    r12,0x1
ffffffff80002b20:	ba 8a 00 00 00       	mov    edx,0x8a
ffffffff80002b25:	48 c7 c6 e0 cc 00 80 	mov    rsi,0xffffffff8000cce0
ffffffff80002b2c:	49 83 c6 20          	add    r14,0x20
ffffffff80002b30:	49 83 c5 08          	add    r13,0x8
ffffffff80002b34:	48 c7 c7 59 c0 00 80 	mov    rdi,0xffffffff8000c059
ffffffff80002b3b:	e8 20 fd ff ff       	call   ffffffff80002860 <log>
ffffffff80002b40:	49 83 fc 05          	cmp    r12,0x5
ffffffff80002b44:	0f 85 2d ff ff ff    	jne    ffffffff80002a77 <heap_tests+0xb7>
ffffffff80002b4a:	45 31 e4             	xor    r12d,r12d
ffffffff80002b4d:	49 63 f4             	movsxd rsi,r12d
ffffffff80002b50:	45 89 e7             	mov    r15d,r12d
ffffffff80002b53:	48 83 fe 05          	cmp    rsi,0x5
ffffffff80002b57:	0f 83 9b 04 00 00    	jae    ffffffff80002ff8 <heap_tests+0x638>
ffffffff80002b5d:	48 8b 44 24 08       	mov    rax,QWORD PTR [rsp+0x8]
ffffffff80002b62:	4e 8d 2c e5 00 00 00 	lea    r13,[r12*8+0x0]
ffffffff80002b69:	00 
ffffffff80002b6a:	4c 8d 74 05 00       	lea    r14,[rbp+rax*1+0x0]
ffffffff80002b6f:	49 83 fe 28          	cmp    r14,0x28
ffffffff80002b73:	0f 87 0c 05 00 00    	ja     ffffffff80003085 <heap_tests+0x6c5>
ffffffff80002b79:	48 89 da             	mov    rdx,rbx
ffffffff80002b7c:	4c 01 ea             	add    rdx,r13
ffffffff80002b7f:	0f 82 ec 04 00 00    	jb     ffffffff80003071 <heap_tests+0x6b1>
ffffffff80002b85:	48 8b 7d 00          	mov    rdi,QWORD PTR [rbp+0x0]
ffffffff80002b89:	e8 62 10 00 00       	call   ffffffff80003bf0 <kfree>
ffffffff80002b8e:	49 63 f7             	movsxd rsi,r15d
ffffffff80002b91:	48 83 fe 05          	cmp    rsi,0x5
ffffffff80002b95:	0f 83 c5 04 00 00    	jae    ffffffff80003060 <heap_tests+0x6a0>
ffffffff80002b9b:	49 83 fe 28          	cmp    r14,0x28
ffffffff80002b9f:	0f 87 9c 04 00 00    	ja     ffffffff80003041 <heap_tests+0x681>
ffffffff80002ba5:	49 01 dd             	add    r13,rbx
ffffffff80002ba8:	0f 82 5b 04 00 00    	jb     ffffffff80003009 <heap_tests+0x649>
ffffffff80002bae:	4c 8b 4d 00          	mov    r9,QWORD PTR [rbp+0x0]
ffffffff80002bb2:	45 89 f8             	mov    r8d,r15d
ffffffff80002bb5:	48 c7 c1 af c0 00 80 	mov    rcx,0xffffffff8000c0af
ffffffff80002bbc:	31 c0                	xor    eax,eax
ffffffff80002bbe:	ba 91 00 00 00       	mov    edx,0x91
ffffffff80002bc3:	48 c7 c6 e0 cc 00 80 	mov    rsi,0xffffffff8000cce0
ffffffff80002bca:	49 83 c4 01          	add    r12,0x1
ffffffff80002bce:	48 83 c5 08          	add    rbp,0x8
ffffffff80002bd2:	48 c7 c7 59 c0 00 80 	mov    rdi,0xffffffff8000c059
ffffffff80002bd9:	e8 82 fc ff ff       	call   ffffffff80002860 <log>
ffffffff80002bde:	49 83 fc 05          	cmp    r12,0x5
ffffffff80002be2:	0f 85 65 ff ff ff    	jne    ffffffff80002b4d <heap_tests+0x18d>
ffffffff80002be8:	48 c7 c1 68 c8 00 80 	mov    rcx,0xffffffff8000c868
ffffffff80002bef:	ba 93 00 00 00       	mov    edx,0x93
ffffffff80002bf4:	48 c7 c6 e0 cc 00 80 	mov    rsi,0xffffffff8000cce0
ffffffff80002bfb:	31 c0                	xor    eax,eax
ffffffff80002bfd:	48 c7 c7 59 c0 00 80 	mov    rdi,0xffffffff8000c059
ffffffff80002c04:	e8 57 fc ff ff       	call   ffffffff80002860 <log>
ffffffff80002c09:	31 ff                	xor    edi,edi
ffffffff80002c0b:	e8 b0 0a 00 00       	call   ffffffff800036c0 <kmalloc>
ffffffff80002c10:	48 89 c3             	mov    rbx,rax
ffffffff80002c13:	48 85 c0             	test   rax,rax
ffffffff80002c16:	0f 84 74 01 00 00    	je     ffffffff80002d90 <heap_tests+0x3d0>
ffffffff80002c1c:	49 89 c0             	mov    r8,rax
ffffffff80002c1f:	48 c7 c7 59 c0 00 80 	mov    rdi,0xffffffff8000c059
ffffffff80002c26:	31 c0                	xor    eax,eax
ffffffff80002c28:	48 c7 c1 98 c8 00 80 	mov    rcx,0xffffffff8000c898
ffffffff80002c2f:	ba 9f 00 00 00       	mov    edx,0x9f
ffffffff80002c34:	48 c7 c6 e0 cc 00 80 	mov    rsi,0xffffffff8000cce0
ffffffff80002c3b:	e8 20 fc ff ff       	call   ffffffff80002860 <log>
ffffffff80002c40:	48 89 df             	mov    rdi,rbx
ffffffff80002c43:	e8 a8 0f 00 00       	call   ffffffff80003bf0 <kfree>
ffffffff80002c48:	31 ff                	xor    edi,edi
ffffffff80002c4a:	e8 a1 0f 00 00       	call   ffffffff80003bf0 <kfree>
ffffffff80002c4f:	48 c7 c1 00 c9 00 80 	mov    rcx,0xffffffff8000c900
ffffffff80002c56:	31 c0                	xor    eax,eax
ffffffff80002c58:	ba a7 00 00 00       	mov    edx,0xa7
ffffffff80002c5d:	48 c7 c6 e0 cc 00 80 	mov    rsi,0xffffffff8000cce0
ffffffff80002c64:	48 c7 c7 59 c0 00 80 	mov    rdi,0xffffffff8000c059
ffffffff80002c6b:	e8 f0 fb ff ff       	call   ffffffff80002860 <log>
ffffffff80002c70:	48 83 c4 68          	add    rsp,0x68
ffffffff80002c74:	5b                   	pop    rbx
ffffffff80002c75:	5d                   	pop    rbp
ffffffff80002c76:	41 5c                	pop    r12
ffffffff80002c78:	41 5d                	pop    r13
ffffffff80002c7a:	41 5e                	pop    r14
ffffffff80002c7c:	41 5f                	pop    r15
ffffffff80002c7e:	c3                   	ret
ffffffff80002c7f:	90                   	nop
ffffffff80002c80:	31 c0                	xor    eax,eax
ffffffff80002c82:	45 89 f0             	mov    r8d,r14d
ffffffff80002c85:	48 c7 c1 40 c8 00 80 	mov    rcx,0xffffffff8000c840
ffffffff80002c8c:	45 31 e4             	xor    r12d,r12d
ffffffff80002c8f:	ba 86 00 00 00       	mov    edx,0x86
ffffffff80002c94:	48 c7 c6 e0 cc 00 80 	mov    rsi,0xffffffff8000cce0
ffffffff80002c9b:	44 89 5c 24 10       	mov    DWORD PTR [rsp+0x10],r11d
ffffffff80002ca0:	48 c7 c7 59 c0 00 80 	mov    rdi,0xffffffff8000c059
ffffffff80002ca7:	e8 b4 fb ff ff       	call   ffffffff80002860 <log>
ffffffff80002cac:	8b 44 24 10          	mov    eax,DWORD PTR [rsp+0x10]
ffffffff80002cb0:	85 c0                	test   eax,eax
ffffffff80002cb2:	0f 84 51 ff ff ff    	je     ffffffff80002c09 <heap_tests+0x249>
ffffffff80002cb8:	49 63 f4             	movsxd rsi,r12d
ffffffff80002cbb:	45 89 e0             	mov    r8d,r12d
ffffffff80002cbe:	48 83 fe 05          	cmp    rsi,0x5
ffffffff80002cc2:	0f 83 a9 00 00 00    	jae    ffffffff80002d71 <heap_tests+0x3b1>
ffffffff80002cc8:	0f 1f 84 00 00 00 00 	nop    DWORD PTR [rax+rax*1+0x0]
ffffffff80002ccf:	00 
ffffffff80002cd0:	48 8b 44 24 08       	mov    rax,QWORD PTR [rsp+0x8]
ffffffff80002cd5:	4e 8d 2c e5 00 00 00 	lea    r13,[r12*8+0x0]
ffffffff80002cdc:	00 
ffffffff80002cdd:	4c 8d 74 05 00       	lea    r14,[rbp+rax*1+0x0]
ffffffff80002ce2:	49 83 fe 28          	cmp    r14,0x28
ffffffff80002ce6:	0f 87 18 04 00 00    	ja     ffffffff80003104 <heap_tests+0x744>
ffffffff80002cec:	48 89 da             	mov    rdx,rbx
ffffffff80002cef:	4c 01 ea             	add    rdx,r13
ffffffff80002cf2:	0f 82 ee 03 00 00    	jb     ffffffff800030e6 <heap_tests+0x726>
ffffffff80002cf8:	48 8b 7d 00          	mov    rdi,QWORD PTR [rbp+0x0]
ffffffff80002cfc:	44 89 44 24 10       	mov    DWORD PTR [rsp+0x10],r8d
ffffffff80002d01:	e8 ea 0e 00 00       	call   ffffffff80003bf0 <kfree>
ffffffff80002d06:	48 63 74 24 10       	movsxd rsi,DWORD PTR [rsp+0x10]
ffffffff80002d0b:	49 89 f0             	mov    r8,rsi
ffffffff80002d0e:	48 83 fe 05          	cmp    rsi,0x5
ffffffff80002d12:	0f 83 b8 03 00 00    	jae    ffffffff800030d0 <heap_tests+0x710>
ffffffff80002d18:	49 83 fe 28          	cmp    r14,0x28
ffffffff80002d1c:	0f 87 86 03 00 00    	ja     ffffffff800030a8 <heap_tests+0x6e8>
ffffffff80002d22:	49 01 dd             	add    r13,rbx
ffffffff80002d25:	0f 82 f5 02 00 00    	jb     ffffffff80003020 <heap_tests+0x660>
ffffffff80002d2b:	4c 8b 4d 00          	mov    r9,QWORD PTR [rbp+0x0]
ffffffff80002d2f:	ba 98 00 00 00       	mov    edx,0x98
ffffffff80002d34:	31 c0                	xor    eax,eax
ffffffff80002d36:	49 83 c4 01          	add    r12,0x1
ffffffff80002d3a:	48 c7 c1 af c0 00 80 	mov    rcx,0xffffffff8000c0af
ffffffff80002d41:	48 c7 c6 e0 cc 00 80 	mov    rsi,0xffffffff8000cce0
ffffffff80002d48:	48 c7 c7 59 c0 00 80 	mov    rdi,0xffffffff8000c059
ffffffff80002d4f:	48 83 c5 08          	add    rbp,0x8
ffffffff80002d53:	e8 08 fb ff ff       	call   ffffffff80002860 <log>
ffffffff80002d58:	4d 39 fc             	cmp    r12,r15
ffffffff80002d5b:	0f 84 a8 fe ff ff    	je     ffffffff80002c09 <heap_tests+0x249>
ffffffff80002d61:	49 63 f4             	movsxd rsi,r12d
ffffffff80002d64:	45 89 e0             	mov    r8d,r12d
ffffffff80002d67:	48 83 fe 05          	cmp    rsi,0x5
ffffffff80002d6b:	0f 82 5f ff ff ff    	jb     ffffffff80002cd0 <heap_tests+0x310>
ffffffff80002d71:	48 c7 c7 20 ea 00 80 	mov    rdi,0xffffffff8000ea20
ffffffff80002d78:	44 89 64 24 10       	mov    DWORD PTR [rsp+0x10],r12d
ffffffff80002d7d:	e8 fe 35 00 00       	call   ffffffff80006380 <__ubsan_handle_out_of_bounds>
ffffffff80002d82:	44 8b 44 24 10       	mov    r8d,DWORD PTR [rsp+0x10]
ffffffff80002d87:	e9 44 ff ff ff       	jmp    ffffffff80002cd0 <heap_tests+0x310>
ffffffff80002d8c:	0f 1f 40 00          	nop    DWORD PTR [rax+0x0]
ffffffff80002d90:	48 c7 c1 e0 c8 00 80 	mov    rcx,0xffffffff8000c8e0
ffffffff80002d97:	ba a2 00 00 00       	mov    edx,0xa2
ffffffff80002d9c:	48 c7 c6 e0 cc 00 80 	mov    rsi,0xffffffff8000cce0
ffffffff80002da3:	31 c0                	xor    eax,eax
ffffffff80002da5:	48 c7 c7 59 c0 00 80 	mov    rdi,0xffffffff8000c059
ffffffff80002dac:	e8 af fa ff ff       	call   ffffffff80002860 <log>
ffffffff80002db1:	e9 92 fe ff ff       	jmp    ffffffff80002c48 <heap_tests+0x288>
ffffffff80002db6:	66 2e 0f 1f 84 00 00 	cs nop WORD PTR [rax+rax*1+0x0]
ffffffff80002dbd:	00 00 00 
ffffffff80002dc0:	48 c7 c1 f8 c7 00 80 	mov    rcx,0xffffffff8000c7f8
ffffffff80002dc7:	ba 78 00 00 00       	mov    edx,0x78
ffffffff80002dcc:	48 c7 c6 e0 cc 00 80 	mov    rsi,0xffffffff8000cce0
ffffffff80002dd3:	31 c0                	xor    eax,eax
ffffffff80002dd5:	48 c7 c7 59 c0 00 80 	mov    rdi,0xffffffff8000c059
ffffffff80002ddc:	e8 7f fa ff ff       	call   ffffffff80002860 <log>
ffffffff80002de1:	e9 6f fc ff ff       	jmp    ffffffff80002a55 <heap_tests+0x95>
ffffffff80002de6:	4c 89 e8             	mov    rax,r13
ffffffff80002de9:	4c 01 c0             	add    rax,r8
ffffffff80002dec:	0f 82 c5 fc ff ff    	jb     ffffffff80002ab7 <heap_tests+0xf7>
ffffffff80002df2:	4c 89 ee             	mov    rsi,r13
ffffffff80002df5:	48 c7 c7 e0 eb 00 80 	mov    rdi,0xffffffff8000ebe0
ffffffff80002dfc:	4c 89 4c 24 28       	mov    QWORD PTR [rsp+0x28],r9
ffffffff80002e01:	48 89 4c 24 20       	mov    QWORD PTR [rsp+0x20],rcx
ffffffff80002e06:	44 89 5c 24 18       	mov    DWORD PTR [rsp+0x18],r11d
ffffffff80002e0b:	4c 89 44 24 10       	mov    QWORD PTR [rsp+0x10],r8
ffffffff80002e10:	e8 7b 2c 00 00       	call   ffffffff80005a90 <__ubsan_handle_type_mismatch_v1>
ffffffff80002e15:	4c 8b 4c 24 28       	mov    r9,QWORD PTR [rsp+0x28]
ffffffff80002e1a:	48 8b 4c 24 20       	mov    rcx,QWORD PTR [rsp+0x20]
ffffffff80002e1f:	44 8b 5c 24 18       	mov    r11d,DWORD PTR [rsp+0x18]
ffffffff80002e24:	4c 8b 44 24 10       	mov    r8,QWORD PTR [rsp+0x10]
ffffffff80002e29:	e9 89 fc ff ff       	jmp    ffffffff80002ab7 <heap_tests+0xf7>
ffffffff80002e2e:	66 90                	xchg   ax,ax
ffffffff80002e30:	48 c7 c7 20 ec 00 80 	mov    rdi,0xffffffff8000ec20
ffffffff80002e37:	44 89 64 24 10       	mov    DWORD PTR [rsp+0x10],r12d
ffffffff80002e3c:	e8 3f 35 00 00       	call   ffffffff80006380 <__ubsan_handle_out_of_bounds>
ffffffff80002e41:	44 8b 5c 24 10       	mov    r11d,DWORD PTR [rsp+0x10]
ffffffff80002e46:	e9 3c fc ff ff       	jmp    ffffffff80002a87 <heap_tests+0xc7>
ffffffff80002e4b:	48 89 ca             	mov    rdx,rcx
ffffffff80002e4e:	48 89 de             	mov    rsi,rbx
ffffffff80002e51:	4c 89 4c 24 18       	mov    QWORD PTR [rsp+0x18],r9
ffffffff80002e56:	48 c7 c7 00 eb 00 80 	mov    rdi,0xffffffff8000eb00
ffffffff80002e5d:	44 89 5c 24 10       	mov    DWORD PTR [rsp+0x10],r11d
ffffffff80002e62:	e8 79 34 00 00       	call   ffffffff800062e0 <__ubsan_handle_pointer_overflow>
ffffffff80002e67:	4c 8b 4c 24 18       	mov    r9,QWORD PTR [rsp+0x18]
ffffffff80002e6c:	44 8b 5c 24 10       	mov    r11d,DWORD PTR [rsp+0x10]
ffffffff80002e71:	e9 9a fc ff ff       	jmp    ffffffff80002b10 <heap_tests+0x150>
ffffffff80002e76:	4d 01 e8             	add    r8,r13
ffffffff80002e79:	0f 82 88 fc ff ff    	jb     ffffffff80002b07 <heap_tests+0x147>
ffffffff80002e7f:	4c 89 ee             	mov    rsi,r13
ffffffff80002e82:	48 c7 c7 20 eb 00 80 	mov    rdi,0xffffffff8000eb20
ffffffff80002e89:	4c 89 4c 24 20       	mov    QWORD PTR [rsp+0x20],r9
ffffffff80002e8e:	48 89 4c 24 18       	mov    QWORD PTR [rsp+0x18],rcx
ffffffff80002e93:	44 89 5c 24 10       	mov    DWORD PTR [rsp+0x10],r11d
ffffffff80002e98:	e8 f3 2b 00 00       	call   ffffffff80005a90 <__ubsan_handle_type_mismatch_v1>
ffffffff80002e9d:	4c 8b 4c 24 20       	mov    r9,QWORD PTR [rsp+0x20]
ffffffff80002ea2:	48 8b 4c 24 18       	mov    rcx,QWORD PTR [rsp+0x18]
ffffffff80002ea7:	44 8b 5c 24 10       	mov    r11d,DWORD PTR [rsp+0x10]
ffffffff80002eac:	e9 56 fc ff ff       	jmp    ffffffff80002b07 <heap_tests+0x147>
ffffffff80002eb1:	0f 1f 80 00 00 00 00 	nop    DWORD PTR [rax+0x0]
ffffffff80002eb8:	4c 89 fe             	mov    rsi,r15
ffffffff80002ebb:	48 c7 c7 40 eb 00 80 	mov    rdi,0xffffffff8000eb40
ffffffff80002ec2:	4c 89 4c 24 28       	mov    QWORD PTR [rsp+0x28],r9
ffffffff80002ec7:	48 89 4c 24 20       	mov    QWORD PTR [rsp+0x20],rcx
ffffffff80002ecc:	44 89 5c 24 18       	mov    DWORD PTR [rsp+0x18],r11d
ffffffff80002ed1:	4c 89 44 24 10       	mov    QWORD PTR [rsp+0x10],r8
ffffffff80002ed6:	e8 a5 34 00 00       	call   ffffffff80006380 <__ubsan_handle_out_of_bounds>
ffffffff80002edb:	4c 8b 4c 24 28       	mov    r9,QWORD PTR [rsp+0x28]
ffffffff80002ee0:	48 8b 4c 24 20       	mov    rcx,QWORD PTR [rsp+0x20]
ffffffff80002ee5:	44 8b 5c 24 18       	mov    r11d,DWORD PTR [rsp+0x18]
ffffffff80002eea:	4c 8b 44 24 10       	mov    r8,QWORD PTR [rsp+0x10]
ffffffff80002eef:	e9 09 fc ff ff       	jmp    ffffffff80002afd <heap_tests+0x13d>
ffffffff80002ef4:	48 89 de             	mov    rsi,rbx
ffffffff80002ef7:	48 c7 c7 60 eb 00 80 	mov    rdi,0xffffffff8000eb60
ffffffff80002efe:	4c 89 4c 24 28       	mov    QWORD PTR [rsp+0x28],r9
ffffffff80002f03:	48 89 4c 24 20       	mov    QWORD PTR [rsp+0x20],rcx
ffffffff80002f08:	44 89 5c 24 18       	mov    DWORD PTR [rsp+0x18],r11d
ffffffff80002f0d:	4c 89 44 24 10       	mov    QWORD PTR [rsp+0x10],r8
ffffffff80002f12:	e8 c9 33 00 00       	call   ffffffff800062e0 <__ubsan_handle_pointer_overflow>
ffffffff80002f17:	4c 8b 4c 24 28       	mov    r9,QWORD PTR [rsp+0x28]
ffffffff80002f1c:	48 8b 4c 24 20       	mov    rcx,QWORD PTR [rsp+0x20]
ffffffff80002f21:	44 8b 5c 24 18       	mov    r11d,DWORD PTR [rsp+0x18]
ffffffff80002f26:	4c 8b 44 24 10       	mov    r8,QWORD PTR [rsp+0x10]
ffffffff80002f2b:	e9 ba fb ff ff       	jmp    ffffffff80002aea <heap_tests+0x12a>
ffffffff80002f30:	4c 89 e8             	mov    rax,r13
ffffffff80002f33:	4c 01 c0             	add    rax,r8
ffffffff80002f36:	0f 82 a2 fb ff ff    	jb     ffffffff80002ade <heap_tests+0x11e>
ffffffff80002f3c:	4c 89 ee             	mov    rsi,r13
ffffffff80002f3f:	48 c7 c7 80 eb 00 80 	mov    rdi,0xffffffff8000eb80
ffffffff80002f46:	4c 89 4c 24 28       	mov    QWORD PTR [rsp+0x28],r9
ffffffff80002f4b:	48 89 4c 24 20       	mov    QWORD PTR [rsp+0x20],rcx
ffffffff80002f50:	44 89 5c 24 18       	mov    DWORD PTR [rsp+0x18],r11d
ffffffff80002f55:	4c 89 44 24 10       	mov    QWORD PTR [rsp+0x10],r8
ffffffff80002f5a:	e8 31 2b 00 00       	call   ffffffff80005a90 <__ubsan_handle_type_mismatch_v1>
ffffffff80002f5f:	4c 8b 4c 24 28       	mov    r9,QWORD PTR [rsp+0x28]
ffffffff80002f64:	48 8b 4c 24 20       	mov    rcx,QWORD PTR [rsp+0x20]
ffffffff80002f69:	44 8b 5c 24 18       	mov    r11d,DWORD PTR [rsp+0x18]
ffffffff80002f6e:	4c 8b 44 24 10       	mov    r8,QWORD PTR [rsp+0x10]
ffffffff80002f73:	e9 66 fb ff ff       	jmp    ffffffff80002ade <heap_tests+0x11e>
ffffffff80002f78:	0f 1f 84 00 00 00 00 	nop    DWORD PTR [rax+rax*1+0x0]
ffffffff80002f7f:	00 
ffffffff80002f80:	4c 89 fe             	mov    rsi,r15
ffffffff80002f83:	48 c7 c7 a0 eb 00 80 	mov    rdi,0xffffffff8000eba0
ffffffff80002f8a:	4c 89 4c 24 28       	mov    QWORD PTR [rsp+0x28],r9
ffffffff80002f8f:	48 89 4c 24 20       	mov    QWORD PTR [rsp+0x20],rcx
ffffffff80002f94:	44 89 5c 24 18       	mov    DWORD PTR [rsp+0x18],r11d
ffffffff80002f99:	4c 89 44 24 10       	mov    QWORD PTR [rsp+0x10],r8
ffffffff80002f9e:	e8 dd 33 00 00       	call   ffffffff80006380 <__ubsan_handle_out_of_bounds>
ffffffff80002fa3:	4c 8b 4c 24 28       	mov    r9,QWORD PTR [rsp+0x28]
ffffffff80002fa8:	48 8b 4c 24 20       	mov    rcx,QWORD PTR [rsp+0x20]
ffffffff80002fad:	44 8b 5c 24 18       	mov    r11d,DWORD PTR [rsp+0x18]
ffffffff80002fb2:	4c 8b 44 24 10       	mov    r8,QWORD PTR [rsp+0x10]
ffffffff80002fb7:	e9 18 fb ff ff       	jmp    ffffffff80002ad4 <heap_tests+0x114>
ffffffff80002fbc:	48 89 de             	mov    rsi,rbx
ffffffff80002fbf:	48 c7 c7 c0 eb 00 80 	mov    rdi,0xffffffff8000ebc0
ffffffff80002fc6:	4c 89 4c 24 28       	mov    QWORD PTR [rsp+0x28],r9
ffffffff80002fcb:	48 89 4c 24 20       	mov    QWORD PTR [rsp+0x20],rcx
ffffffff80002fd0:	44 89 5c 24 18       	mov    DWORD PTR [rsp+0x18],r11d
ffffffff80002fd5:	4c 89 44 24 10       	mov    QWORD PTR [rsp+0x10],r8
ffffffff80002fda:	e8 01 33 00 00       	call   ffffffff800062e0 <__ubsan_handle_pointer_overflow>
ffffffff80002fdf:	4c 8b 4c 24 28       	mov    r9,QWORD PTR [rsp+0x28]
ffffffff80002fe4:	48 8b 4c 24 20       	mov    rcx,QWORD PTR [rsp+0x20]
ffffffff80002fe9:	44 8b 5c 24 18       	mov    r11d,DWORD PTR [rsp+0x18]
ffffffff80002fee:	4c 8b 44 24 10       	mov    r8,QWORD PTR [rsp+0x10]
ffffffff80002ff3:	e9 cb fa ff ff       	jmp    ffffffff80002ac3 <heap_tests+0x103>
ffffffff80002ff8:	48 c7 c7 e0 ea 00 80 	mov    rdi,0xffffffff8000eae0
ffffffff80002fff:	e8 7c 33 00 00       	call   ffffffff80006380 <__ubsan_handle_out_of_bounds>
ffffffff80003004:	e9 54 fb ff ff       	jmp    ffffffff80002b5d <heap_tests+0x19d>
ffffffff80003009:	4c 89 ea             	mov    rdx,r13
ffffffff8000300c:	48 89 de             	mov    rsi,rbx
ffffffff8000300f:	48 c7 c7 40 ea 00 80 	mov    rdi,0xffffffff8000ea40
ffffffff80003016:	e8 c5 32 00 00       	call   ffffffff800062e0 <__ubsan_handle_pointer_overflow>
ffffffff8000301b:	e9 8e fb ff ff       	jmp    ffffffff80002bae <heap_tests+0x1ee>
ffffffff80003020:	4c 89 ea             	mov    rdx,r13
ffffffff80003023:	48 89 de             	mov    rsi,rbx
ffffffff80003026:	44 89 44 24 10       	mov    DWORD PTR [rsp+0x10],r8d
ffffffff8000302b:	48 c7 c7 90 e9 00 80 	mov    rdi,0xffffffff8000e990
ffffffff80003032:	e8 a9 32 00 00       	call   ffffffff800062e0 <__ubsan_handle_pointer_overflow>
ffffffff80003037:	44 8b 44 24 10       	mov    r8d,DWORD PTR [rsp+0x10]
ffffffff8000303c:	e9 ea fc ff ff       	jmp    ffffffff80002d2b <heap_tests+0x36b>
ffffffff80003041:	49 01 ee             	add    r14,rbp
ffffffff80003044:	0f 82 5b fb ff ff    	jb     ffffffff80002ba5 <heap_tests+0x1e5>
ffffffff8000304a:	48 89 ee             	mov    rsi,rbp
ffffffff8000304d:	48 c7 c7 60 ea 00 80 	mov    rdi,0xffffffff8000ea60
ffffffff80003054:	e8 37 2a 00 00       	call   ffffffff80005a90 <__ubsan_handle_type_mismatch_v1>
ffffffff80003059:	e9 47 fb ff ff       	jmp    ffffffff80002ba5 <heap_tests+0x1e5>
ffffffff8000305e:	66 90                	xchg   ax,ax
ffffffff80003060:	48 c7 c7 80 ea 00 80 	mov    rdi,0xffffffff8000ea80
ffffffff80003067:	e8 14 33 00 00       	call   ffffffff80006380 <__ubsan_handle_out_of_bounds>
ffffffff8000306c:	e9 2a fb ff ff       	jmp    ffffffff80002b9b <heap_tests+0x1db>
ffffffff80003071:	48 89 de             	mov    rsi,rbx
ffffffff80003074:	48 c7 c7 a0 ea 00 80 	mov    rdi,0xffffffff8000eaa0
ffffffff8000307b:	e8 60 32 00 00       	call   ffffffff800062e0 <__ubsan_handle_pointer_overflow>
ffffffff80003080:	e9 00 fb ff ff       	jmp    ffffffff80002b85 <heap_tests+0x1c5>
ffffffff80003085:	48 89 e8             	mov    rax,rbp
ffffffff80003088:	4c 01 f0             	add    rax,r14
ffffffff8000308b:	0f 82 e8 fa ff ff    	jb     ffffffff80002b79 <heap_tests+0x1b9>
ffffffff80003091:	48 89 ee             	mov    rsi,rbp
ffffffff80003094:	48 c7 c7 c0 ea 00 80 	mov    rdi,0xffffffff8000eac0
ffffffff8000309b:	e8 f0 29 00 00       	call   ffffffff80005a90 <__ubsan_handle_type_mismatch_v1>
ffffffff800030a0:	e9 d4 fa ff ff       	jmp    ffffffff80002b79 <heap_tests+0x1b9>
ffffffff800030a5:	0f 1f 00             	nop    DWORD PTR [rax]
ffffffff800030a8:	49 01 ee             	add    r14,rbp
ffffffff800030ab:	0f 82 71 fc ff ff    	jb     ffffffff80002d22 <heap_tests+0x362>
ffffffff800030b1:	48 89 ee             	mov    rsi,rbp
ffffffff800030b4:	48 c7 c7 a0 e9 00 80 	mov    rdi,0xffffffff8000e9a0
ffffffff800030bb:	44 89 44 24 10       	mov    DWORD PTR [rsp+0x10],r8d
ffffffff800030c0:	e8 cb 29 00 00       	call   ffffffff80005a90 <__ubsan_handle_type_mismatch_v1>
ffffffff800030c5:	44 8b 44 24 10       	mov    r8d,DWORD PTR [rsp+0x10]
ffffffff800030ca:	e9 53 fc ff ff       	jmp    ffffffff80002d22 <heap_tests+0x362>
ffffffff800030cf:	90                   	nop
ffffffff800030d0:	48 c7 c7 c0 e9 00 80 	mov    rdi,0xffffffff8000e9c0
ffffffff800030d7:	e8 a4 32 00 00       	call   ffffffff80006380 <__ubsan_handle_out_of_bounds>
ffffffff800030dc:	44 8b 44 24 10       	mov    r8d,DWORD PTR [rsp+0x10]
ffffffff800030e1:	e9 32 fc ff ff       	jmp    ffffffff80002d18 <heap_tests+0x358>
ffffffff800030e6:	48 89 de             	mov    rsi,rbx
ffffffff800030e9:	48 c7 c7 e0 e9 00 80 	mov    rdi,0xffffffff8000e9e0
ffffffff800030f0:	44 89 44 24 10       	mov    DWORD PTR [rsp+0x10],r8d
ffffffff800030f5:	e8 e6 31 00 00       	call   ffffffff800062e0 <__ubsan_handle_pointer_overflow>
ffffffff800030fa:	44 8b 44 24 10       	mov    r8d,DWORD PTR [rsp+0x10]
ffffffff800030ff:	e9 f4 fb ff ff       	jmp    ffffffff80002cf8 <heap_tests+0x338>
ffffffff80003104:	48 89 e8             	mov    rax,rbp
ffffffff80003107:	4c 01 f0             	add    rax,r14
ffffffff8000310a:	0f 82 dc fb ff ff    	jb     ffffffff80002cec <heap_tests+0x32c>
ffffffff80003110:	48 89 ee             	mov    rsi,rbp
ffffffff80003113:	48 c7 c7 00 ea 00 80 	mov    rdi,0xffffffff8000ea00
ffffffff8000311a:	44 89 44 24 10       	mov    DWORD PTR [rsp+0x10],r8d
ffffffff8000311f:	e8 6c 29 00 00       	call   ffffffff80005a90 <__ubsan_handle_type_mismatch_v1>
ffffffff80003124:	44 8b 44 24 10       	mov    r8d,DWORD PTR [rsp+0x10]
ffffffff80003129:	e9 be fb ff ff       	jmp    ffffffff80002cec <heap_tests+0x32c>
ffffffff8000312e:	66 90                	xchg   ax,ax

ffffffff80003130 <kmain>:
ffffffff80003130:	48 8b 05 69 cf ff ff 	mov    rax,QWORD PTR [rip+0xffffffffffffcf69]        # ffffffff800000a0 <limine_base_revision+0x10>
ffffffff80003137:	48 85 c0             	test   rax,rax
ffffffff8000313a:	75 4c                	jne    ffffffff80003188 <kmain+0x58>
ffffffff8000313c:	48 83 ec 58          	sub    rsp,0x58
ffffffff80003140:	48 8b 05 41 cf ff ff 	mov    rax,QWORD PTR [rip+0xffffffffffffcf41]        # ffffffff80000088 <framebuffer_request+0x28>
ffffffff80003147:	48 85 c0             	test   rax,rax
ffffffff8000314a:	74 34                	je     ffffffff80003180 <kmain+0x50>
ffffffff8000314c:	48 8b 05 35 cf ff ff 	mov    rax,QWORD PTR [rip+0xffffffffffffcf35]        # ffffffff80000088 <framebuffer_request+0x28>
ffffffff80003153:	48 85 c0             	test   rax,rax
ffffffff80003156:	0f 84 25 01 00 00    	je     ffffffff80003281 <kmain+0x151>
ffffffff8000315c:	a8 07                	test   al,0x7
ffffffff8000315e:	0f 85 1d 01 00 00    	jne    ffffffff80003281 <kmain+0x151>
ffffffff80003164:	48 8d 50 08          	lea    rdx,[rax+0x8]
ffffffff80003168:	48 83 f8 f8          	cmp    rax,0xfffffffffffffff8
ffffffff8000316c:	0f 83 2d 01 00 00    	jae    ffffffff8000329f <kmain+0x16f>
ffffffff80003172:	48 83 78 08 00       	cmp    QWORD PTR [rax+0x8],0x0
ffffffff80003177:	75 12                	jne    ffffffff8000318b <kmain+0x5b>
ffffffff80003179:	0f 1f 80 00 00 00 00 	nop    DWORD PTR [rax+0x0]
ffffffff80003180:	f4                   	hlt
ffffffff80003181:	eb fd                	jmp    ffffffff80003180 <kmain+0x50>
ffffffff80003183:	0f 1f 44 00 00       	nop    DWORD PTR [rax+rax*1+0x0]
ffffffff80003188:	f4                   	hlt
ffffffff80003189:	eb fd                	jmp    ffffffff80003188 <kmain+0x58>
ffffffff8000318b:	48 8b 05 f6 ce ff ff 	mov    rax,QWORD PTR [rip+0xffffffffffffcef6]        # ffffffff80000088 <framebuffer_request+0x28>
ffffffff80003192:	48 85 c0             	test   rax,rax
ffffffff80003195:	0f 84 c8 00 00 00    	je     ffffffff80003263 <kmain+0x133>
ffffffff8000319b:	a8 07                	test   al,0x7
ffffffff8000319d:	0f 85 c0 00 00 00    	jne    ffffffff80003263 <kmain+0x133>
ffffffff800031a3:	48 8d 50 10          	lea    rdx,[rax+0x10]
ffffffff800031a7:	48 83 f8 f0          	cmp    rax,0xfffffffffffffff0
ffffffff800031ab:	0f 83 2a 01 00 00    	jae    ffffffff800032db <kmain+0x1ab>
ffffffff800031b1:	48 8b 50 10          	mov    rdx,QWORD PTR [rax+0x10]
ffffffff800031b5:	48 85 d2             	test   rdx,rdx
ffffffff800031b8:	0f 84 ff 00 00 00    	je     ffffffff800032bd <kmain+0x18d>
ffffffff800031be:	f6 c2 07             	test   dl,0x7
ffffffff800031c1:	0f 85 f6 00 00 00    	jne    ffffffff800032bd <kmain+0x18d>
ffffffff800031c7:	48 8b 32             	mov    rsi,QWORD PTR [rdx]
ffffffff800031ca:	48 8d 7c 24 10       	lea    rdi,[rsp+0x10]
ffffffff800031cf:	e8 cc 68 00 00       	call   ffffffff80009aa0 <term_new>
ffffffff800031d4:	b9 0e 00 00 00       	mov    ecx,0xe
ffffffff800031d9:	48 8d 74 24 10       	lea    rsi,[rsp+0x10]
ffffffff800031de:	48 c7 c7 e0 2e 01 80 	mov    rdi,0xffffffff80012ee0
ffffffff800031e5:	f3 a5                	rep movs DWORD PTR es:[rdi],DWORD PTR ds:[rsi]
ffffffff800031e7:	e8 14 de ff ff       	call   ffffffff80001000 <serial_init>
ffffffff800031ec:	e8 7f 45 00 00       	call   ffffffff80007770 <idt_init>
ffffffff800031f1:	e8 ca 3d 00 00       	call   ffffffff80006fc0 <except_init>
ffffffff800031f6:	e8 65 4f 00 00       	call   ffffffff80008160 <irq_init>
ffffffff800031fb:	48 c7 c6 a0 27 00 80 	mov    rsi,0xffffffff800027a0
ffffffff80003202:	bf 20 00 00 00       	mov    edi,0x20
ffffffff80003207:	e8 84 4f 00 00       	call   ffffffff80008190 <irq_register_handler>
ffffffff8000320c:	e8 df 0d 00 00       	call   ffffffff80003ff0 <pmm_init>
ffffffff80003211:	e8 7a 22 00 00       	call   ffffffff80005490 <vmm_init>
ffffffff80003216:	e8 85 03 00 00       	call   ffffffff800035a0 <heap_init>
ffffffff8000321b:	e8 a0 f7 ff ff       	call   ffffffff800029c0 <heap_tests>
ffffffff80003220:	e8 4b 0b 00 00       	call   ffffffff80003d70 <heap_status>
ffffffff80003225:	e8 f6 0a 00 00       	call   ffffffff80003d20 <heap_clear>
ffffffff8000322a:	e8 71 35 00 00       	call   ffffffff800067a0 <acpi_init>
ffffffff8000322f:	e8 ec 57 00 00       	call   ffffffff80008a20 <madt_init>
ffffffff80003234:	e8 17 57 00 00       	call   ffffffff80008950 <lapic_init>
ffffffff80003239:	48 c7 c7 30 29 00 80 	mov    rdi,0xffffffff80002930
ffffffff80003240:	e8 3b 5e 00 00       	call   ffffffff80009080 <proc_enqueue>
ffffffff80003245:	48 c7 c7 70 29 00 80 	mov    rdi,0xffffffff80002970
ffffffff8000324c:	e8 2f 5e 00 00       	call   ffffffff80009080 <proc_enqueue>
ffffffff80003251:	66 66 2e 0f 1f 84 00 	data16 cs nop WORD PTR [rax+rax*1+0x0]
ffffffff80003258:	00 00 00 00 
ffffffff8000325c:	0f 1f 40 00          	nop    DWORD PTR [rax+0x0]
ffffffff80003260:	fb                   	sti
ffffffff80003261:	eb fd                	jmp    ffffffff80003260 <kmain+0x130>
ffffffff80003263:	48 89 c6             	mov    rsi,rax
ffffffff80003266:	48 c7 c7 00 e9 00 80 	mov    rdi,0xffffffff8000e900
ffffffff8000326d:	48 89 44 24 08       	mov    QWORD PTR [rsp+0x8],rax
ffffffff80003272:	e8 19 28 00 00       	call   ffffffff80005a90 <__ubsan_handle_type_mismatch_v1>
ffffffff80003277:	48 8b 44 24 08       	mov    rax,QWORD PTR [rsp+0x8]
ffffffff8000327c:	e9 22 ff ff ff       	jmp    ffffffff800031a3 <kmain+0x73>
ffffffff80003281:	48 89 c6             	mov    rsi,rax
ffffffff80003284:	48 c7 c7 40 e9 00 80 	mov    rdi,0xffffffff8000e940
ffffffff8000328b:	48 89 44 24 08       	mov    QWORD PTR [rsp+0x8],rax
ffffffff80003290:	e8 fb 27 00 00       	call   ffffffff80005a90 <__ubsan_handle_type_mismatch_v1>
ffffffff80003295:	48 8b 44 24 08       	mov    rax,QWORD PTR [rsp+0x8]
ffffffff8000329a:	e9 c5 fe ff ff       	jmp    ffffffff80003164 <kmain+0x34>
ffffffff8000329f:	48 89 c6             	mov    rsi,rax
ffffffff800032a2:	48 c7 c7 20 e9 00 80 	mov    rdi,0xffffffff8000e920
ffffffff800032a9:	48 89 44 24 08       	mov    QWORD PTR [rsp+0x8],rax
ffffffff800032ae:	e8 2d 30 00 00       	call   ffffffff800062e0 <__ubsan_handle_pointer_overflow>
ffffffff800032b3:	48 8b 44 24 08       	mov    rax,QWORD PTR [rsp+0x8]
ffffffff800032b8:	e9 b5 fe ff ff       	jmp    ffffffff80003172 <kmain+0x42>
ffffffff800032bd:	48 89 d6             	mov    rsi,rdx
ffffffff800032c0:	48 c7 c7 a0 e8 00 80 	mov    rdi,0xffffffff8000e8a0
ffffffff800032c7:	48 89 54 24 08       	mov    QWORD PTR [rsp+0x8],rdx
ffffffff800032cc:	e8 bf 27 00 00       	call   ffffffff80005a90 <__ubsan_handle_type_mismatch_v1>
ffffffff800032d1:	48 8b 54 24 08       	mov    rdx,QWORD PTR [rsp+0x8]
ffffffff800032d6:	e9 ec fe ff ff       	jmp    ffffffff800031c7 <kmain+0x97>
ffffffff800032db:	48 89 c6             	mov    rsi,rax
ffffffff800032de:	48 c7 c7 f0 e8 00 80 	mov    rdi,0xffffffff8000e8f0
ffffffff800032e5:	48 89 44 24 08       	mov    QWORD PTR [rsp+0x8],rax
ffffffff800032ea:	e8 f1 2f 00 00       	call   ffffffff800062e0 <__ubsan_handle_pointer_overflow>
ffffffff800032ef:	48 8b 44 24 08       	mov    rax,QWORD PTR [rsp+0x8]
ffffffff800032f4:	e9 b8 fe ff ff       	jmp    ffffffff800031b1 <kmain+0x81>
ffffffff800032f9:	0f 1f 80 00 00 00 00 	nop    DWORD PTR [rax+0x0]

ffffffff80003300 <kfree.part.0>:
ffffffff80003300:	48 83 ec 28          	sub    rsp,0x28
ffffffff80003304:	48 89 f9             	mov    rcx,rdi
ffffffff80003307:	eb 09                	jmp    ffffffff80003312 <kfree.part.0+0x12>
ffffffff80003309:	0f 1f 80 00 00 00 00 	nop    DWORD PTR [rax+0x0]
ffffffff80003310:	f3 90                	pause
ffffffff80003312:	b8 01 00 00 00       	mov    eax,0x1
ffffffff80003317:	86 05 fc fb 00 00    	xchg   BYTE PTR [rip+0xfbfc],al        # ffffffff80012f19 <heap_lock>
ffffffff8000331d:	84 c0                	test   al,al
ffffffff8000331f:	75 ef                	jne    ffffffff80003310 <kfree.part.0+0x10>
ffffffff80003321:	fa                   	cli
ffffffff80003322:	48 8d 41 e8          	lea    rax,[rcx-0x18]
ffffffff80003326:	48 83 f9 18          	cmp    rcx,0x18
ffffffff8000332a:	0f 82 1a 01 00 00    	jb     ffffffff8000344a <kfree.part.0+0x14a>
ffffffff80003330:	48 85 c0             	test   rax,rax
ffffffff80003333:	0f 84 eb 00 00 00    	je     ffffffff80003424 <kfree.part.0+0x124>
ffffffff80003339:	a8 07                	test   al,0x7
ffffffff8000333b:	0f 85 e3 00 00 00    	jne    ffffffff80003424 <kfree.part.0+0x124>
ffffffff80003341:	48 8d 50 10          	lea    rdx,[rax+0x10]
ffffffff80003345:	48 83 f8 f0          	cmp    rax,0xfffffffffffffff0
ffffffff80003349:	0f 83 af 00 00 00    	jae    ffffffff800033fe <kfree.part.0+0xfe>
ffffffff8000334f:	4c 8b 41 f8          	mov    r8,QWORD PTR [rcx-0x8]
ffffffff80003353:	4d 85 c0             	test   r8,r8
ffffffff80003356:	0f 84 84 00 00 00    	je     ffffffff800033e0 <kfree.part.0+0xe0>
ffffffff8000335c:	48 85 c0             	test   rax,rax
ffffffff8000335f:	0f 84 e2 01 00 00    	je     ffffffff80003547 <kfree.part.0+0x247>
ffffffff80003365:	a8 07                	test   al,0x7
ffffffff80003367:	0f 85 da 01 00 00    	jne    ffffffff80003547 <kfree.part.0+0x247>
ffffffff8000336d:	48 85 c0             	test   rax,rax
ffffffff80003370:	0f 84 a1 01 00 00    	je     ffffffff80003517 <kfree.part.0+0x217>
ffffffff80003376:	a8 07                	test   al,0x7
ffffffff80003378:	0f 85 99 01 00 00    	jne    ffffffff80003517 <kfree.part.0+0x217>
ffffffff8000337e:	4c 8b 49 f0          	mov    r9,QWORD PTR [rcx-0x10]
ffffffff80003382:	4d 85 c0             	test   r8,r8
ffffffff80003385:	0f 84 52 01 00 00    	je     ffffffff800034dd <kfree.part.0+0x1dd>
ffffffff8000338b:	41 f6 c0 07          	test   r8b,0x7
ffffffff8000338f:	0f 85 48 01 00 00    	jne    ffffffff800034dd <kfree.part.0+0x1dd>
ffffffff80003395:	49 8d 50 08          	lea    rdx,[r8+0x8]
ffffffff80003399:	49 83 f8 f8          	cmp    r8,0xfffffffffffffff8
ffffffff8000339d:	0f 83 00 01 00 00    	jae    ffffffff800034a3 <kfree.part.0+0x1a3>
ffffffff800033a3:	4d 89 48 08          	mov    QWORD PTR [r8+0x8],r9
ffffffff800033a7:	48 8b 15 72 fb 00 00 	mov    rdx,QWORD PTR [rip+0xfb72]        # ffffffff80012f20 <free_list>
ffffffff800033ae:	48 85 c0             	test   rax,rax
ffffffff800033b1:	0f 84 bc 00 00 00    	je     ffffffff80003473 <kfree.part.0+0x173>
ffffffff800033b7:	a8 07                	test   al,0x7
ffffffff800033b9:	0f 85 b4 00 00 00    	jne    ffffffff80003473 <kfree.part.0+0x173>
ffffffff800033bf:	48 89 51 f0          	mov    QWORD PTR [rcx-0x10],rdx
ffffffff800033c3:	48 89 05 56 fb 00 00 	mov    QWORD PTR [rip+0xfb56],rax        # ffffffff80012f20 <free_list>
ffffffff800033ca:	c6 05 48 fb 00 00 00 	mov    BYTE PTR [rip+0xfb48],0x0        # ffffffff80012f19 <heap_lock>
ffffffff800033d1:	fb                   	sti
ffffffff800033d2:	48 83 c4 28          	add    rsp,0x28
ffffffff800033d6:	c3                   	ret
ffffffff800033d7:	66 0f 1f 84 00 00 00 	nop    WORD PTR [rax+rax*1+0x0]
ffffffff800033de:	00 00 
ffffffff800033e0:	48 85 c0             	test   rax,rax
ffffffff800033e3:	0f 84 8e 01 00 00    	je     ffffffff80003577 <kfree.part.0+0x277>
ffffffff800033e9:	a8 07                	test   al,0x7
ffffffff800033eb:	0f 85 86 01 00 00    	jne    ffffffff80003577 <kfree.part.0+0x277>
ffffffff800033f1:	48 8b 51 f0          	mov    rdx,QWORD PTR [rcx-0x10]
ffffffff800033f5:	48 89 15 2c fb 00 00 	mov    QWORD PTR [rip+0xfb2c],rdx        # ffffffff80012f28 <used_list>
ffffffff800033fc:	eb a9                	jmp    ffffffff800033a7 <kfree.part.0+0xa7>
ffffffff800033fe:	48 89 c6             	mov    rsi,rax
ffffffff80003401:	48 c7 c7 00 f0 00 80 	mov    rdi,0xffffffff8000f000
ffffffff80003408:	48 89 4c 24 08       	mov    QWORD PTR [rsp+0x8],rcx
ffffffff8000340d:	48 89 04 24          	mov    QWORD PTR [rsp],rax
ffffffff80003411:	e8 ca 2e 00 00       	call   ffffffff800062e0 <__ubsan_handle_pointer_overflow>
ffffffff80003416:	48 8b 4c 24 08       	mov    rcx,QWORD PTR [rsp+0x8]
ffffffff8000341b:	48 8b 04 24          	mov    rax,QWORD PTR [rsp]
ffffffff8000341f:	e9 2b ff ff ff       	jmp    ffffffff8000334f <kfree.part.0+0x4f>
ffffffff80003424:	48 89 c6             	mov    rsi,rax
ffffffff80003427:	48 c7 c7 20 f0 00 80 	mov    rdi,0xffffffff8000f020
ffffffff8000342e:	48 89 4c 24 08       	mov    QWORD PTR [rsp+0x8],rcx
ffffffff80003433:	48 89 04 24          	mov    QWORD PTR [rsp],rax
ffffffff80003437:	e8 54 26 00 00       	call   ffffffff80005a90 <__ubsan_handle_type_mismatch_v1>
ffffffff8000343c:	48 8b 4c 24 08       	mov    rcx,QWORD PTR [rsp+0x8]
ffffffff80003441:	48 8b 04 24          	mov    rax,QWORD PTR [rsp]
ffffffff80003445:	e9 f7 fe ff ff       	jmp    ffffffff80003341 <kfree.part.0+0x41>
ffffffff8000344a:	48 89 c2             	mov    rdx,rax
ffffffff8000344d:	48 89 ce             	mov    rsi,rcx
ffffffff80003450:	48 c7 c7 60 f0 00 80 	mov    rdi,0xffffffff8000f060
ffffffff80003457:	48 89 44 24 08       	mov    QWORD PTR [rsp+0x8],rax
ffffffff8000345c:	48 89 0c 24          	mov    QWORD PTR [rsp],rcx
ffffffff80003460:	e8 7b 2e 00 00       	call   ffffffff800062e0 <__ubsan_handle_pointer_overflow>
ffffffff80003465:	48 8b 44 24 08       	mov    rax,QWORD PTR [rsp+0x8]
ffffffff8000346a:	48 8b 0c 24          	mov    rcx,QWORD PTR [rsp]
ffffffff8000346e:	e9 bd fe ff ff       	jmp    ffffffff80003330 <kfree.part.0+0x30>
ffffffff80003473:	48 89 c6             	mov    rsi,rax
ffffffff80003476:	48 c7 c7 40 ef 00 80 	mov    rdi,0xffffffff8000ef40
ffffffff8000347d:	48 89 4c 24 10       	mov    QWORD PTR [rsp+0x10],rcx
ffffffff80003482:	48 89 54 24 08       	mov    QWORD PTR [rsp+0x8],rdx
ffffffff80003487:	48 89 04 24          	mov    QWORD PTR [rsp],rax
ffffffff8000348b:	e8 00 26 00 00       	call   ffffffff80005a90 <__ubsan_handle_type_mismatch_v1>
ffffffff80003490:	48 8b 4c 24 10       	mov    rcx,QWORD PTR [rsp+0x10]
ffffffff80003495:	48 8b 54 24 08       	mov    rdx,QWORD PTR [rsp+0x8]
ffffffff8000349a:	48 8b 04 24          	mov    rax,QWORD PTR [rsp]
ffffffff8000349e:	e9 1c ff ff ff       	jmp    ffffffff800033bf <kfree.part.0+0xbf>
ffffffff800034a3:	4c 89 c6             	mov    rsi,r8
ffffffff800034a6:	48 c7 c7 80 ef 00 80 	mov    rdi,0xffffffff8000ef80
ffffffff800034ad:	48 89 4c 24 18       	mov    QWORD PTR [rsp+0x18],rcx
ffffffff800034b2:	48 89 44 24 10       	mov    QWORD PTR [rsp+0x10],rax
ffffffff800034b7:	4c 89 4c 24 08       	mov    QWORD PTR [rsp+0x8],r9
ffffffff800034bc:	4c 89 04 24          	mov    QWORD PTR [rsp],r8
ffffffff800034c0:	e8 1b 2e 00 00       	call   ffffffff800062e0 <__ubsan_handle_pointer_overflow>
ffffffff800034c5:	48 8b 4c 24 18       	mov    rcx,QWORD PTR [rsp+0x18]
ffffffff800034ca:	48 8b 44 24 10       	mov    rax,QWORD PTR [rsp+0x10]
ffffffff800034cf:	4c 8b 4c 24 08       	mov    r9,QWORD PTR [rsp+0x8]
ffffffff800034d4:	4c 8b 04 24          	mov    r8,QWORD PTR [rsp]
ffffffff800034d8:	e9 c6 fe ff ff       	jmp    ffffffff800033a3 <kfree.part.0+0xa3>
ffffffff800034dd:	4c 89 c6             	mov    rsi,r8
ffffffff800034e0:	48 c7 c7 a0 ef 00 80 	mov    rdi,0xffffffff8000efa0
ffffffff800034e7:	48 89 4c 24 18       	mov    QWORD PTR [rsp+0x18],rcx
ffffffff800034ec:	48 89 44 24 10       	mov    QWORD PTR [rsp+0x10],rax
ffffffff800034f1:	4c 89 4c 24 08       	mov    QWORD PTR [rsp+0x8],r9
ffffffff800034f6:	4c 89 04 24          	mov    QWORD PTR [rsp],r8
ffffffff800034fa:	e8 91 25 00 00       	call   ffffffff80005a90 <__ubsan_handle_type_mismatch_v1>
ffffffff800034ff:	48 8b 4c 24 18       	mov    rcx,QWORD PTR [rsp+0x18]
ffffffff80003504:	48 8b 44 24 10       	mov    rax,QWORD PTR [rsp+0x10]
ffffffff80003509:	4c 8b 4c 24 08       	mov    r9,QWORD PTR [rsp+0x8]
ffffffff8000350e:	4c 8b 04 24          	mov    r8,QWORD PTR [rsp]
ffffffff80003512:	e9 7e fe ff ff       	jmp    ffffffff80003395 <kfree.part.0+0x95>
ffffffff80003517:	48 89 c6             	mov    rsi,rax
ffffffff8000351a:	48 c7 c7 c0 ef 00 80 	mov    rdi,0xffffffff8000efc0
ffffffff80003521:	48 89 4c 24 10       	mov    QWORD PTR [rsp+0x10],rcx
ffffffff80003526:	4c 89 44 24 08       	mov    QWORD PTR [rsp+0x8],r8
ffffffff8000352b:	48 89 04 24          	mov    QWORD PTR [rsp],rax
ffffffff8000352f:	e8 5c 25 00 00       	call   ffffffff80005a90 <__ubsan_handle_type_mismatch_v1>
ffffffff80003534:	48 8b 4c 24 10       	mov    rcx,QWORD PTR [rsp+0x10]
ffffffff80003539:	4c 8b 44 24 08       	mov    r8,QWORD PTR [rsp+0x8]
ffffffff8000353e:	48 8b 04 24          	mov    rax,QWORD PTR [rsp]
ffffffff80003542:	e9 37 fe ff ff       	jmp    ffffffff8000337e <kfree.part.0+0x7e>
ffffffff80003547:	48 89 c6             	mov    rsi,rax
ffffffff8000354a:	48 c7 c7 e0 ef 00 80 	mov    rdi,0xffffffff8000efe0
ffffffff80003551:	48 89 4c 24 10       	mov    QWORD PTR [rsp+0x10],rcx
ffffffff80003556:	4c 89 44 24 08       	mov    QWORD PTR [rsp+0x8],r8
ffffffff8000355b:	48 89 04 24          	mov    QWORD PTR [rsp],rax
ffffffff8000355f:	e8 2c 25 00 00       	call   ffffffff80005a90 <__ubsan_handle_type_mismatch_v1>
ffffffff80003564:	48 8b 4c 24 10       	mov    rcx,QWORD PTR [rsp+0x10]
ffffffff80003569:	4c 8b 44 24 08       	mov    r8,QWORD PTR [rsp+0x8]
ffffffff8000356e:	48 8b 04 24          	mov    rax,QWORD PTR [rsp]
ffffffff80003572:	e9 f6 fd ff ff       	jmp    ffffffff8000336d <kfree.part.0+0x6d>
ffffffff80003577:	48 89 c6             	mov    rsi,rax
ffffffff8000357a:	48 c7 c7 60 ef 00 80 	mov    rdi,0xffffffff8000ef60
ffffffff80003581:	48 89 4c 24 08       	mov    QWORD PTR [rsp+0x8],rcx
ffffffff80003586:	48 89 04 24          	mov    QWORD PTR [rsp],rax
ffffffff8000358a:	e8 01 25 00 00       	call   ffffffff80005a90 <__ubsan_handle_type_mismatch_v1>
ffffffff8000358f:	48 8b 4c 24 08       	mov    rcx,QWORD PTR [rsp+0x8]
ffffffff80003594:	48 8b 04 24          	mov    rax,QWORD PTR [rsp]
ffffffff80003598:	e9 54 fe ff ff       	jmp    ffffffff800033f1 <kfree.part.0+0xf1>
ffffffff8000359d:	0f 1f 00             	nop    DWORD PTR [rax]

ffffffff800035a0 <heap_init>:
ffffffff800035a0:	48 83 ec 18          	sub    rsp,0x18
ffffffff800035a4:	48 8b 3d c5 ba 00 00 	mov    rdi,QWORD PTR [rip+0xbac5]        # ffffffff8000f070 <pages>
ffffffff800035ab:	e8 f0 13 00 00       	call   ffffffff800049a0 <pmm_alloc>
ffffffff800035b0:	48 c7 c2 c0 00 00 80 	mov    rdx,0xffffffff800000c0
ffffffff800035b7:	48 83 fa d8          	cmp    rdx,0xffffffffffffffd8
ffffffff800035bb:	0f 83 d6 00 00 00    	jae    ffffffff80003697 <heap_init+0xf7>
ffffffff800035c1:	48 8b 0d 20 cb ff ff 	mov    rcx,QWORD PTR [rip+0xffffffffffffcb20]        # ffffffff800000e8 <hhdm_request+0x28>
ffffffff800035c8:	48 85 c9             	test   rcx,rcx
ffffffff800035cb:	0f 84 a0 00 00 00    	je     ffffffff80003671 <heap_init+0xd1>
ffffffff800035d1:	f6 c1 07             	test   cl,0x7
ffffffff800035d4:	0f 85 97 00 00 00    	jne    ffffffff80003671 <heap_init+0xd1>
ffffffff800035da:	48 8d 51 08          	lea    rdx,[rcx+0x8]
ffffffff800035de:	48 83 f9 f8          	cmp    rcx,0xfffffffffffffff8
ffffffff800035e2:	73 67                	jae    ffffffff8000364b <heap_init+0xab>
ffffffff800035e4:	48 8b 15 85 ba 00 00 	mov    rdx,QWORD PTR [rip+0xba85]        # ffffffff8000f070 <pages>
ffffffff800035eb:	48 03 41 08          	add    rax,QWORD PTR [rcx+0x8]
ffffffff800035ef:	48 89 05 4a f9 00 00 	mov    QWORD PTR [rip+0xf94a],rax        # ffffffff80012f40 <base>
ffffffff800035f6:	48 c1 e2 0c          	shl    rdx,0xc
ffffffff800035fa:	48 8d 0c 10          	lea    rcx,[rax+rdx*1]
ffffffff800035fe:	78 20                	js     ffffffff80003620 <heap_init+0x80>
ffffffff80003600:	48 39 c1             	cmp    rcx,rax
ffffffff80003603:	72 20                	jb     ffffffff80003625 <heap_init+0x85>
ffffffff80003605:	48 89 0d 2c f9 00 00 	mov    QWORD PTR [rip+0xf92c],rcx        # ffffffff80012f38 <end>
ffffffff8000360c:	48 89 05 1d f9 00 00 	mov    QWORD PTR [rip+0xf91d],rax        # ffffffff80012f30 <current>
ffffffff80003613:	48 83 c4 18          	add    rsp,0x18
ffffffff80003617:	c3                   	ret
ffffffff80003618:	0f 1f 84 00 00 00 00 	nop    DWORD PTR [rax+rax*1+0x0]
ffffffff8000361f:	00 
ffffffff80003620:	48 39 c8             	cmp    rax,rcx
ffffffff80003623:	73 e0                	jae    ffffffff80003605 <heap_init+0x65>
ffffffff80003625:	48 89 ca             	mov    rdx,rcx
ffffffff80003628:	48 89 c6             	mov    rsi,rax
ffffffff8000362b:	48 c7 c7 c0 ee 00 80 	mov    rdi,0xffffffff8000eec0
ffffffff80003632:	48 89 4c 24 08       	mov    QWORD PTR [rsp+0x8],rcx
ffffffff80003637:	48 89 04 24          	mov    QWORD PTR [rsp],rax
ffffffff8000363b:	e8 a0 2c 00 00       	call   ffffffff800062e0 <__ubsan_handle_pointer_overflow>
ffffffff80003640:	48 8b 04 24          	mov    rax,QWORD PTR [rsp]
ffffffff80003644:	48 8b 4c 24 08       	mov    rcx,QWORD PTR [rsp+0x8]
ffffffff80003649:	eb ba                	jmp    ffffffff80003605 <heap_init+0x65>
ffffffff8000364b:	48 89 ce             	mov    rsi,rcx
ffffffff8000364e:	48 c7 c7 d0 ee 00 80 	mov    rdi,0xffffffff8000eed0
ffffffff80003655:	48 89 44 24 08       	mov    QWORD PTR [rsp+0x8],rax
ffffffff8000365a:	48 89 0c 24          	mov    QWORD PTR [rsp],rcx
ffffffff8000365e:	e8 7d 2c 00 00       	call   ffffffff800062e0 <__ubsan_handle_pointer_overflow>
ffffffff80003663:	48 8b 44 24 08       	mov    rax,QWORD PTR [rsp+0x8]
ffffffff80003668:	48 8b 0c 24          	mov    rcx,QWORD PTR [rsp]
ffffffff8000366c:	e9 73 ff ff ff       	jmp    ffffffff800035e4 <heap_init+0x44>
ffffffff80003671:	48 89 ce             	mov    rsi,rcx
ffffffff80003674:	48 c7 c7 e0 ee 00 80 	mov    rdi,0xffffffff8000eee0
ffffffff8000367b:	48 89 44 24 08       	mov    QWORD PTR [rsp+0x8],rax
ffffffff80003680:	48 89 0c 24          	mov    QWORD PTR [rsp],rcx
ffffffff80003684:	e8 07 24 00 00       	call   ffffffff80005a90 <__ubsan_handle_type_mismatch_v1>
ffffffff80003689:	48 8b 44 24 08       	mov    rax,QWORD PTR [rsp+0x8]
ffffffff8000368e:	48 8b 0c 24          	mov    rcx,QWORD PTR [rsp]
ffffffff80003692:	e9 43 ff ff ff       	jmp    ffffffff800035da <heap_init+0x3a>
ffffffff80003697:	48 c7 c2 e8 00 00 80 	mov    rdx,0xffffffff800000e8
ffffffff8000369e:	48 c7 c6 c0 00 00 80 	mov    rsi,0xffffffff800000c0
ffffffff800036a5:	48 c7 c7 30 ef 00 80 	mov    rdi,0xffffffff8000ef30
ffffffff800036ac:	48 89 04 24          	mov    QWORD PTR [rsp],rax
ffffffff800036b0:	e8 2b 2c 00 00       	call   ffffffff800062e0 <__ubsan_handle_pointer_overflow>
ffffffff800036b5:	48 8b 04 24          	mov    rax,QWORD PTR [rsp]
ffffffff800036b9:	e9 03 ff ff ff       	jmp    ffffffff800035c1 <heap_init+0x21>
ffffffff800036be:	66 90                	xchg   ax,ax

ffffffff800036c0 <kmalloc>:
ffffffff800036c0:	31 c0                	xor    eax,eax
ffffffff800036c2:	48 85 ff             	test   rdi,rdi
ffffffff800036c5:	0f 84 f5 01 00 00    	je     ffffffff800038c0 <kmalloc+0x200>
ffffffff800036cb:	48 83 ec 28          	sub    rsp,0x28
ffffffff800036cf:	eb 11                	jmp    ffffffff800036e2 <kmalloc+0x22>
ffffffff800036d1:	66 66 2e 0f 1f 84 00 	data16 cs nop WORD PTR [rax+rax*1+0x0]
ffffffff800036d8:	00 00 00 00 
ffffffff800036dc:	0f 1f 40 00          	nop    DWORD PTR [rax+0x0]
ffffffff800036e0:	f3 90                	pause
ffffffff800036e2:	b8 01 00 00 00       	mov    eax,0x1
ffffffff800036e7:	86 05 2c f8 00 00    	xchg   BYTE PTR [rip+0xf82c],al        # ffffffff80012f19 <heap_lock>
ffffffff800036ed:	84 c0                	test   al,al
ffffffff800036ef:	75 ef                	jne    ffffffff800036e0 <kmalloc+0x20>
ffffffff800036f1:	49 89 f8             	mov    r8,rdi
ffffffff800036f4:	fa                   	cli
ffffffff800036f5:	48 8b 0d 24 f8 00 00 	mov    rcx,QWORD PTR [rip+0xf824]        # ffffffff80012f20 <free_list>
ffffffff800036fc:	48 85 c9             	test   rcx,rcx
ffffffff800036ff:	75 33                	jne    ffffffff80003734 <kmalloc+0x74>
ffffffff80003701:	e9 ca 00 00 00       	jmp    ffffffff800037d0 <kmalloc+0x110>
ffffffff80003706:	66 2e 0f 1f 84 00 00 	cs nop WORD PTR [rax+rax*1+0x0]
ffffffff8000370d:	00 00 00 
ffffffff80003710:	f6 c1 07             	test   cl,0x7
ffffffff80003713:	0f 85 b0 02 00 00    	jne    ffffffff800039c9 <kmalloc+0x309>
ffffffff80003719:	48 8d 51 08          	lea    rdx,[rcx+0x8]
ffffffff8000371d:	48 83 f9 f8          	cmp    rcx,0xfffffffffffffff8
ffffffff80003721:	0f 83 7a 02 00 00    	jae    ffffffff800039a1 <kmalloc+0x2e1>
ffffffff80003727:	48 8b 49 08          	mov    rcx,QWORD PTR [rcx+0x8]
ffffffff8000372b:	48 85 c9             	test   rcx,rcx
ffffffff8000372e:	0f 84 9c 00 00 00    	je     ffffffff800037d0 <kmalloc+0x110>
ffffffff80003734:	f6 c1 07             	test   cl,0x7
ffffffff80003737:	0f 85 3c 02 00 00    	jne    ffffffff80003979 <kmalloc+0x2b9>
ffffffff8000373d:	4c 39 01             	cmp    QWORD PTR [rcx],r8
ffffffff80003740:	72 ce                	jb     ffffffff80003710 <kmalloc+0x50>
ffffffff80003742:	f6 c1 07             	test   cl,0x7
ffffffff80003745:	0f 85 33 04 00 00    	jne    ffffffff80003b7e <kmalloc+0x4be>
ffffffff8000374b:	48 8d 51 10          	lea    rdx,[rcx+0x10]
ffffffff8000374f:	48 83 f9 f0          	cmp    rcx,0xfffffffffffffff0
ffffffff80003753:	0f 83 43 04 00 00    	jae    ffffffff80003b9c <kmalloc+0x4dc>
ffffffff80003759:	48 8b 41 10          	mov    rax,QWORD PTR [rcx+0x10]
ffffffff8000375d:	48 85 c0             	test   rax,rax
ffffffff80003760:	0f 84 fa 01 00 00    	je     ffffffff80003960 <kmalloc+0x2a0>
ffffffff80003766:	f6 c1 07             	test   cl,0x7
ffffffff80003769:	0f 85 c5 03 00 00    	jne    ffffffff80003b34 <kmalloc+0x474>
ffffffff8000376f:	4c 8b 41 08          	mov    r8,QWORD PTR [rcx+0x8]
ffffffff80003773:	48 85 c0             	test   rax,rax
ffffffff80003776:	0f 84 54 03 00 00    	je     ffffffff80003ad0 <kmalloc+0x410>
ffffffff8000377c:	a8 07                	test   al,0x7
ffffffff8000377e:	0f 85 4c 03 00 00    	jne    ffffffff80003ad0 <kmalloc+0x410>
ffffffff80003784:	48 8d 50 08          	lea    rdx,[rax+0x8]
ffffffff80003788:	48 83 f8 f8          	cmp    rax,0xfffffffffffffff8
ffffffff8000378c:	0f 83 70 03 00 00    	jae    ffffffff80003b02 <kmalloc+0x442>
ffffffff80003792:	4c 89 40 08          	mov    QWORD PTR [rax+0x8],r8
ffffffff80003796:	48 8b 05 8b f7 00 00 	mov    rax,QWORD PTR [rip+0xf78b]        # ffffffff80012f28 <used_list>
ffffffff8000379d:	f6 c1 07             	test   cl,0x7
ffffffff800037a0:	0f 85 e4 02 00 00    	jne    ffffffff80003a8a <kmalloc+0x3ca>
ffffffff800037a6:	48 89 41 08          	mov    QWORD PTR [rcx+0x8],rax
ffffffff800037aa:	48 89 0d 77 f7 00 00 	mov    QWORD PTR [rip+0xf777],rcx        # ffffffff80012f28 <used_list>
ffffffff800037b1:	c6 05 61 f7 00 00 00 	mov    BYTE PTR [rip+0xf761],0x0        # ffffffff80012f19 <heap_lock>
ffffffff800037b8:	fb                   	sti
ffffffff800037b9:	48 8d 41 18          	lea    rax,[rcx+0x18]
ffffffff800037bd:	48 83 f9 e8          	cmp    rcx,0xffffffffffffffe8
ffffffff800037c1:	0f 83 2a 02 00 00    	jae    ffffffff800039f1 <kmalloc+0x331>
ffffffff800037c7:	48 83 c4 28          	add    rsp,0x28
ffffffff800037cb:	c3                   	ret
ffffffff800037cc:	0f 1f 40 00          	nop    DWORD PTR [rax+0x0]
ffffffff800037d0:	49 8d 40 2f          	lea    rax,[r8+0x2f]
ffffffff800037d4:	4c 8b 0d 55 f7 00 00 	mov    r9,QWORD PTR [rip+0xf755]        # ffffffff80012f30 <current>
ffffffff800037db:	48 b9 ab aa aa aa aa 	movabs rcx,0xaaaaaaaaaaaaaaab
ffffffff800037e2:	aa aa aa 
ffffffff800037e5:	48 f7 e1             	mul    rcx
ffffffff800037e8:	48 c1 ea 04          	shr    rdx,0x4
ffffffff800037ec:	48 8d 14 52          	lea    rdx,[rdx+rdx*2]
ffffffff800037f0:	49 8d 04 d1          	lea    rax,[r9+rdx*8]
ffffffff800037f4:	48 c1 e2 03          	shl    rdx,0x3
ffffffff800037f8:	0f 89 ca 00 00 00    	jns    ffffffff800038c8 <kmalloc+0x208>
ffffffff800037fe:	49 39 c1             	cmp    r9,rax
ffffffff80003801:	0f 82 ca 00 00 00    	jb     ffffffff800038d1 <kmalloc+0x211>
ffffffff80003807:	48 3b 05 2a f7 00 00 	cmp    rax,QWORD PTR [rip+0xf72a]        # ffffffff80012f38 <end>
ffffffff8000380e:	48 89 05 1b f7 00 00 	mov    QWORD PTR [rip+0xf71b],rax        # ffffffff80012f30 <current>
ffffffff80003815:	0f 83 f5 00 00 00    	jae    ffffffff80003910 <kmalloc+0x250>
ffffffff8000381b:	4d 85 c9             	test   r9,r9
ffffffff8000381e:	0f 84 16 02 00 00    	je     ffffffff80003a3a <kmalloc+0x37a>
ffffffff80003824:	41 f6 c1 07          	test   r9b,0x7
ffffffff80003828:	0f 85 0c 02 00 00    	jne    ffffffff80003a3a <kmalloc+0x37a>
ffffffff8000382e:	49 8d 51 10          	lea    rdx,[r9+0x10]
ffffffff80003832:	49 83 f9 f0          	cmp    r9,0xfffffffffffffff0
ffffffff80003836:	0f 83 26 02 00 00    	jae    ffffffff80003a62 <kmalloc+0x3a2>
ffffffff8000383c:	49 c7 41 10 00 00 00 	mov    QWORD PTR [r9+0x10],0x0
ffffffff80003843:	00 
ffffffff80003844:	4d 85 c9             	test   r9,r9
ffffffff80003847:	0f 84 6d 03 00 00    	je     ffffffff80003bba <kmalloc+0x4fa>
ffffffff8000384d:	41 f6 c1 07          	test   r9b,0x7
ffffffff80003851:	0f 85 63 03 00 00    	jne    ffffffff80003bba <kmalloc+0x4fa>
ffffffff80003857:	4d 89 01             	mov    QWORD PTR [r9],r8
ffffffff8000385a:	48 8b 05 c7 f6 00 00 	mov    rax,QWORD PTR [rip+0xf6c7]        # ffffffff80012f28 <used_list>
ffffffff80003861:	4d 85 c9             	test   r9,r9
ffffffff80003864:	0f 84 a8 01 00 00    	je     ffffffff80003a12 <kmalloc+0x352>
ffffffff8000386a:	41 f6 c1 07          	test   r9b,0x7
ffffffff8000386e:	0f 85 9e 01 00 00    	jne    ffffffff80003a12 <kmalloc+0x352>
ffffffff80003874:	49 89 41 08          	mov    QWORD PTR [r9+0x8],rax
ffffffff80003878:	4c 89 0d a9 f6 00 00 	mov    QWORD PTR [rip+0xf6a9],r9        # ffffffff80012f28 <used_list>
ffffffff8000387f:	c6 05 93 f6 00 00 00 	mov    BYTE PTR [rip+0xf693],0x0        # ffffffff80012f19 <heap_lock>
ffffffff80003886:	fb                   	sti
ffffffff80003887:	49 8d 41 18          	lea    rax,[r9+0x18]
ffffffff8000388b:	49 83 f9 e8          	cmp    r9,0xffffffffffffffe8
ffffffff8000388f:	0f 82 32 ff ff ff    	jb     ffffffff800037c7 <kmalloc+0x107>
ffffffff80003895:	48 89 c2             	mov    rdx,rax
ffffffff80003898:	4c 89 ce             	mov    rsi,r9
ffffffff8000389b:	48 89 44 24 08       	mov    QWORD PTR [rsp+0x8],rax
ffffffff800038a0:	48 c7 c7 b0 ec 00 80 	mov    rdi,0xffffffff8000ecb0
ffffffff800038a7:	e8 34 2a 00 00       	call   ffffffff800062e0 <__ubsan_handle_pointer_overflow>
ffffffff800038ac:	48 8b 44 24 08       	mov    rax,QWORD PTR [rsp+0x8]
ffffffff800038b1:	e9 11 ff ff ff       	jmp    ffffffff800037c7 <kmalloc+0x107>
ffffffff800038b6:	66 2e 0f 1f 84 00 00 	cs nop WORD PTR [rax+rax*1+0x0]
ffffffff800038bd:	00 00 00 
ffffffff800038c0:	c3                   	ret
ffffffff800038c1:	0f 1f 80 00 00 00 00 	nop    DWORD PTR [rax+0x0]
ffffffff800038c8:	4c 39 c8             	cmp    rax,r9
ffffffff800038cb:	0f 83 36 ff ff ff    	jae    ffffffff80003807 <kmalloc+0x147>
ffffffff800038d1:	48 89 c2             	mov    rdx,rax
ffffffff800038d4:	4c 89 ce             	mov    rsi,r9
ffffffff800038d7:	4c 89 44 24 18       	mov    QWORD PTR [rsp+0x18],r8
ffffffff800038dc:	48 c7 c7 40 ed 00 80 	mov    rdi,0xffffffff8000ed40
ffffffff800038e3:	48 89 44 24 10       	mov    QWORD PTR [rsp+0x10],rax
ffffffff800038e8:	4c 89 4c 24 08       	mov    QWORD PTR [rsp+0x8],r9
ffffffff800038ed:	e8 ee 29 00 00       	call   ffffffff800062e0 <__ubsan_handle_pointer_overflow>
ffffffff800038f2:	4c 8b 4c 24 08       	mov    r9,QWORD PTR [rsp+0x8]
ffffffff800038f7:	48 8b 44 24 10       	mov    rax,QWORD PTR [rsp+0x10]
ffffffff800038fc:	4c 8b 44 24 18       	mov    r8,QWORD PTR [rsp+0x18]
ffffffff80003901:	e9 01 ff ff ff       	jmp    ffffffff80003807 <kmalloc+0x147>
ffffffff80003906:	66 2e 0f 1f 84 00 00 	cs nop WORD PTR [rax+rax*1+0x0]
ffffffff8000390d:	00 00 00 
ffffffff80003910:	4c 89 44 24 10       	mov    QWORD PTR [rsp+0x10],r8
ffffffff80003915:	4c 89 4c 24 08       	mov    QWORD PTR [rsp+0x8],r9
ffffffff8000391a:	c6 05 f8 f5 00 00 00 	mov    BYTE PTR [rip+0xf5f8],0x0        # ffffffff80012f19 <heap_lock>
ffffffff80003921:	fb                   	sti
ffffffff80003922:	48 c7 c1 c3 c0 00 80 	mov    rcx,0xffffffff8000c0c3
ffffffff80003929:	ba 42 00 00 00       	mov    edx,0x42
ffffffff8000392e:	48 c7 c6 10 cd 00 80 	mov    rsi,0xffffffff8000cd10
ffffffff80003935:	31 c0                	xor    eax,eax
ffffffff80003937:	48 c7 c7 d1 c0 00 80 	mov    rdi,0xffffffff8000c0d1
ffffffff8000393e:	e8 1d ef ff ff       	call   ffffffff80002860 <log>
ffffffff80003943:	e8 78 ee ff ff       	call   ffffffff800027c0 <hcf>
ffffffff80003948:	4c 8b 44 24 10       	mov    r8,QWORD PTR [rsp+0x10]
ffffffff8000394d:	4c 8b 4c 24 08       	mov    r9,QWORD PTR [rsp+0x8]
ffffffff80003952:	e9 c4 fe ff ff       	jmp    ffffffff8000381b <kmalloc+0x15b>
ffffffff80003957:	66 0f 1f 84 00 00 00 	nop    WORD PTR [rax+rax*1+0x0]
ffffffff8000395e:	00 00 
ffffffff80003960:	f6 c1 07             	test   cl,0x7
ffffffff80003963:	0f 85 49 01 00 00    	jne    ffffffff80003ab2 <kmalloc+0x3f2>
ffffffff80003969:	48 8b 41 08          	mov    rax,QWORD PTR [rcx+0x8]
ffffffff8000396d:	48 89 05 ac f5 00 00 	mov    QWORD PTR [rip+0xf5ac],rax        # ffffffff80012f20 <free_list>
ffffffff80003974:	e9 1d fe ff ff       	jmp    ffffffff80003796 <kmalloc+0xd6>
ffffffff80003979:	48 89 ce             	mov    rsi,rcx
ffffffff8000397c:	48 c7 c7 a0 ee 00 80 	mov    rdi,0xffffffff8000eea0
ffffffff80003983:	4c 89 44 24 10       	mov    QWORD PTR [rsp+0x10],r8
ffffffff80003988:	48 89 4c 24 08       	mov    QWORD PTR [rsp+0x8],rcx
ffffffff8000398d:	e8 fe 20 00 00       	call   ffffffff80005a90 <__ubsan_handle_type_mismatch_v1>
ffffffff80003992:	4c 8b 44 24 10       	mov    r8,QWORD PTR [rsp+0x10]
ffffffff80003997:	48 8b 4c 24 08       	mov    rcx,QWORD PTR [rsp+0x8]
ffffffff8000399c:	e9 9c fd ff ff       	jmp    ffffffff8000373d <kmalloc+0x7d>
ffffffff800039a1:	48 89 ce             	mov    rsi,rcx
ffffffff800039a4:	48 c7 c7 50 ed 00 80 	mov    rdi,0xffffffff8000ed50
ffffffff800039ab:	4c 89 44 24 10       	mov    QWORD PTR [rsp+0x10],r8
ffffffff800039b0:	48 89 4c 24 08       	mov    QWORD PTR [rsp+0x8],rcx
ffffffff800039b5:	e8 26 29 00 00       	call   ffffffff800062e0 <__ubsan_handle_pointer_overflow>
ffffffff800039ba:	4c 8b 44 24 10       	mov    r8,QWORD PTR [rsp+0x10]
ffffffff800039bf:	48 8b 4c 24 08       	mov    rcx,QWORD PTR [rsp+0x8]
ffffffff800039c4:	e9 5e fd ff ff       	jmp    ffffffff80003727 <kmalloc+0x67>
ffffffff800039c9:	48 89 ce             	mov    rsi,rcx
ffffffff800039cc:	48 c7 c7 60 ed 00 80 	mov    rdi,0xffffffff8000ed60
ffffffff800039d3:	4c 89 44 24 10       	mov    QWORD PTR [rsp+0x10],r8
ffffffff800039d8:	48 89 4c 24 08       	mov    QWORD PTR [rsp+0x8],rcx
ffffffff800039dd:	e8 ae 20 00 00       	call   ffffffff80005a90 <__ubsan_handle_type_mismatch_v1>
ffffffff800039e2:	4c 8b 44 24 10       	mov    r8,QWORD PTR [rsp+0x10]
ffffffff800039e7:	48 8b 4c 24 08       	mov    rcx,QWORD PTR [rsp+0x8]
ffffffff800039ec:	e9 28 fd ff ff       	jmp    ffffffff80003719 <kmalloc+0x59>
ffffffff800039f1:	48 89 c2             	mov    rdx,rax
ffffffff800039f4:	48 89 ce             	mov    rsi,rcx
ffffffff800039f7:	48 89 44 24 08       	mov    QWORD PTR [rsp+0x8],rax
ffffffff800039fc:	48 c7 c7 80 ed 00 80 	mov    rdi,0xffffffff8000ed80
ffffffff80003a03:	e8 d8 28 00 00       	call   ffffffff800062e0 <__ubsan_handle_pointer_overflow>
ffffffff80003a08:	48 8b 44 24 08       	mov    rax,QWORD PTR [rsp+0x8]
ffffffff80003a0d:	e9 b5 fd ff ff       	jmp    ffffffff800037c7 <kmalloc+0x107>
ffffffff80003a12:	4c 89 ce             	mov    rsi,r9
ffffffff80003a15:	48 c7 c7 c0 ec 00 80 	mov    rdi,0xffffffff8000ecc0
ffffffff80003a1c:	48 89 44 24 10       	mov    QWORD PTR [rsp+0x10],rax
ffffffff80003a21:	4c 89 4c 24 08       	mov    QWORD PTR [rsp+0x8],r9
ffffffff80003a26:	e8 65 20 00 00       	call   ffffffff80005a90 <__ubsan_handle_type_mismatch_v1>
ffffffff80003a2b:	48 8b 44 24 10       	mov    rax,QWORD PTR [rsp+0x10]
ffffffff80003a30:	4c 8b 4c 24 08       	mov    r9,QWORD PTR [rsp+0x8]
ffffffff80003a35:	e9 3a fe ff ff       	jmp    ffffffff80003874 <kmalloc+0x1b4>
ffffffff80003a3a:	4c 89 ce             	mov    rsi,r9
ffffffff80003a3d:	48 c7 c7 20 ed 00 80 	mov    rdi,0xffffffff8000ed20
ffffffff80003a44:	4c 89 44 24 10       	mov    QWORD PTR [rsp+0x10],r8
ffffffff80003a49:	4c 89 4c 24 08       	mov    QWORD PTR [rsp+0x8],r9
ffffffff80003a4e:	e8 3d 20 00 00       	call   ffffffff80005a90 <__ubsan_handle_type_mismatch_v1>
ffffffff80003a53:	4c 8b 44 24 10       	mov    r8,QWORD PTR [rsp+0x10]
ffffffff80003a58:	4c 8b 4c 24 08       	mov    r9,QWORD PTR [rsp+0x8]
ffffffff80003a5d:	e9 cc fd ff ff       	jmp    ffffffff8000382e <kmalloc+0x16e>
ffffffff80003a62:	4c 89 ce             	mov    rsi,r9
ffffffff80003a65:	48 c7 c7 00 ed 00 80 	mov    rdi,0xffffffff8000ed00
ffffffff80003a6c:	4c 89 44 24 10       	mov    QWORD PTR [rsp+0x10],r8
ffffffff80003a71:	4c 89 4c 24 08       	mov    QWORD PTR [rsp+0x8],r9
ffffffff80003a76:	e8 65 28 00 00       	call   ffffffff800062e0 <__ubsan_handle_pointer_overflow>
ffffffff80003a7b:	4c 8b 44 24 10       	mov    r8,QWORD PTR [rsp+0x10]
ffffffff80003a80:	4c 8b 4c 24 08       	mov    r9,QWORD PTR [rsp+0x8]
ffffffff80003a85:	e9 b2 fd ff ff       	jmp    ffffffff8000383c <kmalloc+0x17c>
ffffffff80003a8a:	48 89 ce             	mov    rsi,rcx
ffffffff80003a8d:	48 c7 c7 a0 ed 00 80 	mov    rdi,0xffffffff8000eda0
ffffffff80003a94:	48 89 44 24 10       	mov    QWORD PTR [rsp+0x10],rax
ffffffff80003a99:	48 89 4c 24 08       	mov    QWORD PTR [rsp+0x8],rcx
ffffffff80003a9e:	e8 ed 1f 00 00       	call   ffffffff80005a90 <__ubsan_handle_type_mismatch_v1>
ffffffff80003aa3:	48 8b 44 24 10       	mov    rax,QWORD PTR [rsp+0x10]
ffffffff80003aa8:	48 8b 4c 24 08       	mov    rcx,QWORD PTR [rsp+0x8]
ffffffff80003aad:	e9 f4 fc ff ff       	jmp    ffffffff800037a6 <kmalloc+0xe6>
ffffffff80003ab2:	48 89 ce             	mov    rsi,rcx
ffffffff80003ab5:	48 c7 c7 c0 ed 00 80 	mov    rdi,0xffffffff8000edc0
ffffffff80003abc:	48 89 4c 24 08       	mov    QWORD PTR [rsp+0x8],rcx
ffffffff80003ac1:	e8 ca 1f 00 00       	call   ffffffff80005a90 <__ubsan_handle_type_mismatch_v1>
ffffffff80003ac6:	48 8b 4c 24 08       	mov    rcx,QWORD PTR [rsp+0x8]
ffffffff80003acb:	e9 99 fe ff ff       	jmp    ffffffff80003969 <kmalloc+0x2a9>
ffffffff80003ad0:	48 89 c6             	mov    rsi,rax
ffffffff80003ad3:	48 c7 c7 00 ee 00 80 	mov    rdi,0xffffffff8000ee00
ffffffff80003ada:	48 89 4c 24 18       	mov    QWORD PTR [rsp+0x18],rcx
ffffffff80003adf:	4c 89 44 24 10       	mov    QWORD PTR [rsp+0x10],r8
ffffffff80003ae4:	48 89 44 24 08       	mov    QWORD PTR [rsp+0x8],rax
ffffffff80003ae9:	e8 a2 1f 00 00       	call   ffffffff80005a90 <__ubsan_handle_type_mismatch_v1>
ffffffff80003aee:	48 8b 4c 24 18       	mov    rcx,QWORD PTR [rsp+0x18]
ffffffff80003af3:	4c 8b 44 24 10       	mov    r8,QWORD PTR [rsp+0x10]
ffffffff80003af8:	48 8b 44 24 08       	mov    rax,QWORD PTR [rsp+0x8]
ffffffff80003afd:	e9 82 fc ff ff       	jmp    ffffffff80003784 <kmalloc+0xc4>
ffffffff80003b02:	48 89 c6             	mov    rsi,rax
ffffffff80003b05:	48 c7 c7 e0 ed 00 80 	mov    rdi,0xffffffff8000ede0
ffffffff80003b0c:	48 89 4c 24 18       	mov    QWORD PTR [rsp+0x18],rcx
ffffffff80003b11:	4c 89 44 24 10       	mov    QWORD PTR [rsp+0x10],r8
ffffffff80003b16:	48 89 44 24 08       	mov    QWORD PTR [rsp+0x8],rax
ffffffff80003b1b:	e8 c0 27 00 00       	call   ffffffff800062e0 <__ubsan_handle_pointer_overflow>
ffffffff80003b20:	48 8b 4c 24 18       	mov    rcx,QWORD PTR [rsp+0x18]
ffffffff80003b25:	4c 8b 44 24 10       	mov    r8,QWORD PTR [rsp+0x10]
ffffffff80003b2a:	48 8b 44 24 08       	mov    rax,QWORD PTR [rsp+0x8]
ffffffff80003b2f:	e9 5e fc ff ff       	jmp    ffffffff80003792 <kmalloc+0xd2>
ffffffff80003b34:	48 89 ce             	mov    rsi,rcx
ffffffff80003b37:	48 c7 c7 40 ee 00 80 	mov    rdi,0xffffffff8000ee40
ffffffff80003b3e:	48 89 44 24 10       	mov    QWORD PTR [rsp+0x10],rax
ffffffff80003b43:	48 89 4c 24 08       	mov    QWORD PTR [rsp+0x8],rcx
ffffffff80003b48:	e8 43 1f 00 00       	call   ffffffff80005a90 <__ubsan_handle_type_mismatch_v1>
ffffffff80003b4d:	48 8b 4c 24 08       	mov    rcx,QWORD PTR [rsp+0x8]
ffffffff80003b52:	48 8b 44 24 10       	mov    rax,QWORD PTR [rsp+0x10]
ffffffff80003b57:	f6 c1 07             	test   cl,0x7
ffffffff80003b5a:	0f 84 0f fc ff ff    	je     ffffffff8000376f <kmalloc+0xaf>
ffffffff80003b60:	48 89 ce             	mov    rsi,rcx
ffffffff80003b63:	48 c7 c7 20 ee 00 80 	mov    rdi,0xffffffff8000ee20
ffffffff80003b6a:	e8 21 1f 00 00       	call   ffffffff80005a90 <__ubsan_handle_type_mismatch_v1>
ffffffff80003b6f:	48 8b 44 24 10       	mov    rax,QWORD PTR [rsp+0x10]
ffffffff80003b74:	48 8b 4c 24 08       	mov    rcx,QWORD PTR [rsp+0x8]
ffffffff80003b79:	e9 f1 fb ff ff       	jmp    ffffffff8000376f <kmalloc+0xaf>
ffffffff80003b7e:	48 89 ce             	mov    rsi,rcx
ffffffff80003b81:	48 c7 c7 80 ee 00 80 	mov    rdi,0xffffffff8000ee80
ffffffff80003b88:	48 89 4c 24 08       	mov    QWORD PTR [rsp+0x8],rcx
ffffffff80003b8d:	e8 fe 1e 00 00       	call   ffffffff80005a90 <__ubsan_handle_type_mismatch_v1>
ffffffff80003b92:	48 8b 4c 24 08       	mov    rcx,QWORD PTR [rsp+0x8]
ffffffff80003b97:	e9 af fb ff ff       	jmp    ffffffff8000374b <kmalloc+0x8b>
ffffffff80003b9c:	48 89 ce             	mov    rsi,rcx
ffffffff80003b9f:	48 c7 c7 60 ee 00 80 	mov    rdi,0xffffffff8000ee60
ffffffff80003ba6:	48 89 4c 24 08       	mov    QWORD PTR [rsp+0x8],rcx
ffffffff80003bab:	e8 30 27 00 00       	call   ffffffff800062e0 <__ubsan_handle_pointer_overflow>
ffffffff80003bb0:	48 8b 4c 24 08       	mov    rcx,QWORD PTR [rsp+0x8]
ffffffff80003bb5:	e9 9f fb ff ff       	jmp    ffffffff80003759 <kmalloc+0x99>
ffffffff80003bba:	4c 89 ce             	mov    rsi,r9
ffffffff80003bbd:	48 c7 c7 e0 ec 00 80 	mov    rdi,0xffffffff8000ece0
ffffffff80003bc4:	4c 89 44 24 10       	mov    QWORD PTR [rsp+0x10],r8
ffffffff80003bc9:	4c 89 4c 24 08       	mov    QWORD PTR [rsp+0x8],r9
ffffffff80003bce:	e8 bd 1e 00 00       	call   ffffffff80005a90 <__ubsan_handle_type_mismatch_v1>
ffffffff80003bd3:	4c 8b 44 24 10       	mov    r8,QWORD PTR [rsp+0x10]
ffffffff80003bd8:	4c 8b 4c 24 08       	mov    r9,QWORD PTR [rsp+0x8]
ffffffff80003bdd:	e9 75 fc ff ff       	jmp    ffffffff80003857 <kmalloc+0x197>
ffffffff80003be2:	66 2e 0f 1f 84 00 00 	cs nop WORD PTR [rax+rax*1+0x0]
ffffffff80003be9:	00 00 00 
ffffffff80003bec:	0f 1f 40 00          	nop    DWORD PTR [rax+0x0]

ffffffff80003bf0 <kfree>:
ffffffff80003bf0:	48 85 ff             	test   rdi,rdi
ffffffff80003bf3:	74 0b                	je     ffffffff80003c00 <kfree+0x10>
ffffffff80003bf5:	e9 06 f7 ff ff       	jmp    ffffffff80003300 <kfree.part.0>
ffffffff80003bfa:	66 0f 1f 44 00 00    	nop    WORD PTR [rax+rax*1+0x0]
ffffffff80003c00:	c3                   	ret
ffffffff80003c01:	66 2e 0f 1f 84 00 00 	cs nop WORD PTR [rax+rax*1+0x0]
ffffffff80003c08:	00 00 00 
ffffffff80003c0b:	0f 1f 44 00 00       	nop    DWORD PTR [rax+rax*1+0x0]

ffffffff80003c10 <krealloc>:
ffffffff80003c10:	48 85 ff             	test   rdi,rdi
ffffffff80003c13:	0f 84 97 00 00 00    	je     ffffffff80003cb0 <krealloc+0xa0>
ffffffff80003c19:	53                   	push   rbx
ffffffff80003c1a:	48 89 f1             	mov    rcx,rsi
ffffffff80003c1d:	48 89 fb             	mov    rbx,rdi
ffffffff80003c20:	48 8d 57 e8          	lea    rdx,[rdi-0x18]
ffffffff80003c24:	48 83 ec 10          	sub    rsp,0x10
ffffffff80003c28:	48 83 ff 18          	cmp    rdi,0x18
ffffffff80003c2c:	0f 82 86 00 00 00    	jb     ffffffff80003cb8 <krealloc+0xa8>
ffffffff80003c32:	48 85 d2             	test   rdx,rdx
ffffffff80003c35:	0f 84 a3 00 00 00    	je     ffffffff80003cde <krealloc+0xce>
ffffffff80003c3b:	f6 c2 07             	test   dl,0x7
ffffffff80003c3e:	0f 85 9a 00 00 00    	jne    ffffffff80003cde <krealloc+0xce>
ffffffff80003c44:	49 89 d8             	mov    r8,rbx
ffffffff80003c47:	48 39 4b e8          	cmp    QWORD PTR [rbx-0x18],rcx
ffffffff80003c4b:	72 13                	jb     ffffffff80003c60 <krealloc+0x50>
ffffffff80003c4d:	48 83 c4 10          	add    rsp,0x10
ffffffff80003c51:	4c 89 c0             	mov    rax,r8
ffffffff80003c54:	5b                   	pop    rbx
ffffffff80003c55:	c3                   	ret
ffffffff80003c56:	66 2e 0f 1f 84 00 00 	cs nop WORD PTR [rax+rax*1+0x0]
ffffffff80003c5d:	00 00 00 
ffffffff80003c60:	48 89 cf             	mov    rdi,rcx
ffffffff80003c63:	48 89 14 24          	mov    QWORD PTR [rsp],rdx
ffffffff80003c67:	e8 54 fa ff ff       	call   ffffffff800036c0 <kmalloc>
ffffffff80003c6c:	48 8b 14 24          	mov    rdx,QWORD PTR [rsp]
ffffffff80003c70:	49 89 c0             	mov    r8,rax
ffffffff80003c73:	48 85 d2             	test   rdx,rdx
ffffffff80003c76:	0f 84 88 00 00 00    	je     ffffffff80003d04 <krealloc+0xf4>
ffffffff80003c7c:	f6 c2 07             	test   dl,0x7
ffffffff80003c7f:	0f 85 7f 00 00 00    	jne    ffffffff80003d04 <krealloc+0xf4>
ffffffff80003c85:	48 8b 53 e8          	mov    rdx,QWORD PTR [rbx-0x18]
ffffffff80003c89:	4c 89 c7             	mov    rdi,r8
ffffffff80003c8c:	48 89 de             	mov    rsi,rbx
ffffffff80003c8f:	4c 89 04 24          	mov    QWORD PTR [rsp],r8
ffffffff80003c93:	e8 67 6d 00 00       	call   ffffffff8000a9ff <memcpy>
ffffffff80003c98:	48 89 df             	mov    rdi,rbx
ffffffff80003c9b:	e8 60 f6 ff ff       	call   ffffffff80003300 <kfree.part.0>
ffffffff80003ca0:	4c 8b 04 24          	mov    r8,QWORD PTR [rsp]
ffffffff80003ca4:	48 83 c4 10          	add    rsp,0x10
ffffffff80003ca8:	5b                   	pop    rbx
ffffffff80003ca9:	4c 89 c0             	mov    rax,r8
ffffffff80003cac:	c3                   	ret
ffffffff80003cad:	0f 1f 00             	nop    DWORD PTR [rax]
ffffffff80003cb0:	48 89 f7             	mov    rdi,rsi
ffffffff80003cb3:	e9 08 fa ff ff       	jmp    ffffffff800036c0 <kmalloc>
ffffffff80003cb8:	48 89 74 24 08       	mov    QWORD PTR [rsp+0x8],rsi
ffffffff80003cbd:	48 89 fe             	mov    rsi,rdi
ffffffff80003cc0:	48 c7 c7 a0 ec 00 80 	mov    rdi,0xffffffff8000eca0
ffffffff80003cc7:	48 89 14 24          	mov    QWORD PTR [rsp],rdx
ffffffff80003ccb:	e8 10 26 00 00       	call   ffffffff800062e0 <__ubsan_handle_pointer_overflow>
ffffffff80003cd0:	48 8b 4c 24 08       	mov    rcx,QWORD PTR [rsp+0x8]
ffffffff80003cd5:	48 8b 14 24          	mov    rdx,QWORD PTR [rsp]
ffffffff80003cd9:	e9 54 ff ff ff       	jmp    ffffffff80003c32 <krealloc+0x22>
ffffffff80003cde:	48 89 d6             	mov    rsi,rdx
ffffffff80003ce1:	48 c7 c7 80 ec 00 80 	mov    rdi,0xffffffff8000ec80
ffffffff80003ce8:	48 89 4c 24 08       	mov    QWORD PTR [rsp+0x8],rcx
ffffffff80003ced:	48 89 14 24          	mov    QWORD PTR [rsp],rdx
ffffffff80003cf1:	e8 9a 1d 00 00       	call   ffffffff80005a90 <__ubsan_handle_type_mismatch_v1>
ffffffff80003cf6:	48 8b 4c 24 08       	mov    rcx,QWORD PTR [rsp+0x8]
ffffffff80003cfb:	48 8b 14 24          	mov    rdx,QWORD PTR [rsp]
ffffffff80003cff:	e9 40 ff ff ff       	jmp    ffffffff80003c44 <krealloc+0x34>
ffffffff80003d04:	48 89 d6             	mov    rsi,rdx
ffffffff80003d07:	48 c7 c7 60 ec 00 80 	mov    rdi,0xffffffff8000ec60
ffffffff80003d0e:	4c 89 04 24          	mov    QWORD PTR [rsp],r8
ffffffff80003d12:	e8 79 1d 00 00       	call   ffffffff80005a90 <__ubsan_handle_type_mismatch_v1>
ffffffff80003d17:	4c 8b 04 24          	mov    r8,QWORD PTR [rsp]
ffffffff80003d1b:	e9 65 ff ff ff       	jmp    ffffffff80003c85 <krealloc+0x75>

ffffffff80003d20 <heap_clear>:
ffffffff80003d20:	48 8b 05 19 f2 00 00 	mov    rax,QWORD PTR [rip+0xf219]        # ffffffff80012f40 <base>
ffffffff80003d27:	48 c7 c1 df c0 00 80 	mov    rcx,0xffffffff8000c0df
ffffffff80003d2e:	ba 86 00 00 00       	mov    edx,0x86
ffffffff80003d33:	48 c7 c6 00 cd 00 80 	mov    rsi,0xffffffff8000cd00
ffffffff80003d3a:	48 c7 c7 d1 c0 00 80 	mov    rdi,0xffffffff8000c0d1
ffffffff80003d41:	48 c7 05 dc f1 00 00 	mov    QWORD PTR [rip+0xf1dc],0x0        # ffffffff80012f28 <used_list>
ffffffff80003d48:	00 00 00 00 
ffffffff80003d4c:	48 89 05 dd f1 00 00 	mov    QWORD PTR [rip+0xf1dd],rax        # ffffffff80012f30 <current>
ffffffff80003d53:	31 c0                	xor    eax,eax
ffffffff80003d55:	48 c7 05 c0 f1 00 00 	mov    QWORD PTR [rip+0xf1c0],0x0        # ffffffff80012f20 <free_list>
ffffffff80003d5c:	00 00 00 00 
ffffffff80003d60:	e9 fb ea ff ff       	jmp    ffffffff80002860 <log>
ffffffff80003d65:	66 2e 0f 1f 84 00 00 	cs nop WORD PTR [rax+rax*1+0x0]
ffffffff80003d6c:	00 00 00 
ffffffff80003d6f:	90                   	nop

ffffffff80003d70 <heap_status>:
ffffffff80003d70:	48 83 ec 08          	sub    rsp,0x8
ffffffff80003d74:	48 c7 c1 f6 c0 00 80 	mov    rcx,0xffffffff8000c0f6
ffffffff80003d7b:	31 c0                	xor    eax,eax
ffffffff80003d7d:	4c 8b 05 b4 f1 00 00 	mov    r8,QWORD PTR [rip+0xf1b4]        # ffffffff80012f38 <end>
ffffffff80003d84:	ba 89 00 00 00       	mov    edx,0x89
ffffffff80003d89:	4c 2b 05 a0 f1 00 00 	sub    r8,QWORD PTR [rip+0xf1a0]        # ffffffff80012f30 <current>
ffffffff80003d90:	48 c7 c6 f0 cc 00 80 	mov    rsi,0xffffffff8000ccf0
ffffffff80003d97:	48 c7 c7 d1 c0 00 80 	mov    rdi,0xffffffff8000c0d1
ffffffff80003d9e:	e8 bd ea ff ff       	call   ffffffff80002860 <log>
ffffffff80003da3:	4c 8b 05 86 f1 00 00 	mov    r8,QWORD PTR [rip+0xf186]        # ffffffff80012f30 <current>
ffffffff80003daa:	31 c0                	xor    eax,eax
ffffffff80003dac:	4c 2b 05 8d f1 00 00 	sub    r8,QWORD PTR [rip+0xf18d]        # ffffffff80012f40 <base>
ffffffff80003db3:	48 c7 c1 07 c1 00 80 	mov    rcx,0xffffffff8000c107
ffffffff80003dba:	ba 8a 00 00 00       	mov    edx,0x8a
ffffffff80003dbf:	48 c7 c6 f0 cc 00 80 	mov    rsi,0xffffffff8000ccf0
ffffffff80003dc6:	48 c7 c7 d1 c0 00 80 	mov    rdi,0xffffffff8000c0d1
ffffffff80003dcd:	e8 8e ea ff ff       	call   ffffffff80002860 <log>
ffffffff80003dd2:	4c 8b 05 5f f1 00 00 	mov    r8,QWORD PTR [rip+0xf15f]        # ffffffff80012f38 <end>
ffffffff80003dd9:	31 c0                	xor    eax,eax
ffffffff80003ddb:	4c 2b 05 5e f1 00 00 	sub    r8,QWORD PTR [rip+0xf15e]        # ffffffff80012f40 <base>
ffffffff80003de2:	48 c7 c1 18 c1 00 80 	mov    rcx,0xffffffff8000c118
ffffffff80003de9:	ba 8b 00 00 00       	mov    edx,0x8b
ffffffff80003dee:	48 83 c4 08          	add    rsp,0x8
ffffffff80003df2:	48 c7 c6 f0 cc 00 80 	mov    rsi,0xffffffff8000ccf0
ffffffff80003df9:	48 c7 c7 d1 c0 00 80 	mov    rdi,0xffffffff8000c0d1
ffffffff80003e00:	e9 5b ea ff ff       	jmp    ffffffff80002860 <log>
ffffffff80003e05:	66 2e 0f 1f 84 00 00 	cs nop WORD PTR [rax+rax*1+0x0]
ffffffff80003e0c:	00 00 00 
ffffffff80003e0f:	90                   	nop

ffffffff80003e10 <pmm_bitmap_size>:
ffffffff80003e10:	48 8b 05 31 f1 00 00 	mov    rax,QWORD PTR [rip+0xf131]        # ffffffff80012f48 <bitmapsize_al>
ffffffff80003e17:	c3                   	ret
ffffffff80003e18:	0f 1f 84 00 00 00 00 	nop    DWORD PTR [rax+rax*1+0x0]
ffffffff80003e1f:	00 

ffffffff80003e20 <pmm_bitmap>:
ffffffff80003e20:	48 8b 05 31 f1 00 00 	mov    rax,QWORD PTR [rip+0xf131]        # ffffffff80012f58 <bitmap>
ffffffff80003e27:	c3                   	ret
ffffffff80003e28:	0f 1f 84 00 00 00 00 	nop    DWORD PTR [rax+rax*1+0x0]
ffffffff80003e2f:	00 

ffffffff80003e30 <set>:
ffffffff80003e30:	89 f9                	mov    ecx,edi
ffffffff80003e32:	41 b9 01 00 00 00    	mov    r9d,0x1
ffffffff80003e38:	48 83 ec 28          	sub    rsp,0x28
ffffffff80003e3c:	48 c1 ef 03          	shr    rdi,0x3
ffffffff80003e40:	83 e1 07             	and    ecx,0x7
ffffffff80003e43:	48 89 f8             	mov    rax,rdi
ffffffff80003e46:	41 d3 e1             	shl    r9d,cl
ffffffff80003e49:	48 8b 0d 08 f1 00 00 	mov    rcx,QWORD PTR [rip+0xf108]        # ffffffff80012f58 <bitmap>
ffffffff80003e50:	48 01 c8             	add    rax,rcx
ffffffff80003e53:	72 19                	jb     ffffffff80003e6e <set+0x3e>
ffffffff80003e55:	48 85 c0             	test   rax,rax
ffffffff80003e58:	74 79                	je     ffffffff80003ed3 <set+0xa3>
ffffffff80003e5a:	44 0f b6 00          	movzx  r8d,BYTE PTR [rax]
ffffffff80003e5e:	48 39 c8             	cmp    rax,rcx
ffffffff80003e61:	72 3d                	jb     ffffffff80003ea0 <set+0x70>
ffffffff80003e63:	45 09 c8             	or     r8d,r9d
ffffffff80003e66:	44 88 00             	mov    BYTE PTR [rax],r8b
ffffffff80003e69:	48 83 c4 28          	add    rsp,0x28
ffffffff80003e6d:	c3                   	ret
ffffffff80003e6e:	48 89 c2             	mov    rdx,rax
ffffffff80003e71:	48 89 ce             	mov    rsi,rcx
ffffffff80003e74:	44 89 4c 24 18       	mov    DWORD PTR [rsp+0x18],r9d
ffffffff80003e79:	48 c7 c7 b0 f7 00 80 	mov    rdi,0xffffffff8000f7b0
ffffffff80003e80:	48 89 44 24 10       	mov    QWORD PTR [rsp+0x10],rax
ffffffff80003e85:	48 89 4c 24 08       	mov    QWORD PTR [rsp+0x8],rcx
ffffffff80003e8a:	e8 51 24 00 00       	call   ffffffff800062e0 <__ubsan_handle_pointer_overflow>
ffffffff80003e8f:	44 8b 4c 24 18       	mov    r9d,DWORD PTR [rsp+0x18]
ffffffff80003e94:	48 8b 44 24 10       	mov    rax,QWORD PTR [rsp+0x10]
ffffffff80003e99:	48 8b 4c 24 08       	mov    rcx,QWORD PTR [rsp+0x8]
ffffffff80003e9e:	eb b5                	jmp    ffffffff80003e55 <set+0x25>
ffffffff80003ea0:	48 89 c2             	mov    rdx,rax
ffffffff80003ea3:	48 89 ce             	mov    rsi,rcx
ffffffff80003ea6:	44 89 4c 24 18       	mov    DWORD PTR [rsp+0x18],r9d
ffffffff80003eab:	48 c7 c7 70 f7 00 80 	mov    rdi,0xffffffff8000f770
ffffffff80003eb2:	44 88 44 24 10       	mov    BYTE PTR [rsp+0x10],r8b
ffffffff80003eb7:	48 89 44 24 08       	mov    QWORD PTR [rsp+0x8],rax
ffffffff80003ebc:	e8 1f 24 00 00       	call   ffffffff800062e0 <__ubsan_handle_pointer_overflow>
ffffffff80003ec1:	44 8b 4c 24 18       	mov    r9d,DWORD PTR [rsp+0x18]
ffffffff80003ec6:	44 0f b6 44 24 10    	movzx  r8d,BYTE PTR [rsp+0x10]
ffffffff80003ecc:	48 8b 44 24 08       	mov    rax,QWORD PTR [rsp+0x8]
ffffffff80003ed1:	eb 90                	jmp    ffffffff80003e63 <set+0x33>
ffffffff80003ed3:	31 f6                	xor    esi,esi
ffffffff80003ed5:	48 c7 c7 80 f7 00 80 	mov    rdi,0xffffffff8000f780
ffffffff80003edc:	48 89 44 24 18       	mov    QWORD PTR [rsp+0x18],rax
ffffffff80003ee1:	44 89 4c 24 10       	mov    DWORD PTR [rsp+0x10],r9d
ffffffff80003ee6:	48 89 4c 24 08       	mov    QWORD PTR [rsp+0x8],rcx
ffffffff80003eeb:	e8 a0 1b 00 00       	call   ffffffff80005a90 <__ubsan_handle_type_mismatch_v1>
ffffffff80003ef0:	48 8b 44 24 18       	mov    rax,QWORD PTR [rsp+0x18]
ffffffff80003ef5:	44 8b 4c 24 10       	mov    r9d,DWORD PTR [rsp+0x10]
ffffffff80003efa:	48 8b 4c 24 08       	mov    rcx,QWORD PTR [rsp+0x8]
ffffffff80003eff:	e9 56 ff ff ff       	jmp    ffffffff80003e5a <set+0x2a>
ffffffff80003f04:	66 2e 0f 1f 84 00 00 	cs nop WORD PTR [rax+rax*1+0x0]
ffffffff80003f0b:	00 00 00 
ffffffff80003f0e:	66 90                	xchg   ax,ax

ffffffff80003f10 <clear>:
ffffffff80003f10:	89 f9                	mov    ecx,edi
ffffffff80003f12:	41 b9 fe ff ff ff    	mov    r9d,0xfffffffe
ffffffff80003f18:	48 83 ec 28          	sub    rsp,0x28
ffffffff80003f1c:	48 c1 ef 03          	shr    rdi,0x3
ffffffff80003f20:	83 e1 07             	and    ecx,0x7
ffffffff80003f23:	48 89 f8             	mov    rax,rdi
ffffffff80003f26:	41 d3 c1             	rol    r9d,cl
ffffffff80003f29:	48 8b 0d 28 f0 00 00 	mov    rcx,QWORD PTR [rip+0xf028]        # ffffffff80012f58 <bitmap>
ffffffff80003f30:	48 01 c8             	add    rax,rcx
ffffffff80003f33:	72 19                	jb     ffffffff80003f4e <clear+0x3e>
ffffffff80003f35:	48 85 c0             	test   rax,rax
ffffffff80003f38:	74 79                	je     ffffffff80003fb3 <clear+0xa3>
ffffffff80003f3a:	44 0f b6 00          	movzx  r8d,BYTE PTR [rax]
ffffffff80003f3e:	48 39 c8             	cmp    rax,rcx
ffffffff80003f41:	72 3d                	jb     ffffffff80003f80 <clear+0x70>
ffffffff80003f43:	45 21 c8             	and    r8d,r9d
ffffffff80003f46:	44 88 00             	mov    BYTE PTR [rax],r8b
ffffffff80003f49:	48 83 c4 28          	add    rsp,0x28
ffffffff80003f4d:	c3                   	ret
ffffffff80003f4e:	48 89 c2             	mov    rdx,rax
ffffffff80003f51:	48 89 ce             	mov    rsi,rcx
ffffffff80003f54:	44 89 4c 24 18       	mov    DWORD PTR [rsp+0x18],r9d
ffffffff80003f59:	48 c7 c7 60 f7 00 80 	mov    rdi,0xffffffff8000f760
ffffffff80003f60:	48 89 44 24 10       	mov    QWORD PTR [rsp+0x10],rax
ffffffff80003f65:	48 89 4c 24 08       	mov    QWORD PTR [rsp+0x8],rcx
ffffffff80003f6a:	e8 71 23 00 00       	call   ffffffff800062e0 <__ubsan_handle_pointer_overflow>
ffffffff80003f6f:	44 8b 4c 24 18       	mov    r9d,DWORD PTR [rsp+0x18]
ffffffff80003f74:	48 8b 44 24 10       	mov    rax,QWORD PTR [rsp+0x10]
ffffffff80003f79:	48 8b 4c 24 08       	mov    rcx,QWORD PTR [rsp+0x8]
ffffffff80003f7e:	eb b5                	jmp    ffffffff80003f35 <clear+0x25>
ffffffff80003f80:	48 89 c2             	mov    rdx,rax
ffffffff80003f83:	48 89 ce             	mov    rsi,rcx
ffffffff80003f86:	44 89 4c 24 18       	mov    DWORD PTR [rsp+0x18],r9d
ffffffff80003f8b:	48 c7 c7 30 f7 00 80 	mov    rdi,0xffffffff8000f730
ffffffff80003f92:	44 88 44 24 10       	mov    BYTE PTR [rsp+0x10],r8b
ffffffff80003f97:	48 89 44 24 08       	mov    QWORD PTR [rsp+0x8],rax
ffffffff80003f9c:	e8 3f 23 00 00       	call   ffffffff800062e0 <__ubsan_handle_pointer_overflow>
ffffffff80003fa1:	44 8b 4c 24 18       	mov    r9d,DWORD PTR [rsp+0x18]
ffffffff80003fa6:	44 0f b6 44 24 10    	movzx  r8d,BYTE PTR [rsp+0x10]
ffffffff80003fac:	48 8b 44 24 08       	mov    rax,QWORD PTR [rsp+0x8]
ffffffff80003fb1:	eb 90                	jmp    ffffffff80003f43 <clear+0x33>
ffffffff80003fb3:	31 f6                	xor    esi,esi
ffffffff80003fb5:	48 c7 c7 40 f7 00 80 	mov    rdi,0xffffffff8000f740
ffffffff80003fbc:	48 89 44 24 18       	mov    QWORD PTR [rsp+0x18],rax
ffffffff80003fc1:	44 89 4c 24 10       	mov    DWORD PTR [rsp+0x10],r9d
ffffffff80003fc6:	48 89 4c 24 08       	mov    QWORD PTR [rsp+0x8],rcx
ffffffff80003fcb:	e8 c0 1a 00 00       	call   ffffffff80005a90 <__ubsan_handle_type_mismatch_v1>
ffffffff80003fd0:	48 8b 44 24 18       	mov    rax,QWORD PTR [rsp+0x18]
ffffffff80003fd5:	44 8b 4c 24 10       	mov    r9d,DWORD PTR [rsp+0x10]
ffffffff80003fda:	48 8b 4c 24 08       	mov    rcx,QWORD PTR [rsp+0x8]
ffffffff80003fdf:	e9 56 ff ff ff       	jmp    ffffffff80003f3a <clear+0x2a>
ffffffff80003fe4:	66 2e 0f 1f 84 00 00 	cs nop WORD PTR [rax+rax*1+0x0]
ffffffff80003feb:	00 00 00 
ffffffff80003fee:	66 90                	xchg   ax,ax

ffffffff80003ff0 <pmm_init>:
ffffffff80003ff0:	41 55                	push   r13
ffffffff80003ff2:	41 54                	push   r12
ffffffff80003ff4:	55                   	push   rbp
ffffffff80003ff5:	53                   	push   rbx
ffffffff80003ff6:	48 83 ec 28          	sub    rsp,0x28
ffffffff80003ffa:	48 8b 2d 27 c1 ff ff 	mov    rbp,QWORD PTR [rip+0xffffffffffffc127]        # ffffffff80000128 <memmap_request+0x28>
ffffffff80004001:	48 85 ed             	test   rbp,rbp
ffffffff80004004:	0f 84 18 07 00 00    	je     ffffffff80004722 <pmm_init+0x732>
ffffffff8000400a:	40 f6 c5 07          	test   bpl,0x7
ffffffff8000400e:	0f 85 0e 07 00 00    	jne    ffffffff80004722 <pmm_init+0x732>
ffffffff80004014:	48 8d 55 08          	lea    rdx,[rbp+0x8]
ffffffff80004018:	48 83 fd f8          	cmp    rbp,0xfffffffffffffff8
ffffffff8000401c:	0f 83 c8 07 00 00    	jae    ffffffff800047ea <pmm_init+0x7fa>
ffffffff80004022:	4c 8b 6d 08          	mov    r13,QWORD PTR [rbp+0x8]
ffffffff80004026:	49 8d 5d ff          	lea    rbx,[r13-0x1]
ffffffff8000402a:	48 85 ed             	test   rbp,rbp
ffffffff8000402d:	0f 84 a3 07 00 00    	je     ffffffff800047d6 <pmm_init+0x7e6>
ffffffff80004033:	40 f6 c5 07          	test   bpl,0x7
ffffffff80004037:	0f 85 99 07 00 00    	jne    ffffffff800047d6 <pmm_init+0x7e6>
ffffffff8000403d:	48 8d 55 10          	lea    rdx,[rbp+0x10]
ffffffff80004041:	48 83 fd f0          	cmp    rbp,0xfffffffffffffff0
ffffffff80004045:	0f 83 ef 07 00 00    	jae    ffffffff8000483a <pmm_init+0x84a>
ffffffff8000404b:	4c 8b 65 10          	mov    r12,QWORD PTR [rbp+0x10]
ffffffff8000404f:	48 8d 04 dd 00 00 00 	lea    rax,[rbx*8+0x0]
ffffffff80004056:	00 
ffffffff80004057:	49 8d 1c 04          	lea    rbx,[r12+rax*1]
ffffffff8000405b:	48 85 c0             	test   rax,rax
ffffffff8000405e:	0f 88 7c 04 00 00    	js     ffffffff800044e0 <pmm_init+0x4f0>
ffffffff80004064:	4c 39 e3             	cmp    rbx,r12
ffffffff80004067:	0f 82 7c 04 00 00    	jb     ffffffff800044e9 <pmm_init+0x4f9>
ffffffff8000406d:	48 85 db             	test   rbx,rbx
ffffffff80004070:	0f 84 a6 07 00 00    	je     ffffffff8000481c <pmm_init+0x82c>
ffffffff80004076:	f6 c3 07             	test   bl,0x7
ffffffff80004079:	0f 85 9d 07 00 00    	jne    ffffffff8000481c <pmm_init+0x82c>
ffffffff8000407f:	48 8b 1b             	mov    rbx,QWORD PTR [rbx]
ffffffff80004082:	48 85 db             	test   rbx,rbx
ffffffff80004085:	0f 84 73 07 00 00    	je     ffffffff800047fe <pmm_init+0x80e>
ffffffff8000408b:	f6 c3 07             	test   bl,0x7
ffffffff8000408e:	0f 85 6a 07 00 00    	jne    ffffffff800047fe <pmm_init+0x80e>
ffffffff80004094:	48 8d 53 10          	lea    rdx,[rbx+0x10]
ffffffff80004098:	48 83 fb f0          	cmp    rbx,0xfffffffffffffff0
ffffffff8000409c:	72 45                	jb     ffffffff800040e3 <pmm_init+0xf3>
ffffffff8000409e:	e9 d9 06 00 00       	jmp    ffffffff8000477c <pmm_init+0x78c>
ffffffff800040a3:	0f 1f 44 00 00       	nop    DWORD PTR [rax+rax*1+0x0]
ffffffff800040a8:	4c 39 e3             	cmp    rbx,r12
ffffffff800040ab:	72 4f                	jb     ffffffff800040fc <pmm_init+0x10c>
ffffffff800040ad:	48 85 db             	test   rbx,rbx
ffffffff800040b0:	0f 84 ea 05 00 00    	je     ffffffff800046a0 <pmm_init+0x6b0>
ffffffff800040b6:	f6 c3 07             	test   bl,0x7
ffffffff800040b9:	0f 85 e1 05 00 00    	jne    ffffffff800046a0 <pmm_init+0x6b0>
ffffffff800040bf:	49 8b 1c 04          	mov    rbx,QWORD PTR [r12+rax*1]
ffffffff800040c3:	48 85 db             	test   rbx,rbx
ffffffff800040c6:	0f 84 b6 05 00 00    	je     ffffffff80004682 <pmm_init+0x692>
ffffffff800040cc:	f6 c3 07             	test   bl,0x7
ffffffff800040cf:	0f 85 ad 05 00 00    	jne    ffffffff80004682 <pmm_init+0x692>
ffffffff800040d5:	48 8d 53 10          	lea    rdx,[rbx+0x10]
ffffffff800040d9:	48 83 fb f0          	cmp    rbx,0xfffffffffffffff0
ffffffff800040dd:	0f 83 db 05 00 00    	jae    ffffffff800046be <pmm_init+0x6ce>
ffffffff800040e3:	48 83 e8 08          	sub    rax,0x8
ffffffff800040e7:	48 83 7b 10 00       	cmp    QWORD PTR [rbx+0x10],0x0
ffffffff800040ec:	74 32                	je     ffffffff80004120 <pmm_init+0x130>
ffffffff800040ee:	49 8d 1c 04          	lea    rbx,[r12+rax*1]
ffffffff800040f2:	48 85 c0             	test   rax,rax
ffffffff800040f5:	79 b1                	jns    ffffffff800040a8 <pmm_init+0xb8>
ffffffff800040f7:	49 39 dc             	cmp    r12,rbx
ffffffff800040fa:	73 b1                	jae    ffffffff800040ad <pmm_init+0xbd>
ffffffff800040fc:	48 89 da             	mov    rdx,rbx
ffffffff800040ff:	4c 89 e6             	mov    rsi,r12
ffffffff80004102:	48 89 44 24 08       	mov    QWORD PTR [rsp+0x8],rax
ffffffff80004107:	48 c7 c7 00 f5 00 80 	mov    rdi,0xffffffff8000f500
ffffffff8000410e:	e8 cd 21 00 00       	call   ffffffff800062e0 <__ubsan_handle_pointer_overflow>
ffffffff80004113:	48 8b 44 24 08       	mov    rax,QWORD PTR [rsp+0x8]
ffffffff80004118:	eb 93                	jmp    ffffffff800040ad <pmm_init+0xbd>
ffffffff8000411a:	66 0f 1f 44 00 00    	nop    WORD PTR [rax+rax*1+0x0]
ffffffff80004120:	48 85 db             	test   rbx,rbx
ffffffff80004123:	0f 84 0d 06 00 00    	je     ffffffff80004736 <pmm_init+0x746>
ffffffff80004129:	f6 c3 07             	test   bl,0x7
ffffffff8000412c:	0f 85 04 06 00 00    	jne    ffffffff80004736 <pmm_init+0x746>
ffffffff80004132:	4c 8b 03             	mov    r8,QWORD PTR [rbx]
ffffffff80004135:	48 85 db             	test   rbx,rbx
ffffffff80004138:	0f 84 7a 06 00 00    	je     ffffffff800047b8 <pmm_init+0x7c8>
ffffffff8000413e:	f6 c3 07             	test   bl,0x7
ffffffff80004141:	0f 85 71 06 00 00    	jne    ffffffff800047b8 <pmm_init+0x7c8>
ffffffff80004147:	48 8d 53 08          	lea    rdx,[rbx+0x8]
ffffffff8000414b:	48 83 fb f8          	cmp    rbx,0xfffffffffffffff8
ffffffff8000414f:	0f 83 45 06 00 00    	jae    ffffffff8000479a <pmm_init+0x7aa>
ffffffff80004155:	4c 03 43 08          	add    r8,QWORD PTR [rbx+0x8]
ffffffff80004159:	4c 89 05 08 ee 00 00 	mov    QWORD PTR [rip+0xee08],r8        # ffffffff80012f68 <lastaddr>
ffffffff80004160:	49 c1 e8 0c          	shr    r8,0xc
ffffffff80004164:	4c 89 05 f5 ed 00 00 	mov    QWORD PTR [rip+0xedf5],r8        # ffffffff80012f60 <totalpages>
ffffffff8000416b:	49 83 c0 07          	add    r8,0x7
ffffffff8000416f:	49 c1 e8 03          	shr    r8,0x3
ffffffff80004173:	4c 89 05 d6 ed 00 00 	mov    QWORD PTR [rip+0xedd6],r8        # ffffffff80012f50 <bitmapsize>
ffffffff8000417a:	49 81 c0 ff 0f 00 00 	add    r8,0xfff
ffffffff80004181:	49 81 e0 00 f0 ff ff 	and    r8,0xfffffffffffff000
ffffffff80004188:	4c 89 05 b9 ed 00 00 	mov    QWORD PTR [rip+0xedb9],r8        # ffffffff80012f48 <bitmapsize_al>
ffffffff8000418f:	48 85 ed             	test   rbp,rbp
ffffffff80004192:	0f 84 c6 05 00 00    	je     ffffffff8000475e <pmm_init+0x76e>
ffffffff80004198:	40 f6 c5 07          	test   bpl,0x7
ffffffff8000419c:	0f 85 bc 05 00 00    	jne    ffffffff8000475e <pmm_init+0x76e>
ffffffff800041a2:	4c 89 e0             	mov    rax,r12
ffffffff800041a5:	31 c9                	xor    ecx,ecx
ffffffff800041a7:	4d 85 ed             	test   r13,r13
ffffffff800041aa:	0f 85 8f 00 00 00    	jne    ffffffff8000423f <pmm_init+0x24f>
ffffffff800041b0:	e9 b1 01 00 00       	jmp    ffffffff80004366 <pmm_init+0x376>
ffffffff800041b5:	0f 1f 00             	nop    DWORD PTR [rax]
ffffffff800041b8:	4c 39 e2             	cmp    rdx,r12
ffffffff800041bb:	0f 82 ab 00 00 00    	jb     ffffffff8000426c <pmm_init+0x27c>
ffffffff800041c1:	48 85 c0             	test   rax,rax
ffffffff800041c4:	0f 84 f0 03 00 00    	je     ffffffff800045ba <pmm_init+0x5ca>
ffffffff800041ca:	a8 07                	test   al,0x7
ffffffff800041cc:	0f 85 e8 03 00 00    	jne    ffffffff800045ba <pmm_init+0x5ca>
ffffffff800041d2:	48 8b 18             	mov    rbx,QWORD PTR [rax]
ffffffff800041d5:	48 85 db             	test   rbx,rbx
ffffffff800041d8:	0f 84 aa 03 00 00    	je     ffffffff80004588 <pmm_init+0x598>
ffffffff800041de:	f6 c3 07             	test   bl,0x7
ffffffff800041e1:	0f 85 a1 03 00 00    	jne    ffffffff80004588 <pmm_init+0x598>
ffffffff800041e7:	48 8d 53 10          	lea    rdx,[rbx+0x10]
ffffffff800041eb:	48 83 fb f0          	cmp    rbx,0xfffffffffffffff0
ffffffff800041ef:	0f 83 61 03 00 00    	jae    ffffffff80004556 <pmm_init+0x566>
ffffffff800041f5:	48 83 7b 10 00       	cmp    QWORD PTR [rbx+0x10],0x0
ffffffff800041fa:	75 1f                	jne    ffffffff8000421b <pmm_init+0x22b>
ffffffff800041fc:	48 85 db             	test   rbx,rbx
ffffffff800041ff:	0f 84 eb 04 00 00    	je     ffffffff800046f0 <pmm_init+0x700>
ffffffff80004205:	f6 c3 07             	test   bl,0x7
ffffffff80004208:	0f 85 e2 04 00 00    	jne    ffffffff800046f0 <pmm_init+0x700>
ffffffff8000420e:	4c 8b 4b 08          	mov    r9,QWORD PTR [rbx+0x8]
ffffffff80004212:	4d 39 c1             	cmp    r9,r8
ffffffff80004215:	0f 83 85 00 00 00    	jae    ffffffff800042a0 <pmm_init+0x2b0>
ffffffff8000421b:	48 83 c1 01          	add    rcx,0x1
ffffffff8000421f:	48 85 ed             	test   rbp,rbp
ffffffff80004222:	0f 84 fc 02 00 00    	je     ffffffff80004524 <pmm_init+0x534>
ffffffff80004228:	40 f6 c5 07          	test   bpl,0x7
ffffffff8000422c:	0f 85 f2 02 00 00    	jne    ffffffff80004524 <pmm_init+0x534>
ffffffff80004232:	48 83 c0 08          	add    rax,0x8
ffffffff80004236:	49 39 cd             	cmp    r13,rcx
ffffffff80004239:	0f 84 27 01 00 00    	je     ffffffff80004366 <pmm_init+0x376>
ffffffff8000423f:	48 85 ed             	test   rbp,rbp
ffffffff80004242:	0f 84 a4 03 00 00    	je     ffffffff800045ec <pmm_init+0x5fc>
ffffffff80004248:	40 f6 c5 07          	test   bpl,0x7
ffffffff8000424c:	0f 85 9a 03 00 00    	jne    ffffffff800045ec <pmm_init+0x5fc>
ffffffff80004252:	48 89 ce             	mov    rsi,rcx
ffffffff80004255:	49 8d 14 cc          	lea    rdx,[r12+rcx*8]
ffffffff80004259:	48 c1 e6 03          	shl    rsi,0x3
ffffffff8000425d:	0f 89 55 ff ff ff    	jns    ffffffff800041b8 <pmm_init+0x1c8>
ffffffff80004263:	49 39 d4             	cmp    r12,rdx
ffffffff80004266:	0f 83 55 ff ff ff    	jae    ffffffff800041c1 <pmm_init+0x1d1>
ffffffff8000426c:	4c 89 e6             	mov    rsi,r12
ffffffff8000426f:	48 c7 c7 60 f4 00 80 	mov    rdi,0xffffffff8000f460
ffffffff80004276:	48 89 44 24 18       	mov    QWORD PTR [rsp+0x18],rax
ffffffff8000427b:	48 89 4c 24 10       	mov    QWORD PTR [rsp+0x10],rcx
ffffffff80004280:	4c 89 44 24 08       	mov    QWORD PTR [rsp+0x8],r8
ffffffff80004285:	e8 56 20 00 00       	call   ffffffff800062e0 <__ubsan_handle_pointer_overflow>
ffffffff8000428a:	4c 8b 44 24 08       	mov    r8,QWORD PTR [rsp+0x8]
ffffffff8000428f:	48 8b 4c 24 10       	mov    rcx,QWORD PTR [rsp+0x10]
ffffffff80004294:	48 8b 44 24 18       	mov    rax,QWORD PTR [rsp+0x18]
ffffffff80004299:	e9 23 ff ff ff       	jmp    ffffffff800041c1 <pmm_init+0x1d1>
ffffffff8000429e:	66 90                	xchg   ax,ax
ffffffff800042a0:	48 85 db             	test   rbx,rbx
ffffffff800042a3:	0f 84 1d 06 00 00    	je     ffffffff800048c6 <pmm_init+0x8d6>
ffffffff800042a9:	f6 c3 07             	test   bl,0x7
ffffffff800042ac:	0f 85 14 06 00 00    	jne    ffffffff800048c6 <pmm_init+0x8d6>
ffffffff800042b2:	48 c7 c0 c0 00 00 80 	mov    rax,0xffffffff800000c0
ffffffff800042b9:	4c 8b 2b             	mov    r13,QWORD PTR [rbx]
ffffffff800042bc:	48 83 f8 d8          	cmp    rax,0xffffffffffffffd8
ffffffff800042c0:	0f 83 28 06 00 00    	jae    ffffffff800048ee <pmm_init+0x8fe>
ffffffff800042c6:	4c 8b 25 1b be ff ff 	mov    r12,QWORD PTR [rip+0xffffffffffffbe1b]        # ffffffff800000e8 <hhdm_request+0x28>
ffffffff800042cd:	4d 85 e4             	test   r12,r12
ffffffff800042d0:	0f 84 47 06 00 00    	je     ffffffff8000491d <pmm_init+0x92d>
ffffffff800042d6:	41 f6 c4 07          	test   r12b,0x7
ffffffff800042da:	0f 85 3d 06 00 00    	jne    ffffffff8000491d <pmm_init+0x92d>
ffffffff800042e0:	49 8d 54 24 08       	lea    rdx,[r12+0x8]
ffffffff800042e5:	49 83 fc f8          	cmp    r12,0xfffffffffffffff8
ffffffff800042e9:	0f 83 56 06 00 00    	jae    ffffffff80004945 <pmm_init+0x955>
ffffffff800042ef:	49 8b 44 24 08       	mov    rax,QWORD PTR [r12+0x8]
ffffffff800042f4:	4c 01 e8             	add    rax,r13
ffffffff800042f7:	48 89 05 5a ec 00 00 	mov    QWORD PTR [rip+0xec5a],rax        # ffffffff80012f58 <bitmap>
ffffffff800042fe:	49 89 c4             	mov    r12,rax
ffffffff80004301:	48 85 db             	test   rbx,rbx
ffffffff80004304:	0f 84 63 06 00 00    	je     ffffffff8000496d <pmm_init+0x97d>
ffffffff8000430a:	f6 c3 07             	test   bl,0x7
ffffffff8000430d:	0f 85 5a 06 00 00    	jne    ffffffff8000496d <pmm_init+0x97d>
ffffffff80004313:	4d 01 c5             	add    r13,r8
ffffffff80004316:	48 85 db             	test   rbx,rbx
ffffffff80004319:	0f 84 2f 05 00 00    	je     ffffffff8000484e <pmm_init+0x85e>
ffffffff8000431f:	f6 c3 07             	test   bl,0x7
ffffffff80004322:	0f 85 26 05 00 00    	jne    ffffffff8000484e <pmm_init+0x85e>
ffffffff80004328:	4c 89 2b             	mov    QWORD PTR [rbx],r13
ffffffff8000432b:	48 85 db             	test   rbx,rbx
ffffffff8000432e:	0f 84 42 05 00 00    	je     ffffffff80004876 <pmm_init+0x886>
ffffffff80004334:	f6 c3 07             	test   bl,0x7
ffffffff80004337:	0f 85 39 05 00 00    	jne    ffffffff80004876 <pmm_init+0x886>
ffffffff8000433d:	4d 29 c1             	sub    r9,r8
ffffffff80004340:	48 85 db             	test   rbx,rbx
ffffffff80004343:	0f 84 55 05 00 00    	je     ffffffff8000489e <pmm_init+0x8ae>
ffffffff80004349:	f6 c3 07             	test   bl,0x7
ffffffff8000434c:	0f 85 4c 05 00 00    	jne    ffffffff8000489e <pmm_init+0x8ae>
ffffffff80004352:	4c 89 4b 08          	mov    QWORD PTR [rbx+0x8],r9
ffffffff80004356:	4c 89 c2             	mov    rdx,r8
ffffffff80004359:	be ff 00 00 00       	mov    esi,0xff
ffffffff8000435e:	4c 89 e7             	mov    rdi,r12
ffffffff80004361:	e8 8a 66 00 00       	call   ffffffff8000a9f0 <memset>
ffffffff80004366:	48 85 ed             	test   rbp,rbp
ffffffff80004369:	0f 84 db 03 00 00    	je     ffffffff8000474a <pmm_init+0x75a>
ffffffff8000436f:	40 f6 c5 07          	test   bpl,0x7
ffffffff80004373:	0f 85 d1 03 00 00    	jne    ffffffff8000474a <pmm_init+0x75a>
ffffffff80004379:	45 31 ed             	xor    r13d,r13d
ffffffff8000437c:	48 83 7d 08 00       	cmp    QWORD PTR [rbp+0x8],0x0
ffffffff80004381:	75 75                	jne    ffffffff800043f8 <pmm_init+0x408>
ffffffff80004383:	e9 28 01 00 00       	jmp    ffffffff800044b0 <pmm_init+0x4c0>
ffffffff80004388:	0f 1f 84 00 00 00 00 	nop    DWORD PTR [rax+rax*1+0x0]
ffffffff8000438f:	00 
ffffffff80004390:	48 39 f3             	cmp    rbx,rsi
ffffffff80004393:	0f 82 90 00 00 00    	jb     ffffffff80004429 <pmm_init+0x439>
ffffffff80004399:	48 85 db             	test   rbx,rbx
ffffffff8000439c:	0f 84 b8 02 00 00    	je     ffffffff8000465a <pmm_init+0x66a>
ffffffff800043a2:	f6 c3 07             	test   bl,0x7
ffffffff800043a5:	0f 85 af 02 00 00    	jne    ffffffff8000465a <pmm_init+0x66a>
ffffffff800043ab:	48 8b 1b             	mov    rbx,QWORD PTR [rbx]
ffffffff800043ae:	48 85 db             	test   rbx,rbx
ffffffff800043b1:	0f 84 8f 02 00 00    	je     ffffffff80004646 <pmm_init+0x656>
ffffffff800043b7:	f6 c3 07             	test   bl,0x7
ffffffff800043ba:	0f 85 86 02 00 00    	jne    ffffffff80004646 <pmm_init+0x656>
ffffffff800043c0:	48 8d 53 10          	lea    rdx,[rbx+0x10]
ffffffff800043c4:	48 83 fb f0          	cmp    rbx,0xfffffffffffffff0
ffffffff800043c8:	0f 83 64 02 00 00    	jae    ffffffff80004632 <pmm_init+0x642>
ffffffff800043ce:	4c 8b 63 10          	mov    r12,QWORD PTR [rbx+0x10]
ffffffff800043d2:	4d 85 e4             	test   r12,r12
ffffffff800043d5:	74 69                	je     ffffffff80004440 <pmm_init+0x450>
ffffffff800043d7:	49 83 c5 01          	add    r13,0x1
ffffffff800043db:	48 85 ed             	test   rbp,rbp
ffffffff800043de:	0f 84 3a 02 00 00    	je     ffffffff8000461e <pmm_init+0x62e>
ffffffff800043e4:	40 f6 c5 07          	test   bpl,0x7
ffffffff800043e8:	0f 85 30 02 00 00    	jne    ffffffff8000461e <pmm_init+0x62e>
ffffffff800043ee:	4c 3b 6d 08          	cmp    r13,QWORD PTR [rbp+0x8]
ffffffff800043f2:	0f 83 b8 00 00 00    	jae    ffffffff800044b0 <pmm_init+0x4c0>
ffffffff800043f8:	48 85 ed             	test   rbp,rbp
ffffffff800043fb:	0f 84 6d 02 00 00    	je     ffffffff8000466e <pmm_init+0x67e>
ffffffff80004401:	40 f6 c5 07          	test   bpl,0x7
ffffffff80004405:	0f 85 63 02 00 00    	jne    ffffffff8000466e <pmm_init+0x67e>
ffffffff8000440b:	48 8b 75 10          	mov    rsi,QWORD PTR [rbp+0x10]
ffffffff8000440f:	4c 89 e8             	mov    rax,r13
ffffffff80004412:	48 c1 e0 03          	shl    rax,0x3
ffffffff80004416:	4a 8d 1c ee          	lea    rbx,[rsi+r13*8]
ffffffff8000441a:	0f 89 70 ff ff ff    	jns    ffffffff80004390 <pmm_init+0x3a0>
ffffffff80004420:	48 39 de             	cmp    rsi,rbx
ffffffff80004423:	0f 83 70 ff ff ff    	jae    ffffffff80004399 <pmm_init+0x3a9>
ffffffff80004429:	48 89 da             	mov    rdx,rbx
ffffffff8000442c:	48 c7 c7 40 f2 00 80 	mov    rdi,0xffffffff8000f240
ffffffff80004433:	e8 a8 1e 00 00       	call   ffffffff800062e0 <__ubsan_handle_pointer_overflow>
ffffffff80004438:	e9 5c ff ff ff       	jmp    ffffffff80004399 <pmm_init+0x3a9>
ffffffff8000443d:	0f 1f 00             	nop    DWORD PTR [rax]
ffffffff80004440:	48 85 db             	test   rbx,rbx
ffffffff80004443:	0f 84 93 02 00 00    	je     ffffffff800046dc <pmm_init+0x6ec>
ffffffff80004449:	f6 c3 07             	test   bl,0x7
ffffffff8000444c:	0f 85 8a 02 00 00    	jne    ffffffff800046dc <pmm_init+0x6ec>
ffffffff80004452:	48 83 7b 08 00       	cmp    QWORD PTR [rbx+0x8],0x0
ffffffff80004457:	75 3e                	jne    ffffffff80004497 <pmm_init+0x4a7>
ffffffff80004459:	e9 79 ff ff ff       	jmp    ffffffff800043d7 <pmm_init+0x3e7>
ffffffff8000445e:	66 90                	xchg   ax,ax
ffffffff80004460:	f6 c3 07             	test   bl,0x7
ffffffff80004463:	75 37                	jne    ffffffff8000449c <pmm_init+0x4ac>
ffffffff80004465:	48 8b 3b             	mov    rdi,QWORD PTR [rbx]
ffffffff80004468:	4c 01 e7             	add    rdi,r12
ffffffff8000446b:	49 81 c4 00 10 00 00 	add    r12,0x1000
ffffffff80004472:	48 c1 ef 0c          	shr    rdi,0xc
ffffffff80004476:	e8 95 fa ff ff       	call   ffffffff80003f10 <clear>
ffffffff8000447b:	48 85 db             	test   rbx,rbx
ffffffff8000447e:	0f 84 8c 00 00 00    	je     ffffffff80004510 <pmm_init+0x520>
ffffffff80004484:	f6 c3 07             	test   bl,0x7
ffffffff80004487:	0f 85 83 00 00 00    	jne    ffffffff80004510 <pmm_init+0x520>
ffffffff8000448d:	4c 3b 63 08          	cmp    r12,QWORD PTR [rbx+0x8]
ffffffff80004491:	0f 83 40 ff ff ff    	jae    ffffffff800043d7 <pmm_init+0x3e7>
ffffffff80004497:	48 85 db             	test   rbx,rbx
ffffffff8000449a:	75 c4                	jne    ffffffff80004460 <pmm_init+0x470>
ffffffff8000449c:	48 89 de             	mov    rsi,rbx
ffffffff8000449f:	48 c7 c7 a0 f1 00 80 	mov    rdi,0xffffffff8000f1a0
ffffffff800044a6:	e8 e5 15 00 00       	call   ffffffff80005a90 <__ubsan_handle_type_mismatch_v1>
ffffffff800044ab:	eb b8                	jmp    ffffffff80004465 <pmm_init+0x475>
ffffffff800044ad:	0f 1f 00             	nop    DWORD PTR [rax]
ffffffff800044b0:	48 83 c4 28          	add    rsp,0x28
ffffffff800044b4:	48 c7 c1 2a c1 00 80 	mov    rcx,0xffffffff8000c12a
ffffffff800044bb:	31 c0                	xor    eax,eax
ffffffff800044bd:	ba 52 00 00 00       	mov    edx,0x52
ffffffff800044c2:	5b                   	pop    rbx
ffffffff800044c3:	48 c7 c6 28 cd 00 80 	mov    rsi,0xffffffff8000cd28
ffffffff800044ca:	5d                   	pop    rbp
ffffffff800044cb:	48 c7 c7 34 c1 00 80 	mov    rdi,0xffffffff8000c134
ffffffff800044d2:	41 5c                	pop    r12
ffffffff800044d4:	41 5d                	pop    r13
ffffffff800044d6:	e9 85 e3 ff ff       	jmp    ffffffff80002860 <log>
ffffffff800044db:	0f 1f 44 00 00       	nop    DWORD PTR [rax+rax*1+0x0]
ffffffff800044e0:	49 39 dc             	cmp    r12,rbx
ffffffff800044e3:	0f 83 84 fb ff ff    	jae    ffffffff8000406d <pmm_init+0x7d>
ffffffff800044e9:	48 89 da             	mov    rdx,rbx
ffffffff800044ec:	4c 89 e6             	mov    rsi,r12
ffffffff800044ef:	48 89 44 24 08       	mov    QWORD PTR [rsp+0x8],rax
ffffffff800044f4:	48 c7 c7 70 f6 00 80 	mov    rdi,0xffffffff8000f670
ffffffff800044fb:	e8 e0 1d 00 00       	call   ffffffff800062e0 <__ubsan_handle_pointer_overflow>
ffffffff80004500:	48 8b 44 24 08       	mov    rax,QWORD PTR [rsp+0x8]
ffffffff80004505:	e9 63 fb ff ff       	jmp    ffffffff8000406d <pmm_init+0x7d>
ffffffff8000450a:	66 0f 1f 44 00 00    	nop    WORD PTR [rax+rax*1+0x0]
ffffffff80004510:	48 89 de             	mov    rsi,rbx
ffffffff80004513:	48 c7 c7 80 f1 00 80 	mov    rdi,0xffffffff8000f180
ffffffff8000451a:	e8 71 15 00 00       	call   ffffffff80005a90 <__ubsan_handle_type_mismatch_v1>
ffffffff8000451f:	e9 69 ff ff ff       	jmp    ffffffff8000448d <pmm_init+0x49d>
ffffffff80004524:	48 89 ee             	mov    rsi,rbp
ffffffff80004527:	48 c7 c7 80 f2 00 80 	mov    rdi,0xffffffff8000f280
ffffffff8000452e:	48 89 44 24 18       	mov    QWORD PTR [rsp+0x18],rax
ffffffff80004533:	48 89 4c 24 10       	mov    QWORD PTR [rsp+0x10],rcx
ffffffff80004538:	4c 89 44 24 08       	mov    QWORD PTR [rsp+0x8],r8
ffffffff8000453d:	e8 4e 15 00 00       	call   ffffffff80005a90 <__ubsan_handle_type_mismatch_v1>
ffffffff80004542:	48 8b 44 24 18       	mov    rax,QWORD PTR [rsp+0x18]
ffffffff80004547:	48 8b 4c 24 10       	mov    rcx,QWORD PTR [rsp+0x10]
ffffffff8000454c:	4c 8b 44 24 08       	mov    r8,QWORD PTR [rsp+0x8]
ffffffff80004551:	e9 dc fc ff ff       	jmp    ffffffff80004232 <pmm_init+0x242>
ffffffff80004556:	48 89 de             	mov    rsi,rbx
ffffffff80004559:	48 c7 c7 00 f4 00 80 	mov    rdi,0xffffffff8000f400
ffffffff80004560:	48 89 44 24 18       	mov    QWORD PTR [rsp+0x18],rax
ffffffff80004565:	48 89 4c 24 10       	mov    QWORD PTR [rsp+0x10],rcx
ffffffff8000456a:	4c 89 44 24 08       	mov    QWORD PTR [rsp+0x8],r8
ffffffff8000456f:	e8 6c 1d 00 00       	call   ffffffff800062e0 <__ubsan_handle_pointer_overflow>
ffffffff80004574:	48 8b 44 24 18       	mov    rax,QWORD PTR [rsp+0x18]
ffffffff80004579:	48 8b 4c 24 10       	mov    rcx,QWORD PTR [rsp+0x10]
ffffffff8000457e:	4c 8b 44 24 08       	mov    r8,QWORD PTR [rsp+0x8]
ffffffff80004583:	e9 6d fc ff ff       	jmp    ffffffff800041f5 <pmm_init+0x205>
ffffffff80004588:	48 89 de             	mov    rsi,rbx
ffffffff8000458b:	48 c7 c7 20 f4 00 80 	mov    rdi,0xffffffff8000f420
ffffffff80004592:	48 89 44 24 18       	mov    QWORD PTR [rsp+0x18],rax
ffffffff80004597:	48 89 4c 24 10       	mov    QWORD PTR [rsp+0x10],rcx
ffffffff8000459c:	4c 89 44 24 08       	mov    QWORD PTR [rsp+0x8],r8
ffffffff800045a1:	e8 ea 14 00 00       	call   ffffffff80005a90 <__ubsan_handle_type_mismatch_v1>
ffffffff800045a6:	48 8b 44 24 18       	mov    rax,QWORD PTR [rsp+0x18]
ffffffff800045ab:	48 8b 4c 24 10       	mov    rcx,QWORD PTR [rsp+0x10]
ffffffff800045b0:	4c 8b 44 24 08       	mov    r8,QWORD PTR [rsp+0x8]
ffffffff800045b5:	e9 2d fc ff ff       	jmp    ffffffff800041e7 <pmm_init+0x1f7>
ffffffff800045ba:	48 89 c6             	mov    rsi,rax
ffffffff800045bd:	48 c7 c7 40 f4 00 80 	mov    rdi,0xffffffff8000f440
ffffffff800045c4:	48 89 4c 24 18       	mov    QWORD PTR [rsp+0x18],rcx
ffffffff800045c9:	4c 89 44 24 10       	mov    QWORD PTR [rsp+0x10],r8
ffffffff800045ce:	48 89 44 24 08       	mov    QWORD PTR [rsp+0x8],rax
ffffffff800045d3:	e8 b8 14 00 00       	call   ffffffff80005a90 <__ubsan_handle_type_mismatch_v1>
ffffffff800045d8:	48 8b 4c 24 18       	mov    rcx,QWORD PTR [rsp+0x18]
ffffffff800045dd:	4c 8b 44 24 10       	mov    r8,QWORD PTR [rsp+0x10]
ffffffff800045e2:	48 8b 44 24 08       	mov    rax,QWORD PTR [rsp+0x8]
ffffffff800045e7:	e9 e6 fb ff ff       	jmp    ffffffff800041d2 <pmm_init+0x1e2>
ffffffff800045ec:	48 89 ee             	mov    rsi,rbp
ffffffff800045ef:	48 c7 c7 80 f4 00 80 	mov    rdi,0xffffffff8000f480
ffffffff800045f6:	48 89 44 24 18       	mov    QWORD PTR [rsp+0x18],rax
ffffffff800045fb:	48 89 4c 24 10       	mov    QWORD PTR [rsp+0x10],rcx
ffffffff80004600:	4c 89 44 24 08       	mov    QWORD PTR [rsp+0x8],r8
ffffffff80004605:	e8 86 14 00 00       	call   ffffffff80005a90 <__ubsan_handle_type_mismatch_v1>
ffffffff8000460a:	48 8b 44 24 18       	mov    rax,QWORD PTR [rsp+0x18]
ffffffff8000460f:	48 8b 4c 24 10       	mov    rcx,QWORD PTR [rsp+0x10]
ffffffff80004614:	4c 8b 44 24 08       	mov    r8,QWORD PTR [rsp+0x8]
ffffffff80004619:	e9 34 fc ff ff       	jmp    ffffffff80004252 <pmm_init+0x262>
ffffffff8000461e:	48 89 ee             	mov    rsi,rbp
ffffffff80004621:	48 c7 c7 60 f1 00 80 	mov    rdi,0xffffffff8000f160
ffffffff80004628:	e8 63 14 00 00       	call   ffffffff80005a90 <__ubsan_handle_type_mismatch_v1>
ffffffff8000462d:	e9 bc fd ff ff       	jmp    ffffffff800043ee <pmm_init+0x3fe>
ffffffff80004632:	48 89 de             	mov    rsi,rbx
ffffffff80004635:	48 c7 c7 e0 f1 00 80 	mov    rdi,0xffffffff8000f1e0
ffffffff8000463c:	e8 9f 1c 00 00       	call   ffffffff800062e0 <__ubsan_handle_pointer_overflow>
ffffffff80004641:	e9 88 fd ff ff       	jmp    ffffffff800043ce <pmm_init+0x3de>
ffffffff80004646:	48 89 de             	mov    rsi,rbx
ffffffff80004649:	48 c7 c7 00 f2 00 80 	mov    rdi,0xffffffff8000f200
ffffffff80004650:	e8 3b 14 00 00       	call   ffffffff80005a90 <__ubsan_handle_type_mismatch_v1>
ffffffff80004655:	e9 66 fd ff ff       	jmp    ffffffff800043c0 <pmm_init+0x3d0>
ffffffff8000465a:	48 89 de             	mov    rsi,rbx
ffffffff8000465d:	48 c7 c7 20 f2 00 80 	mov    rdi,0xffffffff8000f220
ffffffff80004664:	e8 27 14 00 00       	call   ffffffff80005a90 <__ubsan_handle_type_mismatch_v1>
ffffffff80004669:	e9 3d fd ff ff       	jmp    ffffffff800043ab <pmm_init+0x3bb>
ffffffff8000466e:	48 89 ee             	mov    rsi,rbp
ffffffff80004671:	48 c7 c7 60 f2 00 80 	mov    rdi,0xffffffff8000f260
ffffffff80004678:	e8 13 14 00 00       	call   ffffffff80005a90 <__ubsan_handle_type_mismatch_v1>
ffffffff8000467d:	e9 89 fd ff ff       	jmp    ffffffff8000440b <pmm_init+0x41b>
ffffffff80004682:	48 89 de             	mov    rsi,rbx
ffffffff80004685:	48 c7 c7 c0 f4 00 80 	mov    rdi,0xffffffff8000f4c0
ffffffff8000468c:	48 89 44 24 08       	mov    QWORD PTR [rsp+0x8],rax
ffffffff80004691:	e8 fa 13 00 00       	call   ffffffff80005a90 <__ubsan_handle_type_mismatch_v1>
ffffffff80004696:	48 8b 44 24 08       	mov    rax,QWORD PTR [rsp+0x8]
ffffffff8000469b:	e9 35 fa ff ff       	jmp    ffffffff800040d5 <pmm_init+0xe5>
ffffffff800046a0:	48 89 de             	mov    rsi,rbx
ffffffff800046a3:	48 c7 c7 e0 f4 00 80 	mov    rdi,0xffffffff8000f4e0
ffffffff800046aa:	48 89 44 24 08       	mov    QWORD PTR [rsp+0x8],rax
ffffffff800046af:	e8 dc 13 00 00       	call   ffffffff80005a90 <__ubsan_handle_type_mismatch_v1>
ffffffff800046b4:	48 8b 44 24 08       	mov    rax,QWORD PTR [rsp+0x8]
ffffffff800046b9:	e9 01 fa ff ff       	jmp    ffffffff800040bf <pmm_init+0xcf>
ffffffff800046be:	48 89 de             	mov    rsi,rbx
ffffffff800046c1:	48 c7 c7 a0 f4 00 80 	mov    rdi,0xffffffff8000f4a0
ffffffff800046c8:	48 89 44 24 08       	mov    QWORD PTR [rsp+0x8],rax
ffffffff800046cd:	e8 0e 1c 00 00       	call   ffffffff800062e0 <__ubsan_handle_pointer_overflow>
ffffffff800046d2:	48 8b 44 24 08       	mov    rax,QWORD PTR [rsp+0x8]
ffffffff800046d7:	e9 07 fa ff ff       	jmp    ffffffff800040e3 <pmm_init+0xf3>
ffffffff800046dc:	48 89 de             	mov    rsi,rbx
ffffffff800046df:	48 c7 c7 c0 f1 00 80 	mov    rdi,0xffffffff8000f1c0
ffffffff800046e6:	e8 a5 13 00 00       	call   ffffffff80005a90 <__ubsan_handle_type_mismatch_v1>
ffffffff800046eb:	e9 62 fd ff ff       	jmp    ffffffff80004452 <pmm_init+0x462>
ffffffff800046f0:	48 89 de             	mov    rsi,rbx
ffffffff800046f3:	48 c7 c7 e0 f3 00 80 	mov    rdi,0xffffffff8000f3e0
ffffffff800046fa:	48 89 44 24 18       	mov    QWORD PTR [rsp+0x18],rax
ffffffff800046ff:	48 89 4c 24 10       	mov    QWORD PTR [rsp+0x10],rcx
ffffffff80004704:	4c 89 44 24 08       	mov    QWORD PTR [rsp+0x8],r8
ffffffff80004709:	e8 82 13 00 00       	call   ffffffff80005a90 <__ubsan_handle_type_mismatch_v1>
ffffffff8000470e:	48 8b 44 24 18       	mov    rax,QWORD PTR [rsp+0x18]
ffffffff80004713:	48 8b 4c 24 10       	mov    rcx,QWORD PTR [rsp+0x10]
ffffffff80004718:	4c 8b 44 24 08       	mov    r8,QWORD PTR [rsp+0x8]
ffffffff8000471d:	e9 ec fa ff ff       	jmp    ffffffff8000420e <pmm_init+0x21e>
ffffffff80004722:	48 89 ee             	mov    rsi,rbp
ffffffff80004725:	48 c7 c7 e0 f6 00 80 	mov    rdi,0xffffffff8000f6e0
ffffffff8000472c:	e8 5f 13 00 00       	call   ffffffff80005a90 <__ubsan_handle_type_mismatch_v1>
ffffffff80004731:	e9 de f8 ff ff       	jmp    ffffffff80004014 <pmm_init+0x24>
ffffffff80004736:	48 89 de             	mov    rsi,rbx
ffffffff80004739:	48 c7 c7 80 f5 00 80 	mov    rdi,0xffffffff8000f580
ffffffff80004740:	e8 4b 13 00 00       	call   ffffffff80005a90 <__ubsan_handle_type_mismatch_v1>
ffffffff80004745:	e9 e8 f9 ff ff       	jmp    ffffffff80004132 <pmm_init+0x142>
ffffffff8000474a:	48 89 ee             	mov    rsi,rbp
ffffffff8000474d:	48 c7 c7 a0 f2 00 80 	mov    rdi,0xffffffff8000f2a0
ffffffff80004754:	e8 37 13 00 00       	call   ffffffff80005a90 <__ubsan_handle_type_mismatch_v1>
ffffffff80004759:	e9 1b fc ff ff       	jmp    ffffffff80004379 <pmm_init+0x389>
ffffffff8000475e:	48 89 ee             	mov    rsi,rbp
ffffffff80004761:	48 c7 c7 20 f5 00 80 	mov    rdi,0xffffffff8000f520
ffffffff80004768:	4c 89 44 24 08       	mov    QWORD PTR [rsp+0x8],r8
ffffffff8000476d:	e8 1e 13 00 00       	call   ffffffff80005a90 <__ubsan_handle_type_mismatch_v1>
ffffffff80004772:	4c 8b 44 24 08       	mov    r8,QWORD PTR [rsp+0x8]
ffffffff80004777:	e9 26 fa ff ff       	jmp    ffffffff800041a2 <pmm_init+0x1b2>
ffffffff8000477c:	48 89 de             	mov    rsi,rbx
ffffffff8000477f:	48 c7 c7 a0 f5 00 80 	mov    rdi,0xffffffff8000f5a0
ffffffff80004786:	48 89 44 24 08       	mov    QWORD PTR [rsp+0x8],rax
ffffffff8000478b:	e8 50 1b 00 00       	call   ffffffff800062e0 <__ubsan_handle_pointer_overflow>
ffffffff80004790:	48 8b 44 24 08       	mov    rax,QWORD PTR [rsp+0x8]
ffffffff80004795:	e9 49 f9 ff ff       	jmp    ffffffff800040e3 <pmm_init+0xf3>
ffffffff8000479a:	48 89 de             	mov    rsi,rbx
ffffffff8000479d:	48 c7 c7 40 f5 00 80 	mov    rdi,0xffffffff8000f540
ffffffff800047a4:	4c 89 44 24 08       	mov    QWORD PTR [rsp+0x8],r8
ffffffff800047a9:	e8 32 1b 00 00       	call   ffffffff800062e0 <__ubsan_handle_pointer_overflow>
ffffffff800047ae:	4c 8b 44 24 08       	mov    r8,QWORD PTR [rsp+0x8]
ffffffff800047b3:	e9 9d f9 ff ff       	jmp    ffffffff80004155 <pmm_init+0x165>
ffffffff800047b8:	48 89 de             	mov    rsi,rbx
ffffffff800047bb:	48 c7 c7 60 f5 00 80 	mov    rdi,0xffffffff8000f560
ffffffff800047c2:	4c 89 44 24 08       	mov    QWORD PTR [rsp+0x8],r8
ffffffff800047c7:	e8 c4 12 00 00       	call   ffffffff80005a90 <__ubsan_handle_type_mismatch_v1>
ffffffff800047cc:	4c 8b 44 24 08       	mov    r8,QWORD PTR [rsp+0x8]
ffffffff800047d1:	e9 71 f9 ff ff       	jmp    ffffffff80004147 <pmm_init+0x157>
ffffffff800047d6:	48 89 ee             	mov    rsi,rbp
ffffffff800047d9:	48 c7 c7 a0 f6 00 80 	mov    rdi,0xffffffff8000f6a0
ffffffff800047e0:	e8 ab 12 00 00       	call   ffffffff80005a90 <__ubsan_handle_type_mismatch_v1>
ffffffff800047e5:	e9 53 f8 ff ff       	jmp    ffffffff8000403d <pmm_init+0x4d>
ffffffff800047ea:	48 89 ee             	mov    rsi,rbp
ffffffff800047ed:	48 c7 c7 c0 f6 00 80 	mov    rdi,0xffffffff8000f6c0
ffffffff800047f4:	e8 e7 1a 00 00       	call   ffffffff800062e0 <__ubsan_handle_pointer_overflow>
ffffffff800047f9:	e9 24 f8 ff ff       	jmp    ffffffff80004022 <pmm_init+0x32>
ffffffff800047fe:	48 89 de             	mov    rsi,rbx
ffffffff80004801:	48 c7 c7 c0 f5 00 80 	mov    rdi,0xffffffff8000f5c0
ffffffff80004808:	48 89 44 24 08       	mov    QWORD PTR [rsp+0x8],rax
ffffffff8000480d:	e8 7e 12 00 00       	call   ffffffff80005a90 <__ubsan_handle_type_mismatch_v1>
ffffffff80004812:	48 8b 44 24 08       	mov    rax,QWORD PTR [rsp+0x8]
ffffffff80004817:	e9 78 f8 ff ff       	jmp    ffffffff80004094 <pmm_init+0xa4>
ffffffff8000481c:	48 89 de             	mov    rsi,rbx
ffffffff8000481f:	48 c7 c7 20 f6 00 80 	mov    rdi,0xffffffff8000f620
ffffffff80004826:	48 89 44 24 08       	mov    QWORD PTR [rsp+0x8],rax
ffffffff8000482b:	e8 60 12 00 00       	call   ffffffff80005a90 <__ubsan_handle_type_mismatch_v1>
ffffffff80004830:	48 8b 44 24 08       	mov    rax,QWORD PTR [rsp+0x8]
ffffffff80004835:	e9 45 f8 ff ff       	jmp    ffffffff8000407f <pmm_init+0x8f>
ffffffff8000483a:	48 89 ee             	mov    rsi,rbp
ffffffff8000483d:	48 c7 c7 80 f6 00 80 	mov    rdi,0xffffffff8000f680
ffffffff80004844:	e8 97 1a 00 00       	call   ffffffff800062e0 <__ubsan_handle_pointer_overflow>
ffffffff80004849:	e9 fd f7 ff ff       	jmp    ffffffff8000404b <pmm_init+0x5b>
ffffffff8000484e:	48 89 de             	mov    rsi,rbx
ffffffff80004851:	48 c7 c7 00 f3 00 80 	mov    rdi,0xffffffff8000f300
ffffffff80004858:	4c 89 4c 24 10       	mov    QWORD PTR [rsp+0x10],r9
ffffffff8000485d:	4c 89 44 24 08       	mov    QWORD PTR [rsp+0x8],r8
ffffffff80004862:	e8 29 12 00 00       	call   ffffffff80005a90 <__ubsan_handle_type_mismatch_v1>
ffffffff80004867:	4c 8b 4c 24 10       	mov    r9,QWORD PTR [rsp+0x10]
ffffffff8000486c:	4c 8b 44 24 08       	mov    r8,QWORD PTR [rsp+0x8]
ffffffff80004871:	e9 b2 fa ff ff       	jmp    ffffffff80004328 <pmm_init+0x338>
ffffffff80004876:	48 89 de             	mov    rsi,rbx
ffffffff80004879:	48 c7 c7 e0 f2 00 80 	mov    rdi,0xffffffff8000f2e0
ffffffff80004880:	4c 89 4c 24 10       	mov    QWORD PTR [rsp+0x10],r9
ffffffff80004885:	4c 89 44 24 08       	mov    QWORD PTR [rsp+0x8],r8
ffffffff8000488a:	e8 01 12 00 00       	call   ffffffff80005a90 <__ubsan_handle_type_mismatch_v1>
ffffffff8000488f:	4c 8b 4c 24 10       	mov    r9,QWORD PTR [rsp+0x10]
ffffffff80004894:	4c 8b 44 24 08       	mov    r8,QWORD PTR [rsp+0x8]
ffffffff80004899:	e9 9f fa ff ff       	jmp    ffffffff8000433d <pmm_init+0x34d>
ffffffff8000489e:	48 89 de             	mov    rsi,rbx
ffffffff800048a1:	48 c7 c7 c0 f2 00 80 	mov    rdi,0xffffffff8000f2c0
ffffffff800048a8:	4c 89 4c 24 10       	mov    QWORD PTR [rsp+0x10],r9
ffffffff800048ad:	4c 89 44 24 08       	mov    QWORD PTR [rsp+0x8],r8
ffffffff800048b2:	e8 d9 11 00 00       	call   ffffffff80005a90 <__ubsan_handle_type_mismatch_v1>
ffffffff800048b7:	4c 8b 4c 24 10       	mov    r9,QWORD PTR [rsp+0x10]
ffffffff800048bc:	4c 8b 44 24 08       	mov    r8,QWORD PTR [rsp+0x8]
ffffffff800048c1:	e9 8c fa ff ff       	jmp    ffffffff80004352 <pmm_init+0x362>
ffffffff800048c6:	48 89 de             	mov    rsi,rbx
ffffffff800048c9:	48 c7 c7 c0 f3 00 80 	mov    rdi,0xffffffff8000f3c0
ffffffff800048d0:	4c 89 4c 24 10       	mov    QWORD PTR [rsp+0x10],r9
ffffffff800048d5:	4c 89 44 24 08       	mov    QWORD PTR [rsp+0x8],r8
ffffffff800048da:	e8 b1 11 00 00       	call   ffffffff80005a90 <__ubsan_handle_type_mismatch_v1>
ffffffff800048df:	4c 8b 4c 24 10       	mov    r9,QWORD PTR [rsp+0x10]
ffffffff800048e4:	4c 8b 44 24 08       	mov    r8,QWORD PTR [rsp+0x8]
ffffffff800048e9:	e9 c4 f9 ff ff       	jmp    ffffffff800042b2 <pmm_init+0x2c2>
ffffffff800048ee:	48 c7 c2 e8 00 00 80 	mov    rdx,0xffffffff800000e8
ffffffff800048f5:	48 89 c6             	mov    rsi,rax
ffffffff800048f8:	4c 89 4c 24 10       	mov    QWORD PTR [rsp+0x10],r9
ffffffff800048fd:	48 c7 c7 b0 f3 00 80 	mov    rdi,0xffffffff8000f3b0
ffffffff80004904:	4c 89 44 24 08       	mov    QWORD PTR [rsp+0x8],r8
ffffffff80004909:	e8 d2 19 00 00       	call   ffffffff800062e0 <__ubsan_handle_pointer_overflow>
ffffffff8000490e:	4c 8b 4c 24 10       	mov    r9,QWORD PTR [rsp+0x10]
ffffffff80004913:	4c 8b 44 24 08       	mov    r8,QWORD PTR [rsp+0x8]
ffffffff80004918:	e9 a9 f9 ff ff       	jmp    ffffffff800042c6 <pmm_init+0x2d6>
ffffffff8000491d:	4c 89 e6             	mov    rsi,r12
ffffffff80004920:	48 c7 c7 60 f3 00 80 	mov    rdi,0xffffffff8000f360
ffffffff80004927:	4c 89 4c 24 10       	mov    QWORD PTR [rsp+0x10],r9
ffffffff8000492c:	4c 89 44 24 08       	mov    QWORD PTR [rsp+0x8],r8
ffffffff80004931:	e8 5a 11 00 00       	call   ffffffff80005a90 <__ubsan_handle_type_mismatch_v1>
ffffffff80004936:	4c 8b 4c 24 10       	mov    r9,QWORD PTR [rsp+0x10]
ffffffff8000493b:	4c 8b 44 24 08       	mov    r8,QWORD PTR [rsp+0x8]
ffffffff80004940:	e9 9b f9 ff ff       	jmp    ffffffff800042e0 <pmm_init+0x2f0>
ffffffff80004945:	4c 89 e6             	mov    rsi,r12
ffffffff80004948:	48 c7 c7 40 f3 00 80 	mov    rdi,0xffffffff8000f340
ffffffff8000494f:	4c 89 4c 24 10       	mov    QWORD PTR [rsp+0x10],r9
ffffffff80004954:	4c 89 44 24 08       	mov    QWORD PTR [rsp+0x8],r8
ffffffff80004959:	e8 82 19 00 00       	call   ffffffff800062e0 <__ubsan_handle_pointer_overflow>
ffffffff8000495e:	4c 8b 4c 24 10       	mov    r9,QWORD PTR [rsp+0x10]
ffffffff80004963:	4c 8b 44 24 08       	mov    r8,QWORD PTR [rsp+0x8]
ffffffff80004968:	e9 82 f9 ff ff       	jmp    ffffffff800042ef <pmm_init+0x2ff>
ffffffff8000496d:	48 89 de             	mov    rsi,rbx
ffffffff80004970:	48 c7 c7 20 f3 00 80 	mov    rdi,0xffffffff8000f320
ffffffff80004977:	4c 89 4c 24 10       	mov    QWORD PTR [rsp+0x10],r9
ffffffff8000497c:	4c 89 44 24 08       	mov    QWORD PTR [rsp+0x8],r8
ffffffff80004981:	e8 0a 11 00 00       	call   ffffffff80005a90 <__ubsan_handle_type_mismatch_v1>
ffffffff80004986:	4c 8b 4c 24 10       	mov    r9,QWORD PTR [rsp+0x10]
ffffffff8000498b:	4c 8b 44 24 08       	mov    r8,QWORD PTR [rsp+0x8]
ffffffff80004990:	e9 7e f9 ff ff       	jmp    ffffffff80004313 <pmm_init+0x323>
ffffffff80004995:	66 2e 0f 1f 84 00 00 	cs nop WORD PTR [rax+rax*1+0x0]
ffffffff8000499c:	00 00 00 
ffffffff8000499f:	90                   	nop

ffffffff800049a0 <pmm_alloc>:
ffffffff800049a0:	41 54                	push   r12
ffffffff800049a2:	55                   	push   rbp
ffffffff800049a3:	48 89 fd             	mov    rbp,rdi
ffffffff800049a6:	53                   	push   rbx
ffffffff800049a7:	48 83 ec 20          	sub    rsp,0x20
ffffffff800049ab:	eb 05                	jmp    ffffffff800049b2 <pmm_alloc+0x12>
ffffffff800049ad:	0f 1f 00             	nop    DWORD PTR [rax]
ffffffff800049b0:	f3 90                	pause
ffffffff800049b2:	b8 01 00 00 00       	mov    eax,0x1
ffffffff800049b7:	86 05 b3 e5 00 00    	xchg   BYTE PTR [rip+0xe5b3],al        # ffffffff80012f70 <pmm_lock>
ffffffff800049bd:	84 c0                	test   al,al
ffffffff800049bf:	75 ef                	jne    ffffffff800049b0 <pmm_alloc+0x10>
ffffffff800049c1:	fa                   	cli
ffffffff800049c2:	4c 8b 25 97 e5 00 00 	mov    r12,QWORD PTR [rip+0xe597]        # ffffffff80012f60 <totalpages>
ffffffff800049c9:	4d 85 e4             	test   r12,r12
ffffffff800049cc:	0f 84 29 01 00 00    	je     ffffffff80004afb <pmm_alloc+0x15b>
ffffffff800049d2:	4c 8b 15 7f e5 00 00 	mov    r10,QWORD PTR [rip+0xe57f]        # ffffffff80012f58 <bitmap>
ffffffff800049d9:	45 31 c9             	xor    r9d,r9d
ffffffff800049dc:	31 db                	xor    ebx,ebx
ffffffff800049de:	45 31 db             	xor    r11d,r11d
ffffffff800049e1:	41 b8 01 00 00 00    	mov    r8d,0x1
ffffffff800049e7:	eb 20                	jmp    ffffffff80004a09 <pmm_alloc+0x69>
ffffffff800049e9:	0f 1f 80 00 00 00 00 	nop    DWORD PTR [rax+0x0]
ffffffff800049f0:	49 83 c3 01          	add    r11,0x1
ffffffff800049f4:	4c 89 cb             	mov    rbx,r9
ffffffff800049f7:	49 39 eb             	cmp    r11,rbp
ffffffff800049fa:	74 39                	je     ffffffff80004a35 <pmm_alloc+0x95>
ffffffff800049fc:	49 83 c1 01          	add    r9,0x1
ffffffff80004a00:	4d 39 cc             	cmp    r12,r9
ffffffff80004a03:	0f 84 f2 00 00 00    	je     ffffffff80004afb <pmm_alloc+0x15b>
ffffffff80004a09:	4c 89 c8             	mov    rax,r9
ffffffff80004a0c:	48 c1 e8 03          	shr    rax,0x3
ffffffff80004a10:	4c 01 d0             	add    rax,r10
ffffffff80004a13:	72 64                	jb     ffffffff80004a79 <pmm_alloc+0xd9>
ffffffff80004a15:	48 85 c0             	test   rax,rax
ffffffff80004a18:	0f 84 9e 00 00 00    	je     ffffffff80004abc <pmm_alloc+0x11c>
ffffffff80004a1e:	44 89 c9             	mov    ecx,r9d
ffffffff80004a21:	44 89 c2             	mov    edx,r8d
ffffffff80004a24:	83 e1 07             	and    ecx,0x7
ffffffff80004a27:	d3 e2                	shl    edx,cl
ffffffff80004a29:	84 10                	test   BYTE PTR [rax],dl
ffffffff80004a2b:	74 c3                	je     ffffffff800049f0 <pmm_alloc+0x50>
ffffffff80004a2d:	45 31 db             	xor    r11d,r11d
ffffffff80004a30:	49 39 eb             	cmp    r11,rbp
ffffffff80004a33:	75 c7                	jne    ffffffff800049fc <pmm_alloc+0x5c>
ffffffff80004a35:	4e 8d 24 1b          	lea    r12,[rbx+r11*1]
ffffffff80004a39:	48 89 dd             	mov    rbp,rbx
ffffffff80004a3c:	4d 85 db             	test   r11,r11
ffffffff80004a3f:	74 20                	je     ffffffff80004a61 <pmm_alloc+0xc1>
ffffffff80004a41:	66 66 2e 0f 1f 84 00 	data16 cs nop WORD PTR [rax+rax*1+0x0]
ffffffff80004a48:	00 00 00 00 
ffffffff80004a4c:	0f 1f 40 00          	nop    DWORD PTR [rax+0x0]
ffffffff80004a50:	48 89 ef             	mov    rdi,rbp
ffffffff80004a53:	48 83 c5 01          	add    rbp,0x1
ffffffff80004a57:	e8 d4 f3 ff ff       	call   ffffffff80003e30 <set>
ffffffff80004a5c:	4c 39 e5             	cmp    rbp,r12
ffffffff80004a5f:	75 ef                	jne    ffffffff80004a50 <pmm_alloc+0xb0>
ffffffff80004a61:	c6 05 08 e5 00 00 00 	mov    BYTE PTR [rip+0xe508],0x0        # ffffffff80012f70 <pmm_lock>
ffffffff80004a68:	fb                   	sti
ffffffff80004a69:	48 83 c4 20          	add    rsp,0x20
ffffffff80004a6d:	48 89 d8             	mov    rax,rbx
ffffffff80004a70:	48 c1 e0 0c          	shl    rax,0xc
ffffffff80004a74:	5b                   	pop    rbx
ffffffff80004a75:	5d                   	pop    rbp
ffffffff80004a76:	41 5c                	pop    r12
ffffffff80004a78:	c3                   	ret
ffffffff80004a79:	48 89 c2             	mov    rdx,rax
ffffffff80004a7c:	4c 89 d6             	mov    rsi,r10
ffffffff80004a7f:	4c 89 4c 24 18       	mov    QWORD PTR [rsp+0x18],r9
ffffffff80004a84:	48 c7 c7 40 f1 00 80 	mov    rdi,0xffffffff8000f140
ffffffff80004a8b:	4c 89 5c 24 10       	mov    QWORD PTR [rsp+0x10],r11
ffffffff80004a90:	48 89 44 24 08       	mov    QWORD PTR [rsp+0x8],rax
ffffffff80004a95:	4c 89 14 24          	mov    QWORD PTR [rsp],r10
ffffffff80004a99:	e8 42 18 00 00       	call   ffffffff800062e0 <__ubsan_handle_pointer_overflow>
ffffffff80004a9e:	4c 8b 4c 24 18       	mov    r9,QWORD PTR [rsp+0x18]
ffffffff80004aa3:	4c 8b 5c 24 10       	mov    r11,QWORD PTR [rsp+0x10]
ffffffff80004aa8:	41 b8 01 00 00 00    	mov    r8d,0x1
ffffffff80004aae:	48 8b 44 24 08       	mov    rax,QWORD PTR [rsp+0x8]
ffffffff80004ab3:	4c 8b 14 24          	mov    r10,QWORD PTR [rsp]
ffffffff80004ab7:	e9 59 ff ff ff       	jmp    ffffffff80004a15 <pmm_alloc+0x75>
ffffffff80004abc:	31 f6                	xor    esi,esi
ffffffff80004abe:	48 c7 c7 20 f1 00 80 	mov    rdi,0xffffffff8000f120
ffffffff80004ac5:	48 89 44 24 18       	mov    QWORD PTR [rsp+0x18],rax
ffffffff80004aca:	4c 89 54 24 10       	mov    QWORD PTR [rsp+0x10],r10
ffffffff80004acf:	4c 89 4c 24 08       	mov    QWORD PTR [rsp+0x8],r9
ffffffff80004ad4:	4c 89 1c 24          	mov    QWORD PTR [rsp],r11
ffffffff80004ad8:	e8 b3 0f 00 00       	call   ffffffff80005a90 <__ubsan_handle_type_mismatch_v1>
ffffffff80004add:	48 8b 44 24 18       	mov    rax,QWORD PTR [rsp+0x18]
ffffffff80004ae2:	4c 8b 54 24 10       	mov    r10,QWORD PTR [rsp+0x10]
ffffffff80004ae7:	41 b8 01 00 00 00    	mov    r8d,0x1
ffffffff80004aed:	4c 8b 4c 24 08       	mov    r9,QWORD PTR [rsp+0x8]
ffffffff80004af2:	4c 8b 1c 24          	mov    r11,QWORD PTR [rsp]
ffffffff80004af6:	e9 23 ff ff ff       	jmp    ffffffff80004a1e <pmm_alloc+0x7e>
ffffffff80004afb:	c6 05 6e e4 00 00 00 	mov    BYTE PTR [rip+0xe46e],0x0        # ffffffff80012f70 <pmm_lock>
ffffffff80004b02:	fb                   	sti
ffffffff80004b03:	48 c7 c7 34 c1 00 80 	mov    rdi,0xffffffff8000c134
ffffffff80004b0a:	49 89 e8             	mov    r8,rbp
ffffffff80004b0d:	31 c0                	xor    eax,eax
ffffffff80004b0f:	48 c7 c1 28 c9 00 80 	mov    rcx,0xffffffff8000c928
ffffffff80004b16:	ba 71 00 00 00       	mov    edx,0x71
ffffffff80004b1b:	48 c7 c6 18 cd 00 80 	mov    rsi,0xffffffff8000cd18
ffffffff80004b22:	e8 39 dd ff ff       	call   ffffffff80002860 <log>
ffffffff80004b27:	e8 94 dc ff ff       	call   ffffffff800027c0 <hcf>
ffffffff80004b2c:	48 c7 c7 c0 f7 00 80 	mov    rdi,0xffffffff8000f7c0
ffffffff80004b33:	e8 d8 1b 00 00       	call   ffffffff80006710 <__ubsan_handle_builtin_unreachable>
ffffffff80004b38:	0f 1f 84 00 00 00 00 	nop    DWORD PTR [rax+rax*1+0x0]
ffffffff80004b3f:	00 

ffffffff80004b40 <pmm_allocz>:
ffffffff80004b40:	55                   	push   rbp
ffffffff80004b41:	48 89 fd             	mov    rbp,rdi
ffffffff80004b44:	53                   	push   rbx
ffffffff80004b45:	48 83 ec 18          	sub    rsp,0x18
ffffffff80004b49:	e8 52 fe ff ff       	call   ffffffff800049a0 <pmm_alloc>
ffffffff80004b4e:	48 c7 c2 c0 00 00 80 	mov    rdx,0xffffffff800000c0
ffffffff80004b55:	48 83 fa d8          	cmp    rdx,0xffffffffffffffd8
ffffffff80004b59:	73 69                	jae    ffffffff80004bc4 <pmm_allocz+0x84>
ffffffff80004b5b:	48 8b 1d 86 b5 ff ff 	mov    rbx,QWORD PTR [rip+0xffffffffffffb586]        # ffffffff800000e8 <hhdm_request+0x28>
ffffffff80004b62:	48 85 db             	test   rbx,rbx
ffffffff80004b65:	0f 84 c2 00 00 00    	je     ffffffff80004c2d <pmm_allocz+0xed>
ffffffff80004b6b:	f6 c3 07             	test   bl,0x7
ffffffff80004b6e:	0f 85 b9 00 00 00    	jne    ffffffff80004c2d <pmm_allocz+0xed>
ffffffff80004b74:	48 8d 53 08          	lea    rdx,[rbx+0x8]
ffffffff80004b78:	48 83 fb f8          	cmp    rbx,0xfffffffffffffff8
ffffffff80004b7c:	0f 83 8d 00 00 00    	jae    ffffffff80004c0f <pmm_allocz+0xcf>
ffffffff80004b82:	48 03 43 08          	add    rax,QWORD PTR [rbx+0x8]
ffffffff80004b86:	48 89 ea             	mov    rdx,rbp
ffffffff80004b89:	31 f6                	xor    esi,esi
ffffffff80004b8b:	48 c1 e2 0c          	shl    rdx,0xc
ffffffff80004b8f:	48 89 c7             	mov    rdi,rax
ffffffff80004b92:	48 89 c3             	mov    rbx,rax
ffffffff80004b95:	e8 56 5e 00 00       	call   ffffffff8000a9f0 <memset>
ffffffff80004b9a:	48 8b 2d 47 b5 ff ff 	mov    rbp,QWORD PTR [rip+0xffffffffffffb547]        # ffffffff800000e8 <hhdm_request+0x28>
ffffffff80004ba1:	48 85 ed             	test   rbp,rbp
ffffffff80004ba4:	74 58                	je     ffffffff80004bfe <pmm_allocz+0xbe>
ffffffff80004ba6:	40 f6 c5 07          	test   bpl,0x7
ffffffff80004baa:	75 52                	jne    ffffffff80004bfe <pmm_allocz+0xbe>
ffffffff80004bac:	48 8d 55 08          	lea    rdx,[rbp+0x8]
ffffffff80004bb0:	48 83 fd f8          	cmp    rbp,0xfffffffffffffff8
ffffffff80004bb4:	73 37                	jae    ffffffff80004bed <pmm_allocz+0xad>
ffffffff80004bb6:	48 89 d8             	mov    rax,rbx
ffffffff80004bb9:	48 2b 45 08          	sub    rax,QWORD PTR [rbp+0x8]
ffffffff80004bbd:	48 83 c4 18          	add    rsp,0x18
ffffffff80004bc1:	5b                   	pop    rbx
ffffffff80004bc2:	5d                   	pop    rbp
ffffffff80004bc3:	c3                   	ret
ffffffff80004bc4:	48 c7 c2 e8 00 00 80 	mov    rdx,0xffffffff800000e8
ffffffff80004bcb:	48 c7 c6 c0 00 00 80 	mov    rsi,0xffffffff800000c0
ffffffff80004bd2:	48 89 44 24 08       	mov    QWORD PTR [rsp+0x8],rax
ffffffff80004bd7:	48 c7 c7 00 f1 00 80 	mov    rdi,0xffffffff8000f100
ffffffff80004bde:	e8 fd 16 00 00       	call   ffffffff800062e0 <__ubsan_handle_pointer_overflow>
ffffffff80004be3:	48 8b 44 24 08       	mov    rax,QWORD PTR [rsp+0x8]
ffffffff80004be8:	e9 6e ff ff ff       	jmp    ffffffff80004b5b <pmm_allocz+0x1b>
ffffffff80004bed:	48 89 ee             	mov    rsi,rbp
ffffffff80004bf0:	48 c7 c7 80 f0 00 80 	mov    rdi,0xffffffff8000f080
ffffffff80004bf7:	e8 e4 16 00 00       	call   ffffffff800062e0 <__ubsan_handle_pointer_overflow>
ffffffff80004bfc:	eb b8                	jmp    ffffffff80004bb6 <pmm_allocz+0x76>
ffffffff80004bfe:	48 89 ee             	mov    rsi,rbp
ffffffff80004c01:	48 c7 c7 a0 f0 00 80 	mov    rdi,0xffffffff8000f0a0
ffffffff80004c08:	e8 83 0e 00 00       	call   ffffffff80005a90 <__ubsan_handle_type_mismatch_v1>
ffffffff80004c0d:	eb 9d                	jmp    ffffffff80004bac <pmm_allocz+0x6c>
ffffffff80004c0f:	48 89 de             	mov    rsi,rbx
ffffffff80004c12:	48 c7 c7 c0 f0 00 80 	mov    rdi,0xffffffff8000f0c0
ffffffff80004c19:	48 89 44 24 08       	mov    QWORD PTR [rsp+0x8],rax
ffffffff80004c1e:	e8 bd 16 00 00       	call   ffffffff800062e0 <__ubsan_handle_pointer_overflow>
ffffffff80004c23:	48 8b 44 24 08       	mov    rax,QWORD PTR [rsp+0x8]
ffffffff80004c28:	e9 55 ff ff ff       	jmp    ffffffff80004b82 <pmm_allocz+0x42>
ffffffff80004c2d:	48 89 de             	mov    rsi,rbx
ffffffff80004c30:	48 c7 c7 e0 f0 00 80 	mov    rdi,0xffffffff8000f0e0
ffffffff80004c37:	48 89 44 24 08       	mov    QWORD PTR [rsp+0x8],rax
ffffffff80004c3c:	e8 4f 0e 00 00       	call   ffffffff80005a90 <__ubsan_handle_type_mismatch_v1>
ffffffff80004c41:	48 8b 44 24 08       	mov    rax,QWORD PTR [rsp+0x8]
ffffffff80004c46:	e9 29 ff ff ff       	jmp    ffffffff80004b74 <pmm_allocz+0x34>
ffffffff80004c4b:	0f 1f 44 00 00       	nop    DWORD PTR [rax+rax*1+0x0]

ffffffff80004c50 <vmm_switch>:
ffffffff80004c50:	48 83 ec 18          	sub    rsp,0x18
ffffffff80004c54:	48 89 f9             	mov    rcx,rdi
ffffffff80004c57:	eb 09                	jmp    ffffffff80004c62 <vmm_switch+0x12>
ffffffff80004c59:	0f 1f 80 00 00 00 00 	nop    DWORD PTR [rax+0x0]
ffffffff80004c60:	f3 90                	pause
ffffffff80004c62:	b8 01 00 00 00       	mov    eax,0x1
ffffffff80004c67:	86 05 13 e3 00 00    	xchg   BYTE PTR [rip+0xe313],al        # ffffffff80012f80 <vmm_lock>
ffffffff80004c6d:	84 c0                	test   al,al
ffffffff80004c6f:	75 ef                	jne    ffffffff80004c60 <vmm_switch+0x10>
ffffffff80004c71:	fa                   	cli
ffffffff80004c72:	48 85 c9             	test   rcx,rcx
ffffffff80004c75:	74 18                	je     ffffffff80004c8f <vmm_switch+0x3f>
ffffffff80004c77:	f6 c1 07             	test   cl,0x7
ffffffff80004c7a:	75 13                	jne    ffffffff80004c8f <vmm_switch+0x3f>
ffffffff80004c7c:	48 8b 01             	mov    rax,QWORD PTR [rcx]
ffffffff80004c7f:	0f 22 d8             	mov    cr3,rax
ffffffff80004c82:	c6 05 f7 e2 00 00 00 	mov    BYTE PTR [rip+0xe2f7],0x0        # ffffffff80012f80 <vmm_lock>
ffffffff80004c89:	fb                   	sti
ffffffff80004c8a:	48 83 c4 18          	add    rsp,0x18
ffffffff80004c8e:	c3                   	ret
ffffffff80004c8f:	48 89 ce             	mov    rsi,rcx
ffffffff80004c92:	48 c7 c7 c0 fe 00 80 	mov    rdi,0xffffffff8000fec0
ffffffff80004c99:	48 89 4c 24 08       	mov    QWORD PTR [rsp+0x8],rcx
ffffffff80004c9e:	e8 ed 0d 00 00       	call   ffffffff80005a90 <__ubsan_handle_type_mismatch_v1>
ffffffff80004ca3:	48 8b 4c 24 08       	mov    rcx,QWORD PTR [rsp+0x8]
ffffffff80004ca8:	eb d2                	jmp    ffffffff80004c7c <vmm_switch+0x2c>
ffffffff80004caa:	66 0f 1f 44 00 00    	nop    WORD PTR [rax+rax*1+0x0]

ffffffff80004cb0 <vmm_map>:
ffffffff80004cb0:	41 55                	push   r13
ffffffff80004cb2:	49 89 f9             	mov    r9,rdi
ffffffff80004cb5:	41 54                	push   r12
ffffffff80004cb7:	55                   	push   rbp
ffffffff80004cb8:	48 89 cd             	mov    rbp,rcx
ffffffff80004cbb:	53                   	push   rbx
ffffffff80004cbc:	48 89 f3             	mov    rbx,rsi
ffffffff80004cbf:	48 83 ec 28          	sub    rsp,0x28
ffffffff80004cc3:	eb 0d                	jmp    ffffffff80004cd2 <vmm_map+0x22>
ffffffff80004cc5:	66 66 2e 0f 1f 84 00 	data16 cs nop WORD PTR [rax+rax*1+0x0]
ffffffff80004ccc:	00 00 00 00 
ffffffff80004cd0:	f3 90                	pause
ffffffff80004cd2:	b8 01 00 00 00       	mov    eax,0x1
ffffffff80004cd7:	86 05 a3 e2 00 00    	xchg   BYTE PTR [rip+0xe2a3],al        # ffffffff80012f80 <vmm_lock>
ffffffff80004cdd:	84 c0                	test   al,al
ffffffff80004cdf:	75 ef                	jne    ffffffff80004cd0 <vmm_map+0x20>
ffffffff80004ce1:	fa                   	cli
ffffffff80004ce2:	49 89 d4             	mov    r12,rdx
ffffffff80004ce5:	49 89 d5             	mov    r13,rdx
ffffffff80004ce8:	49 89 d0             	mov    r8,rdx
ffffffff80004ceb:	48 c1 ea 27          	shr    rdx,0x27
ffffffff80004cef:	49 c1 ec 0c          	shr    r12,0xc
ffffffff80004cf3:	49 c1 ed 15          	shr    r13,0x15
ffffffff80004cf7:	48 89 d0             	mov    rax,rdx
ffffffff80004cfa:	49 c1 e8 1e          	shr    r8,0x1e
ffffffff80004cfe:	41 81 e4 ff 01 00 00 	and    r12d,0x1ff
ffffffff80004d05:	25 ff 01 00 00       	and    eax,0x1ff
ffffffff80004d0a:	41 81 e5 ff 01 00 00 	and    r13d,0x1ff
ffffffff80004d11:	41 81 e0 ff 01 00 00 	and    r8d,0x1ff
ffffffff80004d18:	4d 85 c9             	test   r9,r9
ffffffff80004d1b:	0f 84 7b 03 00 00    	je     ffffffff8000509c <vmm_map+0x3ec>
ffffffff80004d21:	41 f6 c1 07          	test   r9b,0x7
ffffffff80004d25:	0f 85 71 03 00 00    	jne    ffffffff8000509c <vmm_map+0x3ec>
ffffffff80004d2b:	48 c7 c2 c0 00 00 80 	mov    rdx,0xffffffff800000c0
ffffffff80004d32:	49 8b 09             	mov    rcx,QWORD PTR [r9]
ffffffff80004d35:	48 83 fa d8          	cmp    rdx,0xffffffffffffffd8
ffffffff80004d39:	0f 83 22 03 00 00    	jae    ffffffff80005061 <vmm_map+0x3b1>
ffffffff80004d3f:	48 8b 35 a2 b3 ff ff 	mov    rsi,QWORD PTR [rip+0xffffffffffffb3a2]        # ffffffff800000e8 <hhdm_request+0x28>
ffffffff80004d46:	48 85 f6             	test   rsi,rsi
ffffffff80004d49:	0f 84 db 02 00 00    	je     ffffffff8000502a <vmm_map+0x37a>
ffffffff80004d4f:	40 f6 c6 07          	test   sil,0x7
ffffffff80004d53:	0f 85 d1 02 00 00    	jne    ffffffff8000502a <vmm_map+0x37a>
ffffffff80004d59:	48 8d 56 08          	lea    rdx,[rsi+0x8]
ffffffff80004d5d:	48 83 fe f8          	cmp    rsi,0xfffffffffffffff8
ffffffff80004d61:	0f 83 8c 02 00 00    	jae    ffffffff80004ff3 <vmm_map+0x343>
ffffffff80004d67:	48 03 4e 08          	add    rcx,QWORD PTR [rsi+0x8]
ffffffff80004d6b:	48 8d 14 c1          	lea    rdx,[rcx+rax*8]
ffffffff80004d6f:	48 39 ca             	cmp    rdx,rcx
ffffffff80004d72:	0f 82 17 05 00 00    	jb     ffffffff8000528f <vmm_map+0x5df>
ffffffff80004d78:	48 85 d2             	test   rdx,rdx
ffffffff80004d7b:	0f 84 de 04 00 00    	je     ffffffff8000525f <vmm_map+0x5af>
ffffffff80004d81:	f6 c2 07             	test   dl,0x7
ffffffff80004d84:	0f 85 d5 04 00 00    	jne    ffffffff8000525f <vmm_map+0x5af>
ffffffff80004d8a:	f6 02 01             	test   BYTE PTR [rdx],0x1
ffffffff80004d8d:	0f 84 8d 01 00 00    	je     ffffffff80004f20 <vmm_map+0x270>
ffffffff80004d93:	48 39 ca             	cmp    rdx,rcx
ffffffff80004d96:	0f 82 9d 04 00 00    	jb     ffffffff80005239 <vmm_map+0x589>
ffffffff80004d9c:	48 85 d2             	test   rdx,rdx
ffffffff80004d9f:	0f 84 6e 04 00 00    	je     ffffffff80005213 <vmm_map+0x563>
ffffffff80004da5:	f6 c2 07             	test   dl,0x7
ffffffff80004da8:	0f 85 65 04 00 00    	jne    ffffffff80005213 <vmm_map+0x563>
ffffffff80004dae:	48 8b 05 33 b3 ff ff 	mov    rax,QWORD PTR [rip+0xffffffffffffb333]        # ffffffff800000e8 <hhdm_request+0x28>
ffffffff80004db5:	48 b9 00 f0 ff ff ff 	movabs rcx,0x7fffffffff000
ffffffff80004dbc:	ff 07 00 
ffffffff80004dbf:	48 23 0a             	and    rcx,QWORD PTR [rdx]
ffffffff80004dc2:	48 85 c0             	test   rax,rax
ffffffff80004dc5:	0f 84 18 04 00 00    	je     ffffffff800051e3 <vmm_map+0x533>
ffffffff80004dcb:	a8 07                	test   al,0x7
ffffffff80004dcd:	0f 85 10 04 00 00    	jne    ffffffff800051e3 <vmm_map+0x533>
ffffffff80004dd3:	48 8d 50 08          	lea    rdx,[rax+0x8]
ffffffff80004dd7:	48 83 f8 f8          	cmp    rax,0xfffffffffffffff8
ffffffff80004ddb:	0f 83 d2 03 00 00    	jae    ffffffff800051b3 <vmm_map+0x503>
ffffffff80004de1:	48 03 48 08          	add    rcx,QWORD PTR [rax+0x8]
ffffffff80004de5:	4a 8d 14 c1          	lea    rdx,[rcx+r8*8]
ffffffff80004de9:	48 39 ca             	cmp    rdx,rcx
ffffffff80004dec:	0f 82 9b 03 00 00    	jb     ffffffff8000518d <vmm_map+0x4dd>
ffffffff80004df2:	48 85 d2             	test   rdx,rdx
ffffffff80004df5:	0f 84 6c 03 00 00    	je     ffffffff80005167 <vmm_map+0x4b7>
ffffffff80004dfb:	f6 c2 07             	test   dl,0x7
ffffffff80004dfe:	0f 85 63 03 00 00    	jne    ffffffff80005167 <vmm_map+0x4b7>
ffffffff80004e04:	f6 02 01             	test   BYTE PTR [rdx],0x1
ffffffff80004e07:	0f 84 a3 01 00 00    	je     ffffffff80004fb0 <vmm_map+0x300>
ffffffff80004e0d:	48 39 ca             	cmp    rdx,rcx
ffffffff80004e10:	0f 82 35 03 00 00    	jb     ffffffff8000514b <vmm_map+0x49b>
ffffffff80004e16:	48 85 d2             	test   rdx,rdx
ffffffff80004e19:	0f 84 36 05 00 00    	je     ffffffff80005355 <vmm_map+0x6a5>
ffffffff80004e1f:	f6 c2 07             	test   dl,0x7
ffffffff80004e22:	0f 85 2d 05 00 00    	jne    ffffffff80005355 <vmm_map+0x6a5>
ffffffff80004e28:	48 8b 05 b9 b2 ff ff 	mov    rax,QWORD PTR [rip+0xffffffffffffb2b9]        # ffffffff800000e8 <hhdm_request+0x28>
ffffffff80004e2f:	48 b9 00 f0 ff ff ff 	movabs rcx,0x7fffffffff000
ffffffff80004e36:	ff 07 00 
ffffffff80004e39:	48 23 0a             	and    rcx,QWORD PTR [rdx]
ffffffff80004e3c:	48 85 c0             	test   rax,rax
ffffffff80004e3f:	0f 84 ea 04 00 00    	je     ffffffff8000532f <vmm_map+0x67f>
ffffffff80004e45:	a8 07                	test   al,0x7
ffffffff80004e47:	0f 85 e2 04 00 00    	jne    ffffffff8000532f <vmm_map+0x67f>
ffffffff80004e4d:	48 8d 50 08          	lea    rdx,[rax+0x8]
ffffffff80004e51:	48 83 f8 f8          	cmp    rax,0xfffffffffffffff8
ffffffff80004e55:	0f 83 ae 04 00 00    	jae    ffffffff80005309 <vmm_map+0x659>
ffffffff80004e5b:	48 03 48 08          	add    rcx,QWORD PTR [rax+0x8]
ffffffff80004e5f:	4e 8d 2c e9          	lea    r13,[rcx+r13*8]
ffffffff80004e63:	49 39 cd             	cmp    r13,rcx
ffffffff80004e66:	0f 82 7e 04 00 00    	jb     ffffffff800052ea <vmm_map+0x63a>
ffffffff80004e6c:	4d 85 ed             	test   r13,r13
ffffffff80004e6f:	0f 84 ba 02 00 00    	je     ffffffff8000512f <vmm_map+0x47f>
ffffffff80004e75:	41 f6 c5 07          	test   r13b,0x7
ffffffff80004e79:	0f 85 b0 02 00 00    	jne    ffffffff8000512f <vmm_map+0x47f>
ffffffff80004e7f:	41 f6 45 00 01       	test   BYTE PTR [r13+0x0],0x1
ffffffff80004e84:	0f 84 e6 00 00 00    	je     ffffffff80004f70 <vmm_map+0x2c0>
ffffffff80004e8a:	49 39 cd             	cmp    r13,rcx
ffffffff80004e8d:	0f 82 40 04 00 00    	jb     ffffffff800052d3 <vmm_map+0x623>
ffffffff80004e93:	4d 85 ed             	test   r13,r13
ffffffff80004e96:	0f 84 23 04 00 00    	je     ffffffff800052bf <vmm_map+0x60f>
ffffffff80004e9c:	41 f6 c5 07          	test   r13b,0x7
ffffffff80004ea0:	0f 85 19 04 00 00    	jne    ffffffff800052bf <vmm_map+0x60f>
ffffffff80004ea6:	48 8b 05 3b b2 ff ff 	mov    rax,QWORD PTR [rip+0xffffffffffffb23b]        # ffffffff800000e8 <hhdm_request+0x28>
ffffffff80004ead:	48 be 00 f0 ff ff ff 	movabs rsi,0x7fffffffff000
ffffffff80004eb4:	ff 07 00 
ffffffff80004eb7:	49 23 75 00          	and    rsi,QWORD PTR [r13+0x0]
ffffffff80004ebb:	49 89 f5             	mov    r13,rsi
ffffffff80004ebe:	48 85 c0             	test   rax,rax
ffffffff80004ec1:	0f 84 4c 02 00 00    	je     ffffffff80005113 <vmm_map+0x463>
ffffffff80004ec7:	a8 07                	test   al,0x7
ffffffff80004ec9:	0f 85 44 02 00 00    	jne    ffffffff80005113 <vmm_map+0x463>
ffffffff80004ecf:	48 8d 50 08          	lea    rdx,[rax+0x8]
ffffffff80004ed3:	48 83 f8 f8          	cmp    rax,0xfffffffffffffff8
ffffffff80004ed7:	0f 83 1a 02 00 00    	jae    ffffffff800050f7 <vmm_map+0x447>
ffffffff80004edd:	4c 03 68 08          	add    r13,QWORD PTR [rax+0x8]
ffffffff80004ee1:	4f 8d 64 e5 00       	lea    r12,[r13+r12*8+0x0]
ffffffff80004ee6:	4d 39 ec             	cmp    r12,r13
ffffffff80004ee9:	0f 82 f1 01 00 00    	jb     ffffffff800050e0 <vmm_map+0x430>
ffffffff80004eef:	48 09 eb             	or     rbx,rbp
ffffffff80004ef2:	4d 85 e4             	test   r12,r12
ffffffff80004ef5:	0f 84 d1 01 00 00    	je     ffffffff800050cc <vmm_map+0x41c>
ffffffff80004efb:	41 f6 c4 07          	test   r12b,0x7
ffffffff80004eff:	0f 85 c7 01 00 00    	jne    ffffffff800050cc <vmm_map+0x41c>
ffffffff80004f05:	49 89 1c 24          	mov    QWORD PTR [r12],rbx
ffffffff80004f09:	c6 05 70 e0 00 00 00 	mov    BYTE PTR [rip+0xe070],0x0        # ffffffff80012f80 <vmm_lock>
ffffffff80004f10:	fb                   	sti
ffffffff80004f11:	48 83 c4 28          	add    rsp,0x28
ffffffff80004f15:	5b                   	pop    rbx
ffffffff80004f16:	5d                   	pop    rbp
ffffffff80004f17:	41 5c                	pop    r12
ffffffff80004f19:	41 5d                	pop    r13
ffffffff80004f1b:	c3                   	ret
ffffffff80004f1c:	0f 1f 40 00          	nop    DWORD PTR [rax+0x0]
ffffffff80004f20:	bf 01 00 00 00       	mov    edi,0x1
ffffffff80004f25:	48 89 54 24 10       	mov    QWORD PTR [rsp+0x10],rdx
ffffffff80004f2a:	48 89 4c 24 08       	mov    QWORD PTR [rsp+0x8],rcx
ffffffff80004f2f:	4c 89 04 24          	mov    QWORD PTR [rsp],r8
ffffffff80004f33:	e8 08 fc ff ff       	call   ffffffff80004b40 <pmm_allocz>
ffffffff80004f38:	48 8b 4c 24 08       	mov    rcx,QWORD PTR [rsp+0x8]
ffffffff80004f3d:	48 8b 54 24 10       	mov    rdx,QWORD PTR [rsp+0x10]
ffffffff80004f42:	4c 8b 04 24          	mov    r8,QWORD PTR [rsp]
ffffffff80004f46:	48 39 ca             	cmp    rdx,rcx
ffffffff80004f49:	0f 82 fe 04 00 00    	jb     ffffffff8000544d <vmm_map+0x79d>
ffffffff80004f4f:	48 83 c8 03          	or     rax,0x3
ffffffff80004f53:	48 85 d2             	test   rdx,rdx
ffffffff80004f56:	0f 84 15 04 00 00    	je     ffffffff80005371 <vmm_map+0x6c1>
ffffffff80004f5c:	f6 c2 07             	test   dl,0x7
ffffffff80004f5f:	0f 85 0c 04 00 00    	jne    ffffffff80005371 <vmm_map+0x6c1>
ffffffff80004f65:	48 89 02             	mov    QWORD PTR [rdx],rax
ffffffff80004f68:	e9 26 fe ff ff       	jmp    ffffffff80004d93 <vmm_map+0xe3>
ffffffff80004f6d:	0f 1f 00             	nop    DWORD PTR [rax]
ffffffff80004f70:	bf 01 00 00 00       	mov    edi,0x1
ffffffff80004f75:	48 89 0c 24          	mov    QWORD PTR [rsp],rcx
ffffffff80004f79:	e8 c2 fb ff ff       	call   ffffffff80004b40 <pmm_allocz>
ffffffff80004f7e:	48 8b 0c 24          	mov    rcx,QWORD PTR [rsp]
ffffffff80004f82:	49 39 cd             	cmp    r13,rcx
ffffffff80004f85:	0f 82 50 04 00 00    	jb     ffffffff800053db <vmm_map+0x72b>
ffffffff80004f8b:	48 83 c8 03          	or     rax,0x3
ffffffff80004f8f:	4d 85 ed             	test   r13,r13
ffffffff80004f92:	0f 84 68 04 00 00    	je     ffffffff80005400 <vmm_map+0x750>
ffffffff80004f98:	41 f6 c5 07          	test   r13b,0x7
ffffffff80004f9c:	0f 85 5e 04 00 00    	jne    ffffffff80005400 <vmm_map+0x750>
ffffffff80004fa2:	49 89 45 00          	mov    QWORD PTR [r13+0x0],rax
ffffffff80004fa6:	e9 df fe ff ff       	jmp    ffffffff80004e8a <vmm_map+0x1da>
ffffffff80004fab:	0f 1f 44 00 00       	nop    DWORD PTR [rax+rax*1+0x0]
ffffffff80004fb0:	bf 01 00 00 00       	mov    edi,0x1
ffffffff80004fb5:	48 89 54 24 08       	mov    QWORD PTR [rsp+0x8],rdx
ffffffff80004fba:	48 89 0c 24          	mov    QWORD PTR [rsp],rcx
ffffffff80004fbe:	e8 7d fb ff ff       	call   ffffffff80004b40 <pmm_allocz>
ffffffff80004fc3:	48 8b 0c 24          	mov    rcx,QWORD PTR [rsp]
ffffffff80004fc7:	48 8b 54 24 08       	mov    rdx,QWORD PTR [rsp+0x8]
ffffffff80004fcc:	48 39 ca             	cmp    rdx,rcx
ffffffff80004fcf:	0f 82 51 04 00 00    	jb     ffffffff80005426 <vmm_map+0x776>
ffffffff80004fd5:	48 83 c8 03          	or     rax,0x3
ffffffff80004fd9:	48 85 d2             	test   rdx,rdx
ffffffff80004fdc:	0f 84 c9 03 00 00    	je     ffffffff800053ab <vmm_map+0x6fb>
ffffffff80004fe2:	f6 c2 07             	test   dl,0x7
ffffffff80004fe5:	0f 85 c0 03 00 00    	jne    ffffffff800053ab <vmm_map+0x6fb>
ffffffff80004feb:	48 89 02             	mov    QWORD PTR [rdx],rax
ffffffff80004fee:	e9 1a fe ff ff       	jmp    ffffffff80004e0d <vmm_map+0x15d>
ffffffff80004ff3:	48 c7 c7 30 fe 00 80 	mov    rdi,0xffffffff8000fe30
ffffffff80004ffa:	48 89 44 24 18       	mov    QWORD PTR [rsp+0x18],rax
ffffffff80004fff:	4c 89 44 24 10       	mov    QWORD PTR [rsp+0x10],r8
ffffffff80005004:	48 89 4c 24 08       	mov    QWORD PTR [rsp+0x8],rcx
ffffffff80005009:	48 89 34 24          	mov    QWORD PTR [rsp],rsi
ffffffff8000500d:	e8 ce 12 00 00       	call   ffffffff800062e0 <__ubsan_handle_pointer_overflow>
ffffffff80005012:	48 8b 44 24 18       	mov    rax,QWORD PTR [rsp+0x18]
ffffffff80005017:	4c 8b 44 24 10       	mov    r8,QWORD PTR [rsp+0x10]
ffffffff8000501c:	48 8b 4c 24 08       	mov    rcx,QWORD PTR [rsp+0x8]
ffffffff80005021:	48 8b 34 24          	mov    rsi,QWORD PTR [rsp]
ffffffff80005025:	e9 3d fd ff ff       	jmp    ffffffff80004d67 <vmm_map+0xb7>
ffffffff8000502a:	48 c7 c7 40 fe 00 80 	mov    rdi,0xffffffff8000fe40
ffffffff80005031:	48 89 44 24 18       	mov    QWORD PTR [rsp+0x18],rax
ffffffff80005036:	4c 89 44 24 10       	mov    QWORD PTR [rsp+0x10],r8
ffffffff8000503b:	48 89 4c 24 08       	mov    QWORD PTR [rsp+0x8],rcx
ffffffff80005040:	48 89 34 24          	mov    QWORD PTR [rsp],rsi
ffffffff80005044:	e8 47 0a 00 00       	call   ffffffff80005a90 <__ubsan_handle_type_mismatch_v1>
ffffffff80005049:	48 8b 44 24 18       	mov    rax,QWORD PTR [rsp+0x18]
ffffffff8000504e:	4c 8b 44 24 10       	mov    r8,QWORD PTR [rsp+0x10]
ffffffff80005053:	48 8b 4c 24 08       	mov    rcx,QWORD PTR [rsp+0x8]
ffffffff80005058:	48 8b 34 24          	mov    rsi,QWORD PTR [rsp]
ffffffff8000505c:	e9 f8 fc ff ff       	jmp    ffffffff80004d59 <vmm_map+0xa9>
ffffffff80005061:	48 c7 c2 e8 00 00 80 	mov    rdx,0xffffffff800000e8
ffffffff80005068:	48 c7 c6 c0 00 00 80 	mov    rsi,0xffffffff800000c0
ffffffff8000506f:	48 89 44 24 10       	mov    QWORD PTR [rsp+0x10],rax
ffffffff80005074:	48 c7 c7 90 fe 00 80 	mov    rdi,0xffffffff8000fe90
ffffffff8000507b:	4c 89 44 24 08       	mov    QWORD PTR [rsp+0x8],r8
ffffffff80005080:	48 89 0c 24          	mov    QWORD PTR [rsp],rcx
ffffffff80005084:	e8 57 12 00 00       	call   ffffffff800062e0 <__ubsan_handle_pointer_overflow>
ffffffff80005089:	48 8b 44 24 10       	mov    rax,QWORD PTR [rsp+0x10]
ffffffff8000508e:	4c 8b 44 24 08       	mov    r8,QWORD PTR [rsp+0x8]
ffffffff80005093:	48 8b 0c 24          	mov    rcx,QWORD PTR [rsp]
ffffffff80005097:	e9 a3 fc ff ff       	jmp    ffffffff80004d3f <vmm_map+0x8f>
ffffffff8000509c:	4c 89 ce             	mov    rsi,r9
ffffffff8000509f:	48 c7 c7 a0 fe 00 80 	mov    rdi,0xffffffff8000fea0
ffffffff800050a6:	48 89 44 24 10       	mov    QWORD PTR [rsp+0x10],rax
ffffffff800050ab:	4c 89 44 24 08       	mov    QWORD PTR [rsp+0x8],r8
ffffffff800050b0:	4c 89 0c 24          	mov    QWORD PTR [rsp],r9
ffffffff800050b4:	e8 d7 09 00 00       	call   ffffffff80005a90 <__ubsan_handle_type_mismatch_v1>
ffffffff800050b9:	48 8b 44 24 10       	mov    rax,QWORD PTR [rsp+0x10]
ffffffff800050be:	4c 8b 44 24 08       	mov    r8,QWORD PTR [rsp+0x8]
ffffffff800050c3:	4c 8b 0c 24          	mov    r9,QWORD PTR [rsp]
ffffffff800050c7:	e9 5f fc ff ff       	jmp    ffffffff80004d2b <vmm_map+0x7b>
ffffffff800050cc:	4c 89 e6             	mov    rsi,r12
ffffffff800050cf:	48 c7 c7 60 fb 00 80 	mov    rdi,0xffffffff8000fb60
ffffffff800050d6:	e8 b5 09 00 00       	call   ffffffff80005a90 <__ubsan_handle_type_mismatch_v1>
ffffffff800050db:	e9 25 fe ff ff       	jmp    ffffffff80004f05 <vmm_map+0x255>
ffffffff800050e0:	4c 89 e2             	mov    rdx,r12
ffffffff800050e3:	4c 89 ee             	mov    rsi,r13
ffffffff800050e6:	48 c7 c7 80 fb 00 80 	mov    rdi,0xffffffff8000fb80
ffffffff800050ed:	e8 ee 11 00 00       	call   ffffffff800062e0 <__ubsan_handle_pointer_overflow>
ffffffff800050f2:	e9 f8 fd ff ff       	jmp    ffffffff80004eef <vmm_map+0x23f>
ffffffff800050f7:	48 89 c6             	mov    rsi,rax
ffffffff800050fa:	48 c7 c7 90 fb 00 80 	mov    rdi,0xffffffff8000fb90
ffffffff80005101:	48 89 04 24          	mov    QWORD PTR [rsp],rax
ffffffff80005105:	e8 d6 11 00 00       	call   ffffffff800062e0 <__ubsan_handle_pointer_overflow>
ffffffff8000510a:	48 8b 04 24          	mov    rax,QWORD PTR [rsp]
ffffffff8000510e:	e9 ca fd ff ff       	jmp    ffffffff80004edd <vmm_map+0x22d>
ffffffff80005113:	48 89 c6             	mov    rsi,rax
ffffffff80005116:	48 c7 c7 a0 fb 00 80 	mov    rdi,0xffffffff8000fba0
ffffffff8000511d:	48 89 04 24          	mov    QWORD PTR [rsp],rax
ffffffff80005121:	e8 6a 09 00 00       	call   ffffffff80005a90 <__ubsan_handle_type_mismatch_v1>
ffffffff80005126:	48 8b 04 24          	mov    rax,QWORD PTR [rsp]
ffffffff8000512a:	e9 a0 fd ff ff       	jmp    ffffffff80004ecf <vmm_map+0x21f>
ffffffff8000512f:	4c 89 ee             	mov    rsi,r13
ffffffff80005132:	48 c7 c7 40 fc 00 80 	mov    rdi,0xffffffff8000fc40
ffffffff80005139:	48 89 0c 24          	mov    QWORD PTR [rsp],rcx
ffffffff8000513d:	e8 4e 09 00 00       	call   ffffffff80005a90 <__ubsan_handle_type_mismatch_v1>
ffffffff80005142:	48 8b 0c 24          	mov    rcx,QWORD PTR [rsp]
ffffffff80005146:	e9 34 fd ff ff       	jmp    ffffffff80004e7f <vmm_map+0x1cf>
ffffffff8000514b:	48 89 ce             	mov    rsi,rcx
ffffffff8000514e:	48 c7 c7 c0 fc 00 80 	mov    rdi,0xffffffff8000fcc0
ffffffff80005155:	48 89 14 24          	mov    QWORD PTR [rsp],rdx
ffffffff80005159:	e8 82 11 00 00       	call   ffffffff800062e0 <__ubsan_handle_pointer_overflow>
ffffffff8000515e:	48 8b 14 24          	mov    rdx,QWORD PTR [rsp]
ffffffff80005162:	e9 af fc ff ff       	jmp    ffffffff80004e16 <vmm_map+0x166>
ffffffff80005167:	48 89 d6             	mov    rsi,rdx
ffffffff8000516a:	48 c7 c7 20 fd 00 80 	mov    rdi,0xffffffff8000fd20
ffffffff80005171:	48 89 4c 24 08       	mov    QWORD PTR [rsp+0x8],rcx
ffffffff80005176:	48 89 14 24          	mov    QWORD PTR [rsp],rdx
ffffffff8000517a:	e8 11 09 00 00       	call   ffffffff80005a90 <__ubsan_handle_type_mismatch_v1>
ffffffff8000517f:	48 8b 4c 24 08       	mov    rcx,QWORD PTR [rsp+0x8]
ffffffff80005184:	48 8b 14 24          	mov    rdx,QWORD PTR [rsp]
ffffffff80005188:	e9 77 fc ff ff       	jmp    ffffffff80004e04 <vmm_map+0x154>
ffffffff8000518d:	48 89 ce             	mov    rsi,rcx
ffffffff80005190:	48 c7 c7 40 fd 00 80 	mov    rdi,0xffffffff8000fd40
ffffffff80005197:	48 89 54 24 08       	mov    QWORD PTR [rsp+0x8],rdx
ffffffff8000519c:	48 89 0c 24          	mov    QWORD PTR [rsp],rcx
ffffffff800051a0:	e8 3b 11 00 00       	call   ffffffff800062e0 <__ubsan_handle_pointer_overflow>
ffffffff800051a5:	48 8b 54 24 08       	mov    rdx,QWORD PTR [rsp+0x8]
ffffffff800051aa:	48 8b 0c 24          	mov    rcx,QWORD PTR [rsp]
ffffffff800051ae:	e9 3f fc ff ff       	jmp    ffffffff80004df2 <vmm_map+0x142>
ffffffff800051b3:	48 89 c6             	mov    rsi,rax
ffffffff800051b6:	48 c7 c7 50 fd 00 80 	mov    rdi,0xffffffff8000fd50
ffffffff800051bd:	4c 89 44 24 10       	mov    QWORD PTR [rsp+0x10],r8
ffffffff800051c2:	48 89 4c 24 08       	mov    QWORD PTR [rsp+0x8],rcx
ffffffff800051c7:	48 89 04 24          	mov    QWORD PTR [rsp],rax
ffffffff800051cb:	e8 10 11 00 00       	call   ffffffff800062e0 <__ubsan_handle_pointer_overflow>
ffffffff800051d0:	4c 8b 44 24 10       	mov    r8,QWORD PTR [rsp+0x10]
ffffffff800051d5:	48 8b 4c 24 08       	mov    rcx,QWORD PTR [rsp+0x8]
ffffffff800051da:	48 8b 04 24          	mov    rax,QWORD PTR [rsp]
ffffffff800051de:	e9 fe fb ff ff       	jmp    ffffffff80004de1 <vmm_map+0x131>
ffffffff800051e3:	48 89 c6             	mov    rsi,rax
ffffffff800051e6:	48 c7 c7 60 fd 00 80 	mov    rdi,0xffffffff8000fd60
ffffffff800051ed:	4c 89 44 24 10       	mov    QWORD PTR [rsp+0x10],r8
ffffffff800051f2:	48 89 4c 24 08       	mov    QWORD PTR [rsp+0x8],rcx
ffffffff800051f7:	48 89 04 24          	mov    QWORD PTR [rsp],rax
ffffffff800051fb:	e8 90 08 00 00       	call   ffffffff80005a90 <__ubsan_handle_type_mismatch_v1>
ffffffff80005200:	4c 8b 44 24 10       	mov    r8,QWORD PTR [rsp+0x10]
ffffffff80005205:	48 8b 4c 24 08       	mov    rcx,QWORD PTR [rsp+0x8]
ffffffff8000520a:	48 8b 04 24          	mov    rax,QWORD PTR [rsp]
ffffffff8000520e:	e9 c0 fb ff ff       	jmp    ffffffff80004dd3 <vmm_map+0x123>
ffffffff80005213:	48 89 d6             	mov    rsi,rdx
ffffffff80005216:	48 c7 c7 80 fd 00 80 	mov    rdi,0xffffffff8000fd80
ffffffff8000521d:	4c 89 44 24 08       	mov    QWORD PTR [rsp+0x8],r8
ffffffff80005222:	48 89 14 24          	mov    QWORD PTR [rsp],rdx
ffffffff80005226:	e8 65 08 00 00       	call   ffffffff80005a90 <__ubsan_handle_type_mismatch_v1>
ffffffff8000522b:	4c 8b 44 24 08       	mov    r8,QWORD PTR [rsp+0x8]
ffffffff80005230:	48 8b 14 24          	mov    rdx,QWORD PTR [rsp]
ffffffff80005234:	e9 75 fb ff ff       	jmp    ffffffff80004dae <vmm_map+0xfe>
ffffffff80005239:	48 89 ce             	mov    rsi,rcx
ffffffff8000523c:	48 c7 c7 a0 fd 00 80 	mov    rdi,0xffffffff8000fda0
ffffffff80005243:	4c 89 44 24 08       	mov    QWORD PTR [rsp+0x8],r8
ffffffff80005248:	48 89 14 24          	mov    QWORD PTR [rsp],rdx
ffffffff8000524c:	e8 8f 10 00 00       	call   ffffffff800062e0 <__ubsan_handle_pointer_overflow>
ffffffff80005251:	4c 8b 44 24 08       	mov    r8,QWORD PTR [rsp+0x8]
ffffffff80005256:	48 8b 14 24          	mov    rdx,QWORD PTR [rsp]
ffffffff8000525a:	e9 3d fb ff ff       	jmp    ffffffff80004d9c <vmm_map+0xec>
ffffffff8000525f:	48 89 d6             	mov    rsi,rdx
ffffffff80005262:	48 c7 c7 00 fe 00 80 	mov    rdi,0xffffffff8000fe00
ffffffff80005269:	48 89 4c 24 10       	mov    QWORD PTR [rsp+0x10],rcx
ffffffff8000526e:	4c 89 44 24 08       	mov    QWORD PTR [rsp+0x8],r8
ffffffff80005273:	48 89 14 24          	mov    QWORD PTR [rsp],rdx
ffffffff80005277:	e8 14 08 00 00       	call   ffffffff80005a90 <__ubsan_handle_type_mismatch_v1>
ffffffff8000527c:	48 8b 4c 24 10       	mov    rcx,QWORD PTR [rsp+0x10]
ffffffff80005281:	4c 8b 44 24 08       	mov    r8,QWORD PTR [rsp+0x8]
ffffffff80005286:	48 8b 14 24          	mov    rdx,QWORD PTR [rsp]
ffffffff8000528a:	e9 fb fa ff ff       	jmp    ffffffff80004d8a <vmm_map+0xda>
ffffffff8000528f:	48 89 ce             	mov    rsi,rcx
ffffffff80005292:	48 c7 c7 20 fe 00 80 	mov    rdi,0xffffffff8000fe20
ffffffff80005299:	4c 89 44 24 10       	mov    QWORD PTR [rsp+0x10],r8
ffffffff8000529e:	48 89 54 24 08       	mov    QWORD PTR [rsp+0x8],rdx
ffffffff800052a3:	48 89 0c 24          	mov    QWORD PTR [rsp],rcx
ffffffff800052a7:	e8 34 10 00 00       	call   ffffffff800062e0 <__ubsan_handle_pointer_overflow>
ffffffff800052ac:	4c 8b 44 24 10       	mov    r8,QWORD PTR [rsp+0x10]
ffffffff800052b1:	48 8b 54 24 08       	mov    rdx,QWORD PTR [rsp+0x8]
ffffffff800052b6:	48 8b 0c 24          	mov    rcx,QWORD PTR [rsp]
ffffffff800052ba:	e9 b9 fa ff ff       	jmp    ffffffff80004d78 <vmm_map+0xc8>
ffffffff800052bf:	4c 89 ee             	mov    rsi,r13
ffffffff800052c2:	48 c7 c7 c0 fb 00 80 	mov    rdi,0xffffffff8000fbc0
ffffffff800052c9:	e8 c2 07 00 00       	call   ffffffff80005a90 <__ubsan_handle_type_mismatch_v1>
ffffffff800052ce:	e9 d3 fb ff ff       	jmp    ffffffff80004ea6 <vmm_map+0x1f6>
ffffffff800052d3:	4c 89 ea             	mov    rdx,r13
ffffffff800052d6:	48 89 ce             	mov    rsi,rcx
ffffffff800052d9:	48 c7 c7 e0 fb 00 80 	mov    rdi,0xffffffff8000fbe0
ffffffff800052e0:	e8 fb 0f 00 00       	call   ffffffff800062e0 <__ubsan_handle_pointer_overflow>
ffffffff800052e5:	e9 a9 fb ff ff       	jmp    ffffffff80004e93 <vmm_map+0x1e3>
ffffffff800052ea:	48 89 ce             	mov    rsi,rcx
ffffffff800052ed:	4c 89 ea             	mov    rdx,r13
ffffffff800052f0:	48 c7 c7 60 fc 00 80 	mov    rdi,0xffffffff8000fc60
ffffffff800052f7:	48 89 0c 24          	mov    QWORD PTR [rsp],rcx
ffffffff800052fb:	e8 e0 0f 00 00       	call   ffffffff800062e0 <__ubsan_handle_pointer_overflow>
ffffffff80005300:	48 8b 0c 24          	mov    rcx,QWORD PTR [rsp]
ffffffff80005304:	e9 63 fb ff ff       	jmp    ffffffff80004e6c <vmm_map+0x1bc>
ffffffff80005309:	48 89 c6             	mov    rsi,rax
ffffffff8000530c:	48 c7 c7 70 fc 00 80 	mov    rdi,0xffffffff8000fc70
ffffffff80005313:	48 89 4c 24 08       	mov    QWORD PTR [rsp+0x8],rcx
ffffffff80005318:	48 89 04 24          	mov    QWORD PTR [rsp],rax
ffffffff8000531c:	e8 bf 0f 00 00       	call   ffffffff800062e0 <__ubsan_handle_pointer_overflow>
ffffffff80005321:	48 8b 4c 24 08       	mov    rcx,QWORD PTR [rsp+0x8]
ffffffff80005326:	48 8b 04 24          	mov    rax,QWORD PTR [rsp]
ffffffff8000532a:	e9 2c fb ff ff       	jmp    ffffffff80004e5b <vmm_map+0x1ab>
ffffffff8000532f:	48 89 c6             	mov    rsi,rax
ffffffff80005332:	48 c7 c7 80 fc 00 80 	mov    rdi,0xffffffff8000fc80
ffffffff80005339:	48 89 4c 24 08       	mov    QWORD PTR [rsp+0x8],rcx
ffffffff8000533e:	48 89 04 24          	mov    QWORD PTR [rsp],rax
ffffffff80005342:	e8 49 07 00 00       	call   ffffffff80005a90 <__ubsan_handle_type_mismatch_v1>
ffffffff80005347:	48 8b 4c 24 08       	mov    rcx,QWORD PTR [rsp+0x8]
ffffffff8000534c:	48 8b 04 24          	mov    rax,QWORD PTR [rsp]
ffffffff80005350:	e9 f8 fa ff ff       	jmp    ffffffff80004e4d <vmm_map+0x19d>
ffffffff80005355:	48 89 d6             	mov    rsi,rdx
ffffffff80005358:	48 c7 c7 a0 fc 00 80 	mov    rdi,0xffffffff8000fca0
ffffffff8000535f:	48 89 14 24          	mov    QWORD PTR [rsp],rdx
ffffffff80005363:	e8 28 07 00 00       	call   ffffffff80005a90 <__ubsan_handle_type_mismatch_v1>
ffffffff80005368:	48 8b 14 24          	mov    rdx,QWORD PTR [rsp]
ffffffff8000536c:	e9 b7 fa ff ff       	jmp    ffffffff80004e28 <vmm_map+0x178>
ffffffff80005371:	48 89 d6             	mov    rsi,rdx
ffffffff80005374:	48 c7 c7 c0 fd 00 80 	mov    rdi,0xffffffff8000fdc0
ffffffff8000537b:	48 89 4c 24 18       	mov    QWORD PTR [rsp+0x18],rcx
ffffffff80005380:	4c 89 44 24 10       	mov    QWORD PTR [rsp+0x10],r8
ffffffff80005385:	48 89 44 24 08       	mov    QWORD PTR [rsp+0x8],rax
ffffffff8000538a:	48 89 14 24          	mov    QWORD PTR [rsp],rdx
ffffffff8000538e:	e8 fd 06 00 00       	call   ffffffff80005a90 <__ubsan_handle_type_mismatch_v1>
ffffffff80005393:	48 8b 4c 24 18       	mov    rcx,QWORD PTR [rsp+0x18]
ffffffff80005398:	4c 8b 44 24 10       	mov    r8,QWORD PTR [rsp+0x10]
ffffffff8000539d:	48 8b 44 24 08       	mov    rax,QWORD PTR [rsp+0x8]
ffffffff800053a2:	48 8b 14 24          	mov    rdx,QWORD PTR [rsp]
ffffffff800053a6:	e9 ba fb ff ff       	jmp    ffffffff80004f65 <vmm_map+0x2b5>
ffffffff800053ab:	48 89 d6             	mov    rsi,rdx
ffffffff800053ae:	48 c7 c7 e0 fc 00 80 	mov    rdi,0xffffffff8000fce0
ffffffff800053b5:	48 89 4c 24 10       	mov    QWORD PTR [rsp+0x10],rcx
ffffffff800053ba:	48 89 44 24 08       	mov    QWORD PTR [rsp+0x8],rax
ffffffff800053bf:	48 89 14 24          	mov    QWORD PTR [rsp],rdx
ffffffff800053c3:	e8 c8 06 00 00       	call   ffffffff80005a90 <__ubsan_handle_type_mismatch_v1>
ffffffff800053c8:	48 8b 4c 24 10       	mov    rcx,QWORD PTR [rsp+0x10]
ffffffff800053cd:	48 8b 44 24 08       	mov    rax,QWORD PTR [rsp+0x8]
ffffffff800053d2:	48 8b 14 24          	mov    rdx,QWORD PTR [rsp]
ffffffff800053d6:	e9 10 fc ff ff       	jmp    ffffffff80004feb <vmm_map+0x33b>
ffffffff800053db:	48 89 ce             	mov    rsi,rcx
ffffffff800053de:	4c 89 ea             	mov    rdx,r13
ffffffff800053e1:	48 89 44 24 08       	mov    QWORD PTR [rsp+0x8],rax
ffffffff800053e6:	48 c7 c7 20 fc 00 80 	mov    rdi,0xffffffff8000fc20
ffffffff800053ed:	e8 ee 0e 00 00       	call   ffffffff800062e0 <__ubsan_handle_pointer_overflow>
ffffffff800053f2:	48 8b 44 24 08       	mov    rax,QWORD PTR [rsp+0x8]
ffffffff800053f7:	48 8b 0c 24          	mov    rcx,QWORD PTR [rsp]
ffffffff800053fb:	e9 8b fb ff ff       	jmp    ffffffff80004f8b <vmm_map+0x2db>
ffffffff80005400:	4c 89 ee             	mov    rsi,r13
ffffffff80005403:	48 c7 c7 00 fc 00 80 	mov    rdi,0xffffffff8000fc00
ffffffff8000540a:	48 89 4c 24 08       	mov    QWORD PTR [rsp+0x8],rcx
ffffffff8000540f:	48 89 04 24          	mov    QWORD PTR [rsp],rax
ffffffff80005413:	e8 78 06 00 00       	call   ffffffff80005a90 <__ubsan_handle_type_mismatch_v1>
ffffffff80005418:	48 8b 4c 24 08       	mov    rcx,QWORD PTR [rsp+0x8]
ffffffff8000541d:	48 8b 04 24          	mov    rax,QWORD PTR [rsp]
ffffffff80005421:	e9 7c fb ff ff       	jmp    ffffffff80004fa2 <vmm_map+0x2f2>
ffffffff80005426:	48 89 ce             	mov    rsi,rcx
ffffffff80005429:	48 c7 c7 00 fd 00 80 	mov    rdi,0xffffffff8000fd00
ffffffff80005430:	48 89 44 24 10       	mov    QWORD PTR [rsp+0x10],rax
ffffffff80005435:	e8 a6 0e 00 00       	call   ffffffff800062e0 <__ubsan_handle_pointer_overflow>
ffffffff8000543a:	48 8b 44 24 10       	mov    rax,QWORD PTR [rsp+0x10]
ffffffff8000543f:	48 8b 54 24 08       	mov    rdx,QWORD PTR [rsp+0x8]
ffffffff80005444:	48 8b 0c 24          	mov    rcx,QWORD PTR [rsp]
ffffffff80005448:	e9 88 fb ff ff       	jmp    ffffffff80004fd5 <vmm_map+0x325>
ffffffff8000544d:	48 89 ce             	mov    rsi,rcx
ffffffff80005450:	48 c7 c7 e0 fd 00 80 	mov    rdi,0xffffffff8000fde0
ffffffff80005457:	48 89 44 24 18       	mov    QWORD PTR [rsp+0x18],rax
ffffffff8000545c:	4c 89 44 24 10       	mov    QWORD PTR [rsp+0x10],r8
ffffffff80005461:	48 89 54 24 08       	mov    QWORD PTR [rsp+0x8],rdx
ffffffff80005466:	48 89 0c 24          	mov    QWORD PTR [rsp],rcx
ffffffff8000546a:	e8 71 0e 00 00       	call   ffffffff800062e0 <__ubsan_handle_pointer_overflow>
ffffffff8000546f:	48 8b 44 24 18       	mov    rax,QWORD PTR [rsp+0x18]
ffffffff80005474:	4c 8b 44 24 10       	mov    r8,QWORD PTR [rsp+0x10]
ffffffff80005479:	48 8b 54 24 08       	mov    rdx,QWORD PTR [rsp+0x8]
ffffffff8000547e:	48 8b 0c 24          	mov    rcx,QWORD PTR [rsp]
ffffffff80005482:	e9 c8 fa ff ff       	jmp    ffffffff80004f4f <vmm_map+0x29f>
ffffffff80005487:	66 0f 1f 84 00 00 00 	nop    WORD PTR [rax+rax*1+0x0]
ffffffff8000548e:	00 00 

ffffffff80005490 <vmm_init>:
ffffffff80005490:	41 57                	push   r15
ffffffff80005492:	bf 01 00 00 00       	mov    edi,0x1
ffffffff80005497:	49 c7 c7 00 c0 00 80 	mov    r15,0xffffffff8000c000
ffffffff8000549e:	41 56                	push   r14
ffffffff800054a0:	41 55                	push   r13
ffffffff800054a2:	49 c7 c5 20 5f 01 80 	mov    r13,0xffffffff80015f20
ffffffff800054a9:	41 54                	push   r12
ffffffff800054ab:	49 c7 c4 7f ee 00 80 	mov    r12,0xffffffff8000ee7f
ffffffff800054b2:	49 81 e5 00 f0 ff ff 	and    r13,0xfffffffffffff000
ffffffff800054b9:	55                   	push   rbp
ffffffff800054ba:	48 c7 c5 c7 c4 00 80 	mov    rbp,0xffffffff8000c4c7
ffffffff800054c1:	49 81 e4 00 f0 ff ff 	and    r12,0xfffffffffffff000
ffffffff800054c8:	53                   	push   rbx
ffffffff800054c9:	48 81 e5 00 f0 ff ff 	and    rbp,0xfffffffffffff000
ffffffff800054d0:	48 c7 c3 00 00 00 80 	mov    rbx,0xffffffff80000000
ffffffff800054d7:	48 83 ec 28          	sub    rsp,0x28
ffffffff800054db:	e8 60 f6 ff ff       	call   ffffffff80004b40 <pmm_allocz>
ffffffff800054e0:	4c 8b 35 81 ac ff ff 	mov    r14,QWORD PTR [rip+0xffffffffffffac81]        # ffffffff80000168 <kexaddr_request+0x28>
ffffffff800054e7:	48 89 6c 24 08       	mov    QWORD PTR [rsp+0x8],rbp
ffffffff800054ec:	48 c7 c5 00 e0 00 80 	mov    rbp,0xffffffff8000e000
ffffffff800054f3:	48 89 05 7e da 00 00 	mov    QWORD PTR [rip+0xda7e],rax        # ffffffff80012f78 <kernel_pm>
ffffffff800054fa:	4d 85 f6             	test   r14,r14
ffffffff800054fd:	0f 84 f3 04 00 00    	je     ffffffff800059f6 <vmm_init+0x566>
ffffffff80005503:	41 f6 c6 07          	test   r14b,0x7
ffffffff80005507:	0f 85 e9 04 00 00    	jne    ffffffff800059f6 <vmm_init+0x566>
ffffffff8000550d:	49 8d 56 08          	lea    rdx,[r14+0x8]
ffffffff80005511:	49 83 fe f8          	cmp    r14,0xfffffffffffffff8
ffffffff80005515:	0f 83 03 05 00 00    	jae    ffffffff80005a1e <vmm_init+0x58e>
ffffffff8000551b:	49 8b 46 08          	mov    rax,QWORD PTR [r14+0x8]
ffffffff8000551f:	4c 8b 35 42 ac ff ff 	mov    r14,QWORD PTR [rip+0xffffffffffffac42]        # ffffffff80000168 <kexaddr_request+0x28>
ffffffff80005526:	48 89 44 24 10       	mov    QWORD PTR [rsp+0x10],rax
ffffffff8000552b:	4d 85 f6             	test   r14,r14
ffffffff8000552e:	0f 84 d6 04 00 00    	je     ffffffff80005a0a <vmm_init+0x57a>
ffffffff80005534:	41 f6 c6 07          	test   r14b,0x7
ffffffff80005538:	0f 85 cc 04 00 00    	jne    ffffffff80005a0a <vmm_init+0x57a>
ffffffff8000553e:	49 8d 56 10          	lea    rdx,[r14+0x10]
ffffffff80005542:	49 83 fe f0          	cmp    r14,0xfffffffffffffff0
ffffffff80005546:	0f 83 e6 04 00 00    	jae    ffffffff80005a32 <vmm_init+0x5a2>
ffffffff8000554c:	49 8b 46 10          	mov    rax,QWORD PTR [r14+0x10]
ffffffff80005550:	4c 8b 74 24 10       	mov    r14,QWORD PTR [rsp+0x10]
ffffffff80005555:	48 89 44 24 18       	mov    QWORD PTR [rsp+0x18],rax
ffffffff8000555a:	49 29 c6             	sub    r14,rax
ffffffff8000555d:	4c 39 ed             	cmp    rbp,r13
ffffffff80005560:	73 37                	jae    ffffffff80005599 <vmm_init+0x109>
ffffffff80005562:	66 66 2e 0f 1f 84 00 	data16 cs nop WORD PTR [rax+rax*1+0x0]
ffffffff80005569:	00 00 00 00 
ffffffff8000556d:	0f 1f 00             	nop    DWORD PTR [rax]
ffffffff80005570:	49 8d 34 2e          	lea    rsi,[r14+rbp*1]
ffffffff80005574:	48 89 ea             	mov    rdx,rbp
ffffffff80005577:	48 b9 03 00 00 00 00 	movabs rcx,0x8000000000000003
ffffffff8000557e:	00 00 80 
ffffffff80005581:	48 c7 c7 78 2f 01 80 	mov    rdi,0xffffffff80012f78
ffffffff80005588:	e8 23 f7 ff ff       	call   ffffffff80004cb0 <vmm_map>
ffffffff8000558d:	48 81 c5 00 10 00 00 	add    rbp,0x1000
ffffffff80005594:	4c 39 ed             	cmp    rbp,r13
ffffffff80005597:	72 d7                	jb     ffffffff80005570 <vmm_init+0xe0>
ffffffff80005599:	4c 8b 6c 24 10       	mov    r13,QWORD PTR [rsp+0x10]
ffffffff8000559e:	4c 2b 6c 24 18       	sub    r13,QWORD PTR [rsp+0x18]
ffffffff800055a3:	4d 39 e7             	cmp    r15,r12
ffffffff800055a6:	73 32                	jae    ffffffff800055da <vmm_init+0x14a>
ffffffff800055a8:	0f 1f 84 00 00 00 00 	nop    DWORD PTR [rax+rax*1+0x0]
ffffffff800055af:	00 
ffffffff800055b0:	4b 8d 74 3d 00       	lea    rsi,[r13+r15*1+0x0]
ffffffff800055b5:	4c 89 fa             	mov    rdx,r15
ffffffff800055b8:	48 b9 01 00 00 00 00 	movabs rcx,0x8000000000000001
ffffffff800055bf:	00 00 80 
ffffffff800055c2:	48 c7 c7 78 2f 01 80 	mov    rdi,0xffffffff80012f78
ffffffff800055c9:	e8 e2 f6 ff ff       	call   ffffffff80004cb0 <vmm_map>
ffffffff800055ce:	49 81 c7 00 10 00 00 	add    r15,0x1000
ffffffff800055d5:	4d 39 e7             	cmp    r15,r12
ffffffff800055d8:	72 d6                	jb     ffffffff800055b0 <vmm_init+0x120>
ffffffff800055da:	4c 8b 64 24 10       	mov    r12,QWORD PTR [rsp+0x10]
ffffffff800055df:	4c 2b 64 24 18       	sub    r12,QWORD PTR [rsp+0x18]
ffffffff800055e4:	48 3b 5c 24 08       	cmp    rbx,QWORD PTR [rsp+0x8]
ffffffff800055e9:	73 2b                	jae    ffffffff80005616 <vmm_init+0x186>
ffffffff800055eb:	0f 1f 44 00 00       	nop    DWORD PTR [rax+rax*1+0x0]
ffffffff800055f0:	49 8d 34 1c          	lea    rsi,[r12+rbx*1]
ffffffff800055f4:	48 89 da             	mov    rdx,rbx
ffffffff800055f7:	b9 01 00 00 00       	mov    ecx,0x1
ffffffff800055fc:	48 c7 c7 78 2f 01 80 	mov    rdi,0xffffffff80012f78
ffffffff80005603:	e8 a8 f6 ff ff       	call   ffffffff80004cb0 <vmm_map>
ffffffff80005608:	48 81 c3 00 10 00 00 	add    rbx,0x1000
ffffffff8000560f:	48 3b 5c 24 08       	cmp    rbx,QWORD PTR [rsp+0x8]
ffffffff80005614:	72 da                	jb     ffffffff800055f0 <vmm_init+0x160>
ffffffff80005616:	e8 05 e8 ff ff       	call   ffffffff80003e20 <pmm_bitmap>
ffffffff8000561b:	31 ed                	xor    ebp,ebp
ffffffff8000561d:	49 c7 c4 c0 00 00 80 	mov    r12,0xffffffff800000c0
ffffffff80005624:	49 89 c6             	mov    r14,rax
ffffffff80005627:	e8 e4 e7 ff ff       	call   ffffffff80003e10 <pmm_bitmap_size>
ffffffff8000562c:	49 89 c7             	mov    r15,rax
ffffffff8000562f:	48 85 c0             	test   rax,rax
ffffffff80005632:	75 69                	jne    ffffffff8000569d <vmm_init+0x20d>
ffffffff80005634:	e9 87 00 00 00       	jmp    ffffffff800056c0 <vmm_init+0x230>
ffffffff80005639:	0f 1f 80 00 00 00 00 	nop    DWORD PTR [rax+0x0]
ffffffff80005640:	4d 39 f5             	cmp    r13,r14
ffffffff80005643:	72 66                	jb     ffffffff800056ab <vmm_init+0x21b>
ffffffff80005645:	49 83 fc d8          	cmp    r12,0xffffffffffffffd8
ffffffff80005649:	0f 83 74 03 00 00    	jae    ffffffff800059c3 <vmm_init+0x533>
ffffffff8000564f:	48 8b 1d 92 aa ff ff 	mov    rbx,QWORD PTR [rip+0xffffffffffffaa92]        # ffffffff800000e8 <hhdm_request+0x28>
ffffffff80005656:	48 85 db             	test   rbx,rbx
ffffffff80005659:	0f 84 50 03 00 00    	je     ffffffff800059af <vmm_init+0x51f>
ffffffff8000565f:	f6 c3 07             	test   bl,0x7
ffffffff80005662:	0f 85 47 03 00 00    	jne    ffffffff800059af <vmm_init+0x51f>
ffffffff80005668:	48 8d 53 08          	lea    rdx,[rbx+0x8]
ffffffff8000566c:	48 83 fb f8          	cmp    rbx,0xfffffffffffffff8
ffffffff80005670:	0f 83 f8 02 00 00    	jae    ffffffff8000596e <vmm_init+0x4de>
ffffffff80005676:	4c 89 ee             	mov    rsi,r13
ffffffff80005679:	b9 03 00 00 00       	mov    ecx,0x3
ffffffff8000567e:	48 2b 73 08          	sub    rsi,QWORD PTR [rbx+0x8]
ffffffff80005682:	4c 89 ea             	mov    rdx,r13
ffffffff80005685:	48 c7 c7 78 2f 01 80 	mov    rdi,0xffffffff80012f78
ffffffff8000568c:	48 81 c5 00 10 00 00 	add    rbp,0x1000
ffffffff80005693:	e8 18 f6 ff ff       	call   ffffffff80004cb0 <vmm_map>
ffffffff80005698:	4c 39 fd             	cmp    rbp,r15
ffffffff8000569b:	73 23                	jae    ffffffff800056c0 <vmm_init+0x230>
ffffffff8000569d:	4d 8d 2c 2e          	lea    r13,[r14+rbp*1]
ffffffff800056a1:	48 85 ed             	test   rbp,rbp
ffffffff800056a4:	79 9a                	jns    ffffffff80005640 <vmm_init+0x1b0>
ffffffff800056a6:	4d 39 ee             	cmp    r14,r13
ffffffff800056a9:	73 9a                	jae    ffffffff80005645 <vmm_init+0x1b5>
ffffffff800056ab:	4c 89 ea             	mov    rdx,r13
ffffffff800056ae:	4c 89 f6             	mov    rsi,r14
ffffffff800056b1:	48 c7 c7 10 fa 00 80 	mov    rdi,0xffffffff8000fa10
ffffffff800056b8:	e8 23 0c 00 00       	call   ffffffff800062e0 <__ubsan_handle_pointer_overflow>
ffffffff800056bd:	eb 86                	jmp    ffffffff80005645 <vmm_init+0x1b5>
ffffffff800056bf:	90                   	nop
ffffffff800056c0:	48 c7 c0 00 01 00 80 	mov    rax,0xffffffff80000100
ffffffff800056c7:	48 83 f8 d8          	cmp    rax,0xffffffffffffffd8
ffffffff800056cb:	0f 83 75 03 00 00    	jae    ffffffff80005a46 <vmm_init+0x5b6>
ffffffff800056d1:	4c 8b 2d 50 aa ff ff 	mov    r13,QWORD PTR [rip+0xffffffffffffaa50]        # ffffffff80000128 <memmap_request+0x28>
ffffffff800056d8:	4d 85 ed             	test   r13,r13
ffffffff800056db:	0f 84 94 03 00 00    	je     ffffffff80005a75 <vmm_init+0x5e5>
ffffffff800056e1:	41 f6 c5 07          	test   r13b,0x7
ffffffff800056e5:	0f 85 8a 03 00 00    	jne    ffffffff80005a75 <vmm_init+0x5e5>
ffffffff800056eb:	49 8d 55 08          	lea    rdx,[r13+0x8]
ffffffff800056ef:	49 83 fd f8          	cmp    r13,0xfffffffffffffff8
ffffffff800056f3:	0f 83 68 03 00 00    	jae    ffffffff80005a61 <vmm_init+0x5d1>
ffffffff800056f9:	49 8d 45 10          	lea    rax,[r13+0x10]
ffffffff800056fd:	45 31 f6             	xor    r14d,r14d
ffffffff80005700:	48 89 44 24 08       	mov    QWORD PTR [rsp+0x8],rax
ffffffff80005705:	49 83 7d 08 00       	cmp    QWORD PTR [r13+0x8],0x0
ffffffff8000570a:	0f 84 39 01 00 00    	je     ffffffff80005849 <vmm_init+0x3b9>
ffffffff80005710:	4d 85 ed             	test   r13,r13
ffffffff80005713:	0f 84 82 02 00 00    	je     ffffffff8000599b <vmm_init+0x50b>
ffffffff80005719:	41 f6 c5 07          	test   r13b,0x7
ffffffff8000571d:	0f 85 78 02 00 00    	jne    ffffffff8000599b <vmm_init+0x50b>
ffffffff80005723:	49 83 fd f0          	cmp    r13,0xfffffffffffffff0
ffffffff80005727:	0f 83 55 02 00 00    	jae    ffffffff80005982 <vmm_init+0x4f2>
ffffffff8000572d:	49 8b 75 10          	mov    rsi,QWORD PTR [r13+0x10]
ffffffff80005731:	4c 89 f0             	mov    rax,r14
ffffffff80005734:	48 c1 e0 03          	shl    rax,0x3
ffffffff80005738:	4a 8d 1c f6          	lea    rbx,[rsi+r14*8]
ffffffff8000573c:	0f 88 46 01 00 00    	js     ffffffff80005888 <vmm_init+0x3f8>
ffffffff80005742:	48 39 f3             	cmp    rbx,rsi
ffffffff80005745:	0f 82 46 01 00 00    	jb     ffffffff80005891 <vmm_init+0x401>
ffffffff8000574b:	48 85 db             	test   rbx,rbx
ffffffff8000574e:	0f 84 06 02 00 00    	je     ffffffff8000595a <vmm_init+0x4ca>
ffffffff80005754:	f6 c3 07             	test   bl,0x7
ffffffff80005757:	0f 85 fd 01 00 00    	jne    ffffffff8000595a <vmm_init+0x4ca>
ffffffff8000575d:	48 8b 1b             	mov    rbx,QWORD PTR [rbx]
ffffffff80005760:	48 85 db             	test   rbx,rbx
ffffffff80005763:	0f 84 dd 01 00 00    	je     ffffffff80005946 <vmm_init+0x4b6>
ffffffff80005769:	f6 c3 07             	test   bl,0x7
ffffffff8000576c:	0f 85 d4 01 00 00    	jne    ffffffff80005946 <vmm_init+0x4b6>
ffffffff80005772:	48 8d 53 08          	lea    rdx,[rbx+0x8]
ffffffff80005776:	48 83 fb f8          	cmp    rbx,0xfffffffffffffff8
ffffffff8000577a:	0f 83 b2 01 00 00    	jae    ffffffff80005932 <vmm_init+0x4a2>
ffffffff80005780:	45 31 ff             	xor    r15d,r15d
ffffffff80005783:	49 c7 c4 c0 00 00 80 	mov    r12,0xffffffff800000c0
ffffffff8000578a:	48 83 7b 08 00       	cmp    QWORD PTR [rbx+0x8],0x0
ffffffff8000578f:	0f 84 93 00 00 00    	je     ffffffff80005828 <vmm_init+0x398>
ffffffff80005795:	66 66 2e 0f 1f 84 00 	data16 cs nop WORD PTR [rax+rax*1+0x0]
ffffffff8000579c:	00 00 00 00 
ffffffff800057a0:	48 85 db             	test   rbx,rbx
ffffffff800057a3:	0f 84 75 01 00 00    	je     ffffffff8000591e <vmm_init+0x48e>
ffffffff800057a9:	f6 c3 07             	test   bl,0x7
ffffffff800057ac:	0f 85 6c 01 00 00    	jne    ffffffff8000591e <vmm_init+0x48e>
ffffffff800057b2:	4c 8b 03             	mov    r8,QWORD PTR [rbx]
ffffffff800057b5:	4d 01 f8             	add    r8,r15
ffffffff800057b8:	49 83 fc d8          	cmp    r12,0xffffffffffffffd8
ffffffff800057bc:	0f 83 33 01 00 00    	jae    ffffffff800058f5 <vmm_init+0x465>
ffffffff800057c2:	48 8b 2d 1f a9 ff ff 	mov    rbp,QWORD PTR [rip+0xffffffffffffa91f]        # ffffffff800000e8 <hhdm_request+0x28>
ffffffff800057c9:	48 85 ed             	test   rbp,rbp
ffffffff800057cc:	0f 84 05 01 00 00    	je     ffffffff800058d7 <vmm_init+0x447>
ffffffff800057d2:	40 f6 c5 07          	test   bpl,0x7
ffffffff800057d6:	0f 85 fb 00 00 00    	jne    ffffffff800058d7 <vmm_init+0x447>
ffffffff800057dc:	48 8d 55 08          	lea    rdx,[rbp+0x8]
ffffffff800057e0:	48 83 fd f8          	cmp    rbp,0xfffffffffffffff8
ffffffff800057e4:	0f 83 cf 00 00 00    	jae    ffffffff800058b9 <vmm_init+0x429>
ffffffff800057ea:	48 8b 55 08          	mov    rdx,QWORD PTR [rbp+0x8]
ffffffff800057ee:	b9 03 00 00 00       	mov    ecx,0x3
ffffffff800057f3:	4c 89 c6             	mov    rsi,r8
ffffffff800057f6:	48 c7 c7 78 2f 01 80 	mov    rdi,0xffffffff80012f78
ffffffff800057fd:	49 81 c7 00 10 00 00 	add    r15,0x1000
ffffffff80005804:	4c 01 c2             	add    rdx,r8
ffffffff80005807:	e8 a4 f4 ff ff       	call   ffffffff80004cb0 <vmm_map>
ffffffff8000580c:	48 85 db             	test   rbx,rbx
ffffffff8000580f:	0f 84 90 00 00 00    	je     ffffffff800058a5 <vmm_init+0x415>
ffffffff80005815:	f6 c3 07             	test   bl,0x7
ffffffff80005818:	0f 85 87 00 00 00    	jne    ffffffff800058a5 <vmm_init+0x415>
ffffffff8000581e:	4c 3b 7b 08          	cmp    r15,QWORD PTR [rbx+0x8]
ffffffff80005822:	0f 82 78 ff ff ff    	jb     ffffffff800057a0 <vmm_init+0x310>
ffffffff80005828:	49 83 c6 01          	add    r14,0x1
ffffffff8000582c:	4d 85 ed             	test   r13,r13
ffffffff8000582f:	0f 84 ad 01 00 00    	je     ffffffff800059e2 <vmm_init+0x552>
ffffffff80005835:	41 f6 c5 07          	test   r13b,0x7
ffffffff80005839:	0f 85 a3 01 00 00    	jne    ffffffff800059e2 <vmm_init+0x552>
ffffffff8000583f:	4d 3b 75 08          	cmp    r14,QWORD PTR [r13+0x8]
ffffffff80005843:	0f 82 c7 fe ff ff    	jb     ffffffff80005710 <vmm_init+0x280>
ffffffff80005849:	48 c7 c7 78 2f 01 80 	mov    rdi,0xffffffff80012f78
ffffffff80005850:	e8 fb f3 ff ff       	call   ffffffff80004c50 <vmm_switch>
ffffffff80005855:	48 83 c4 28          	add    rsp,0x28
ffffffff80005859:	ba 3f 00 00 00       	mov    edx,0x3f
ffffffff8000585e:	31 c0                	xor    eax,eax
ffffffff80005860:	5b                   	pop    rbx
ffffffff80005861:	48 c7 c1 41 c1 00 80 	mov    rcx,0xffffffff8000c141
ffffffff80005868:	5d                   	pop    rbp
ffffffff80005869:	48 c7 c6 38 cd 00 80 	mov    rsi,0xffffffff8000cd38
ffffffff80005870:	41 5c                	pop    r12
ffffffff80005872:	48 c7 c7 4b c1 00 80 	mov    rdi,0xffffffff8000c14b
ffffffff80005879:	41 5d                	pop    r13
ffffffff8000587b:	41 5e                	pop    r14
ffffffff8000587d:	41 5f                	pop    r15
ffffffff8000587f:	e9 dc cf ff ff       	jmp    ffffffff80002860 <log>
ffffffff80005884:	0f 1f 40 00          	nop    DWORD PTR [rax+0x0]
ffffffff80005888:	48 39 de             	cmp    rsi,rbx
ffffffff8000588b:	0f 83 ba fe ff ff    	jae    ffffffff8000574b <vmm_init+0x2bb>
ffffffff80005891:	48 89 da             	mov    rdx,rbx
ffffffff80005894:	48 c7 c7 70 f9 00 80 	mov    rdi,0xffffffff8000f970
ffffffff8000589b:	e8 40 0a 00 00       	call   ffffffff800062e0 <__ubsan_handle_pointer_overflow>
ffffffff800058a0:	e9 a6 fe ff ff       	jmp    ffffffff8000574b <vmm_init+0x2bb>
ffffffff800058a5:	48 89 de             	mov    rsi,rbx
ffffffff800058a8:	48 c7 c7 e0 f7 00 80 	mov    rdi,0xffffffff8000f7e0
ffffffff800058af:	e8 dc 01 00 00       	call   ffffffff80005a90 <__ubsan_handle_type_mismatch_v1>
ffffffff800058b4:	e9 65 ff ff ff       	jmp    ffffffff8000581e <vmm_init+0x38e>
ffffffff800058b9:	48 89 ee             	mov    rsi,rbp
ffffffff800058bc:	48 c7 c7 00 f8 00 80 	mov    rdi,0xffffffff8000f800
ffffffff800058c3:	4c 89 44 24 10       	mov    QWORD PTR [rsp+0x10],r8
ffffffff800058c8:	e8 13 0a 00 00       	call   ffffffff800062e0 <__ubsan_handle_pointer_overflow>
ffffffff800058cd:	4c 8b 44 24 10       	mov    r8,QWORD PTR [rsp+0x10]
ffffffff800058d2:	e9 13 ff ff ff       	jmp    ffffffff800057ea <vmm_init+0x35a>
ffffffff800058d7:	48 89 ee             	mov    rsi,rbp
ffffffff800058da:	48 c7 c7 20 f8 00 80 	mov    rdi,0xffffffff8000f820
ffffffff800058e1:	4c 89 44 24 10       	mov    QWORD PTR [rsp+0x10],r8
ffffffff800058e6:	e8 a5 01 00 00       	call   ffffffff80005a90 <__ubsan_handle_type_mismatch_v1>
ffffffff800058eb:	4c 8b 44 24 10       	mov    r8,QWORD PTR [rsp+0x10]
ffffffff800058f0:	e9 e7 fe ff ff       	jmp    ffffffff800057dc <vmm_init+0x34c>
ffffffff800058f5:	48 c7 c2 e8 00 00 80 	mov    rdx,0xffffffff800000e8
ffffffff800058fc:	48 c7 c6 c0 00 00 80 	mov    rsi,0xffffffff800000c0
ffffffff80005903:	4c 89 44 24 10       	mov    QWORD PTR [rsp+0x10],r8
ffffffff80005908:	48 c7 c7 40 f8 00 80 	mov    rdi,0xffffffff8000f840
ffffffff8000590f:	e8 cc 09 00 00       	call   ffffffff800062e0 <__ubsan_handle_pointer_overflow>
ffffffff80005914:	4c 8b 44 24 10       	mov    r8,QWORD PTR [rsp+0x10]
ffffffff80005919:	e9 a4 fe ff ff       	jmp    ffffffff800057c2 <vmm_init+0x332>
ffffffff8000591e:	48 89 de             	mov    rsi,rbx
ffffffff80005921:	48 c7 c7 60 f8 00 80 	mov    rdi,0xffffffff8000f860
ffffffff80005928:	e8 63 01 00 00       	call   ffffffff80005a90 <__ubsan_handle_type_mismatch_v1>
ffffffff8000592d:	e9 80 fe ff ff       	jmp    ffffffff800057b2 <vmm_init+0x322>
ffffffff80005932:	48 89 de             	mov    rsi,rbx
ffffffff80005935:	48 c7 c7 a0 f8 00 80 	mov    rdi,0xffffffff8000f8a0
ffffffff8000593c:	e8 9f 09 00 00       	call   ffffffff800062e0 <__ubsan_handle_pointer_overflow>
ffffffff80005941:	e9 3a fe ff ff       	jmp    ffffffff80005780 <vmm_init+0x2f0>
ffffffff80005946:	48 89 de             	mov    rsi,rbx
ffffffff80005949:	48 c7 c7 c0 f8 00 80 	mov    rdi,0xffffffff8000f8c0
ffffffff80005950:	e8 3b 01 00 00       	call   ffffffff80005a90 <__ubsan_handle_type_mismatch_v1>
ffffffff80005955:	e9 18 fe ff ff       	jmp    ffffffff80005772 <vmm_init+0x2e2>
ffffffff8000595a:	48 89 de             	mov    rsi,rbx
ffffffff8000595d:	48 c7 c7 20 f9 00 80 	mov    rdi,0xffffffff8000f920
ffffffff80005964:	e8 27 01 00 00       	call   ffffffff80005a90 <__ubsan_handle_type_mismatch_v1>
ffffffff80005969:	e9 ef fd ff ff       	jmp    ffffffff8000575d <vmm_init+0x2cd>
ffffffff8000596e:	48 89 de             	mov    rsi,rbx
ffffffff80005971:	48 c7 c7 c0 f9 00 80 	mov    rdi,0xffffffff8000f9c0
ffffffff80005978:	e8 63 09 00 00       	call   ffffffff800062e0 <__ubsan_handle_pointer_overflow>
ffffffff8000597d:	e9 f4 fc ff ff       	jmp    ffffffff80005676 <vmm_init+0x1e6>
ffffffff80005982:	48 8b 54 24 08       	mov    rdx,QWORD PTR [rsp+0x8]
ffffffff80005987:	4c 89 ee             	mov    rsi,r13
ffffffff8000598a:	48 c7 c7 80 f9 00 80 	mov    rdi,0xffffffff8000f980
ffffffff80005991:	e8 4a 09 00 00       	call   ffffffff800062e0 <__ubsan_handle_pointer_overflow>
ffffffff80005996:	e9 92 fd ff ff       	jmp    ffffffff8000572d <vmm_init+0x29d>
ffffffff8000599b:	4c 89 ee             	mov    rsi,r13
ffffffff8000599e:	48 c7 c7 a0 f9 00 80 	mov    rdi,0xffffffff8000f9a0
ffffffff800059a5:	e8 e6 00 00 00       	call   ffffffff80005a90 <__ubsan_handle_type_mismatch_v1>
ffffffff800059aa:	e9 74 fd ff ff       	jmp    ffffffff80005723 <vmm_init+0x293>
ffffffff800059af:	48 89 de             	mov    rsi,rbx
ffffffff800059b2:	48 c7 c7 e0 f9 00 80 	mov    rdi,0xffffffff8000f9e0
ffffffff800059b9:	e8 d2 00 00 00       	call   ffffffff80005a90 <__ubsan_handle_type_mismatch_v1>
ffffffff800059be:	e9 a5 fc ff ff       	jmp    ffffffff80005668 <vmm_init+0x1d8>
ffffffff800059c3:	48 c7 c2 e8 00 00 80 	mov    rdx,0xffffffff800000e8
ffffffff800059ca:	48 c7 c6 c0 00 00 80 	mov    rsi,0xffffffff800000c0
ffffffff800059d1:	48 c7 c7 00 fa 00 80 	mov    rdi,0xffffffff8000fa00
ffffffff800059d8:	e8 03 09 00 00       	call   ffffffff800062e0 <__ubsan_handle_pointer_overflow>
ffffffff800059dd:	e9 6d fc ff ff       	jmp    ffffffff8000564f <vmm_init+0x1bf>
ffffffff800059e2:	4c 89 ee             	mov    rsi,r13
ffffffff800059e5:	48 c7 c7 80 f8 00 80 	mov    rdi,0xffffffff8000f880
ffffffff800059ec:	e8 9f 00 00 00       	call   ffffffff80005a90 <__ubsan_handle_type_mismatch_v1>
ffffffff800059f1:	e9 49 fe ff ff       	jmp    ffffffff8000583f <vmm_init+0x3af>
ffffffff800059f6:	4c 89 f6             	mov    rsi,r14
ffffffff800059f9:	48 c7 c7 00 fb 00 80 	mov    rdi,0xffffffff8000fb00
ffffffff80005a00:	e8 8b 00 00 00       	call   ffffffff80005a90 <__ubsan_handle_type_mismatch_v1>
ffffffff80005a05:	e9 03 fb ff ff       	jmp    ffffffff8000550d <vmm_init+0x7d>
ffffffff80005a0a:	4c 89 f6             	mov    rsi,r14
ffffffff80005a0d:	48 c7 c7 c0 fa 00 80 	mov    rdi,0xffffffff8000fac0
ffffffff80005a14:	e8 77 00 00 00       	call   ffffffff80005a90 <__ubsan_handle_type_mismatch_v1>
ffffffff80005a19:	e9 20 fb ff ff       	jmp    ffffffff8000553e <vmm_init+0xae>
ffffffff80005a1e:	4c 89 f6             	mov    rsi,r14
ffffffff80005a21:	48 c7 c7 e0 fa 00 80 	mov    rdi,0xffffffff8000fae0
ffffffff80005a28:	e8 b3 08 00 00       	call   ffffffff800062e0 <__ubsan_handle_pointer_overflow>
ffffffff80005a2d:	e9 e9 fa ff ff       	jmp    ffffffff8000551b <vmm_init+0x8b>
ffffffff80005a32:	4c 89 f6             	mov    rsi,r14
ffffffff80005a35:	48 c7 c7 a0 fa 00 80 	mov    rdi,0xffffffff8000faa0
ffffffff80005a3c:	e8 9f 08 00 00       	call   ffffffff800062e0 <__ubsan_handle_pointer_overflow>
ffffffff80005a41:	e9 06 fb ff ff       	jmp    ffffffff8000554c <vmm_init+0xbc>
ffffffff80005a46:	48 c7 c2 28 01 00 80 	mov    rdx,0xffffffff80000128
ffffffff80005a4d:	48 89 c6             	mov    rsi,rax
ffffffff80005a50:	48 c7 c7 90 fa 00 80 	mov    rdi,0xffffffff8000fa90
ffffffff80005a57:	e8 84 08 00 00       	call   ffffffff800062e0 <__ubsan_handle_pointer_overflow>
ffffffff80005a5c:	e9 70 fc ff ff       	jmp    ffffffff800056d1 <vmm_init+0x241>
ffffffff80005a61:	4c 89 ee             	mov    rsi,r13
ffffffff80005a64:	48 c7 c7 20 fa 00 80 	mov    rdi,0xffffffff8000fa20
ffffffff80005a6b:	e8 70 08 00 00       	call   ffffffff800062e0 <__ubsan_handle_pointer_overflow>
ffffffff80005a70:	e9 84 fc ff ff       	jmp    ffffffff800056f9 <vmm_init+0x269>
ffffffff80005a75:	4c 89 ee             	mov    rsi,r13
ffffffff80005a78:	48 c7 c7 40 fa 00 80 	mov    rdi,0xffffffff8000fa40
ffffffff80005a7f:	e8 0c 00 00 00       	call   ffffffff80005a90 <__ubsan_handle_type_mismatch_v1>
ffffffff80005a84:	e9 62 fc ff ff       	jmp    ffffffff800056eb <vmm_init+0x25b>
ffffffff80005a89:	0f 1f 80 00 00 00 00 	nop    DWORD PTR [rax+0x0]

ffffffff80005a90 <__ubsan_handle_type_mismatch_v1>:
ffffffff80005a90:	48 83 ec 48          	sub    rsp,0x48
ffffffff80005a94:	48 89 f8             	mov    rax,rdi
ffffffff80005a97:	48 89 f1             	mov    rcx,rsi
ffffffff80005a9a:	48 85 f6             	test   rsi,rsi
ffffffff80005a9d:	74 59                	je     ffffffff80005af8 <__ubsan_handle_type_mismatch_v1+0x68>
ffffffff80005a9f:	48 85 ff             	test   rdi,rdi
ffffffff80005aa2:	0f 84 86 01 00 00    	je     ffffffff80005c2e <__ubsan_handle_type_mismatch_v1+0x19e>
ffffffff80005aa8:	40 f6 c7 07          	test   dil,0x7
ffffffff80005aac:	0f 85 7c 01 00 00    	jne    ffffffff80005c2e <__ubsan_handle_type_mismatch_v1+0x19e>
ffffffff80005ab2:	4c 8d 48 18          	lea    r9,[rax+0x18]
ffffffff80005ab6:	48 83 f8 e8          	cmp    rax,0xffffffffffffffe8
ffffffff80005aba:	0f 83 39 01 00 00    	jae    ffffffff80005bf9 <__ubsan_handle_type_mismatch_v1+0x169>
ffffffff80005ac0:	0f b6 50 18          	movzx  edx,BYTE PTR [rax+0x18]
ffffffff80005ac4:	84 d2                	test   dl,dl
ffffffff80005ac6:	74 23                	je     ffffffff80005aeb <__ubsan_handle_type_mismatch_v1+0x5b>
ffffffff80005ac8:	48 85 c0             	test   rax,rax
ffffffff80005acb:	0f 84 a8 04 00 00    	je     ffffffff80005f79 <__ubsan_handle_type_mismatch_v1+0x4e9>
ffffffff80005ad1:	a8 07                	test   al,0x7
ffffffff80005ad3:	0f 85 a0 04 00 00    	jne    ffffffff80005f79 <__ubsan_handle_type_mismatch_v1+0x4e9>
ffffffff80005ad9:	83 ea 01             	sub    edx,0x1
ffffffff80005adc:	49 c7 c0 84 c1 00 80 	mov    r8,0xffffffff8000c184
ffffffff80005ae3:	48 63 d2             	movsxd rdx,edx
ffffffff80005ae6:	48 85 ca             	test   rdx,rcx
ffffffff80005ae9:	75 18                	jne    ffffffff80005b03 <__ubsan_handle_type_mismatch_v1+0x73>
ffffffff80005aeb:	49 c7 c0 76 c1 00 80 	mov    r8,0xffffffff8000c176
ffffffff80005af2:	eb 0f                	jmp    ffffffff80005b03 <__ubsan_handle_type_mismatch_v1+0x73>
ffffffff80005af4:	0f 1f 40 00          	nop    DWORD PTR [rax+0x0]
ffffffff80005af8:	49 c7 c0 58 c1 00 80 	mov    r8,0xffffffff8000c158
ffffffff80005aff:	4c 8d 4f 18          	lea    r9,[rdi+0x18]
ffffffff80005b03:	48 85 c0             	test   rax,rax
ffffffff80005b06:	0f 84 76 02 00 00    	je     ffffffff80005d82 <__ubsan_handle_type_mismatch_v1+0x2f2>
ffffffff80005b0c:	a8 07                	test   al,0x7
ffffffff80005b0e:	0f 85 6e 02 00 00    	jne    ffffffff80005d82 <__ubsan_handle_type_mismatch_v1+0x2f2>
ffffffff80005b14:	48 83 f8 e8          	cmp    rax,0xffffffffffffffe8
ffffffff80005b18:	0f 83 dc 02 00 00    	jae    ffffffff80005dfa <__ubsan_handle_type_mismatch_v1+0x36a>
ffffffff80005b1e:	44 0f b6 58 18       	movzx  r11d,BYTE PTR [rax+0x18]
ffffffff80005b23:	48 85 c0             	test   rax,rax
ffffffff80005b26:	0f 84 92 02 00 00    	je     ffffffff80005dbe <__ubsan_handle_type_mismatch_v1+0x32e>
ffffffff80005b2c:	a8 07                	test   al,0x7
ffffffff80005b2e:	0f 85 8a 02 00 00    	jne    ffffffff80005dbe <__ubsan_handle_type_mismatch_v1+0x32e>
ffffffff80005b34:	48 8b 70 10          	mov    rsi,QWORD PTR [rax+0x10]
ffffffff80005b38:	48 85 f6             	test   rsi,rsi
ffffffff80005b3b:	0f 84 f5 03 00 00    	je     ffffffff80005f36 <__ubsan_handle_type_mismatch_v1+0x4a6>
ffffffff80005b41:	40 f6 c6 01          	test   sil,0x1
ffffffff80005b45:	0f 85 eb 03 00 00    	jne    ffffffff80005f36 <__ubsan_handle_type_mismatch_v1+0x4a6>
ffffffff80005b4b:	4c 8d 56 04          	lea    r10,[rsi+0x4]
ffffffff80005b4f:	48 83 fe fc          	cmp    rsi,0xfffffffffffffffc
ffffffff80005b53:	0f 83 e3 01 00 00    	jae    ffffffff80005d3c <__ubsan_handle_type_mismatch_v1+0x2ac>
ffffffff80005b59:	48 85 c0             	test   rax,rax
ffffffff80005b5c:	0f 84 94 01 00 00    	je     ffffffff80005cf6 <__ubsan_handle_type_mismatch_v1+0x266>
ffffffff80005b62:	a8 07                	test   al,0x7
ffffffff80005b64:	0f 85 8c 01 00 00    	jne    ffffffff80005cf6 <__ubsan_handle_type_mismatch_v1+0x266>
ffffffff80005b6a:	48 8d 50 19          	lea    rdx,[rax+0x19]
ffffffff80005b6e:	48 83 f8 e7          	cmp    rax,0xffffffffffffffe7
ffffffff80005b72:	0f 83 38 01 00 00    	jae    ffffffff80005cb0 <__ubsan_handle_type_mismatch_v1+0x220>
ffffffff80005b78:	44 0f b6 48 19       	movzx  r9d,BYTE PTR [rax+0x19]
ffffffff80005b7d:	4c 89 ca             	mov    rdx,r9
ffffffff80005b80:	41 80 f9 0b          	cmp    r9b,0xb
ffffffff80005b84:	0f 87 cc 00 00 00    	ja     ffffffff80005c56 <__ubsan_handle_type_mismatch_v1+0x1c6>
ffffffff80005b8a:	48 8d 34 d5 08 00 00 	lea    rsi,[rdx*8+0x8]
ffffffff80005b91:	00 
ffffffff80005b92:	48 8d 3c d5 60 cd 00 	lea    rdi,[rdx*8-0x7fff32a0]
ffffffff80005b99:	80 
ffffffff80005b9a:	48 83 fe 60          	cmp    rsi,0x60
ffffffff80005b9e:	0f 87 df 02 00 00    	ja     ffffffff80005e83 <__ubsan_handle_type_mismatch_v1+0x3f3>
ffffffff80005ba4:	48 8d 14 d5 60 cd 00 	lea    rdx,[rdx*8-0x7fff32a0]
ffffffff80005bab:	80 
ffffffff80005bac:	48 81 fa 60 cd 00 80 	cmp    rdx,0xffffffff8000cd60
ffffffff80005bb3:	0f 82 76 02 00 00    	jb     ffffffff80005e2f <__ubsan_handle_type_mismatch_v1+0x39f>
ffffffff80005bb9:	4e 8b 0c cd 60 cd 00 	mov    r9,QWORD PTR [r9*8-0x7fff32a0]
ffffffff80005bc0:	80 
ffffffff80005bc1:	48 85 c0             	test   rax,rax
ffffffff80005bc4:	0f 84 1c 03 00 00    	je     ffffffff80005ee6 <__ubsan_handle_type_mismatch_v1+0x456>
ffffffff80005bca:	a8 07                	test   al,0x7
ffffffff80005bcc:	0f 85 14 03 00 00    	jne    ffffffff80005ee6 <__ubsan_handle_type_mismatch_v1+0x456>
ffffffff80005bd2:	48 83 ec 08          	sub    rsp,0x8
ffffffff80005bd6:	8b 78 0c             	mov    edi,DWORD PTR [rax+0xc]
ffffffff80005bd9:	8b 50 08             	mov    edx,DWORD PTR [rax+0x8]
ffffffff80005bdc:	48 8b 30             	mov    rsi,QWORD PTR [rax]
ffffffff80005bdf:	51                   	push   rcx
ffffffff80005be0:	31 c0                	xor    eax,eax
ffffffff80005be2:	41 53                	push   r11
ffffffff80005be4:	89 f9                	mov    ecx,edi
ffffffff80005be6:	48 c7 c7 50 c9 00 80 	mov    rdi,0xffffffff8000c950
ffffffff80005bed:	41 52                	push   r10
ffffffff80005bef:	e8 dc cb ff ff       	call   ffffffff800027d0 <mubsan_log>
ffffffff80005bf4:	48 83 c4 68          	add    rsp,0x68
ffffffff80005bf8:	c3                   	ret
ffffffff80005bf9:	4c 89 ca             	mov    rdx,r9
ffffffff80005bfc:	48 89 c6             	mov    rsi,rax
ffffffff80005bff:	48 89 4c 24 18       	mov    QWORD PTR [rsp+0x18],rcx
ffffffff80005c04:	48 c7 c7 40 05 01 80 	mov    rdi,0xffffffff80010540
ffffffff80005c0b:	4c 89 4c 24 10       	mov    QWORD PTR [rsp+0x10],r9
ffffffff80005c10:	48 89 44 24 08       	mov    QWORD PTR [rsp+0x8],rax
ffffffff80005c15:	e8 c6 06 00 00       	call   ffffffff800062e0 <__ubsan_handle_pointer_overflow>
ffffffff80005c1a:	48 8b 4c 24 18       	mov    rcx,QWORD PTR [rsp+0x18]
ffffffff80005c1f:	4c 8b 4c 24 10       	mov    r9,QWORD PTR [rsp+0x10]
ffffffff80005c24:	48 8b 44 24 08       	mov    rax,QWORD PTR [rsp+0x8]
ffffffff80005c29:	e9 92 fe ff ff       	jmp    ffffffff80005ac0 <__ubsan_handle_type_mismatch_v1+0x30>
ffffffff80005c2e:	48 89 c6             	mov    rsi,rax
ffffffff80005c31:	48 c7 c7 60 05 01 80 	mov    rdi,0xffffffff80010560
ffffffff80005c38:	48 89 4c 24 10       	mov    QWORD PTR [rsp+0x10],rcx
ffffffff80005c3d:	48 89 44 24 08       	mov    QWORD PTR [rsp+0x8],rax
ffffffff80005c42:	e8 49 fe ff ff       	call   ffffffff80005a90 <__ubsan_handle_type_mismatch_v1>
ffffffff80005c47:	48 8b 4c 24 10       	mov    rcx,QWORD PTR [rsp+0x10]
ffffffff80005c4c:	48 8b 44 24 08       	mov    rax,QWORD PTR [rsp+0x8]
ffffffff80005c51:	e9 5c fe ff ff       	jmp    ffffffff80005ab2 <__ubsan_handle_type_mismatch_v1+0x22>
ffffffff80005c56:	4c 89 ce             	mov    rsi,r9
ffffffff80005c59:	48 c7 c7 c0 03 01 80 	mov    rdi,0xffffffff800103c0
ffffffff80005c60:	48 89 4c 24 38       	mov    QWORD PTR [rsp+0x38],rcx
ffffffff80005c65:	48 89 44 24 30       	mov    QWORD PTR [rsp+0x30],rax
ffffffff80005c6a:	4c 89 54 24 28       	mov    QWORD PTR [rsp+0x28],r10
ffffffff80005c6f:	4c 89 44 24 20       	mov    QWORD PTR [rsp+0x20],r8
ffffffff80005c74:	44 88 4c 24 18       	mov    BYTE PTR [rsp+0x18],r9b
ffffffff80005c79:	44 89 5c 24 10       	mov    DWORD PTR [rsp+0x10],r11d
ffffffff80005c7e:	4c 89 4c 24 08       	mov    QWORD PTR [rsp+0x8],r9
ffffffff80005c83:	e8 f8 06 00 00       	call   ffffffff80006380 <__ubsan_handle_out_of_bounds>
ffffffff80005c88:	48 8b 4c 24 38       	mov    rcx,QWORD PTR [rsp+0x38]
ffffffff80005c8d:	48 8b 44 24 30       	mov    rax,QWORD PTR [rsp+0x30]
ffffffff80005c92:	4c 8b 54 24 28       	mov    r10,QWORD PTR [rsp+0x28]
ffffffff80005c97:	4c 8b 44 24 20       	mov    r8,QWORD PTR [rsp+0x20]
ffffffff80005c9c:	0f b6 54 24 18       	movzx  edx,BYTE PTR [rsp+0x18]
ffffffff80005ca1:	44 8b 5c 24 10       	mov    r11d,DWORD PTR [rsp+0x10]
ffffffff80005ca6:	4c 8b 4c 24 08       	mov    r9,QWORD PTR [rsp+0x8]
ffffffff80005cab:	e9 da fe ff ff       	jmp    ffffffff80005b8a <__ubsan_handle_type_mismatch_v1+0xfa>
ffffffff80005cb0:	48 89 c6             	mov    rsi,rax
ffffffff80005cb3:	48 c7 c7 00 04 01 80 	mov    rdi,0xffffffff80010400
ffffffff80005cba:	48 89 4c 24 28       	mov    QWORD PTR [rsp+0x28],rcx
ffffffff80005cbf:	4c 89 54 24 20       	mov    QWORD PTR [rsp+0x20],r10
ffffffff80005cc4:	4c 89 44 24 18       	mov    QWORD PTR [rsp+0x18],r8
ffffffff80005cc9:	44 89 5c 24 10       	mov    DWORD PTR [rsp+0x10],r11d
ffffffff80005cce:	48 89 44 24 08       	mov    QWORD PTR [rsp+0x8],rax
ffffffff80005cd3:	e8 08 06 00 00       	call   ffffffff800062e0 <__ubsan_handle_pointer_overflow>
ffffffff80005cd8:	48 8b 4c 24 28       	mov    rcx,QWORD PTR [rsp+0x28]
ffffffff80005cdd:	4c 8b 54 24 20       	mov    r10,QWORD PTR [rsp+0x20]
ffffffff80005ce2:	4c 8b 44 24 18       	mov    r8,QWORD PTR [rsp+0x18]
ffffffff80005ce7:	44 8b 5c 24 10       	mov    r11d,DWORD PTR [rsp+0x10]
ffffffff80005cec:	48 8b 44 24 08       	mov    rax,QWORD PTR [rsp+0x8]
ffffffff80005cf1:	e9 82 fe ff ff       	jmp    ffffffff80005b78 <__ubsan_handle_type_mismatch_v1+0xe8>
ffffffff80005cf6:	48 89 c6             	mov    rsi,rax
ffffffff80005cf9:	48 c7 c7 20 04 01 80 	mov    rdi,0xffffffff80010420
ffffffff80005d00:	48 89 4c 24 28       	mov    QWORD PTR [rsp+0x28],rcx
ffffffff80005d05:	4c 89 54 24 20       	mov    QWORD PTR [rsp+0x20],r10
ffffffff80005d0a:	4c 89 44 24 18       	mov    QWORD PTR [rsp+0x18],r8
ffffffff80005d0f:	44 89 5c 24 10       	mov    DWORD PTR [rsp+0x10],r11d
ffffffff80005d14:	48 89 44 24 08       	mov    QWORD PTR [rsp+0x8],rax
ffffffff80005d19:	e8 72 fd ff ff       	call   ffffffff80005a90 <__ubsan_handle_type_mismatch_v1>
ffffffff80005d1e:	48 8b 4c 24 28       	mov    rcx,QWORD PTR [rsp+0x28]
ffffffff80005d23:	4c 8b 54 24 20       	mov    r10,QWORD PTR [rsp+0x20]
ffffffff80005d28:	4c 8b 44 24 18       	mov    r8,QWORD PTR [rsp+0x18]
ffffffff80005d2d:	44 8b 5c 24 10       	mov    r11d,DWORD PTR [rsp+0x10]
ffffffff80005d32:	48 8b 44 24 08       	mov    rax,QWORD PTR [rsp+0x8]
ffffffff80005d37:	e9 2e fe ff ff       	jmp    ffffffff80005b6a <__ubsan_handle_type_mismatch_v1+0xda>
ffffffff80005d3c:	4c 89 d2             	mov    rdx,r10
ffffffff80005d3f:	48 c7 c7 40 04 01 80 	mov    rdi,0xffffffff80010440
ffffffff80005d46:	48 89 4c 24 28       	mov    QWORD PTR [rsp+0x28],rcx
ffffffff80005d4b:	48 89 44 24 20       	mov    QWORD PTR [rsp+0x20],rax
ffffffff80005d50:	4c 89 44 24 18       	mov    QWORD PTR [rsp+0x18],r8
ffffffff80005d55:	44 89 5c 24 10       	mov    DWORD PTR [rsp+0x10],r11d
ffffffff80005d5a:	4c 89 54 24 08       	mov    QWORD PTR [rsp+0x8],r10
ffffffff80005d5f:	e8 7c 05 00 00       	call   ffffffff800062e0 <__ubsan_handle_pointer_overflow>
ffffffff80005d64:	48 8b 4c 24 28       	mov    rcx,QWORD PTR [rsp+0x28]
ffffffff80005d69:	48 8b 44 24 20       	mov    rax,QWORD PTR [rsp+0x20]
ffffffff80005d6e:	4c 8b 44 24 18       	mov    r8,QWORD PTR [rsp+0x18]
ffffffff80005d73:	44 8b 5c 24 10       	mov    r11d,DWORD PTR [rsp+0x10]
ffffffff80005d78:	4c 8b 54 24 08       	mov    r10,QWORD PTR [rsp+0x8]
ffffffff80005d7d:	e9 d7 fd ff ff       	jmp    ffffffff80005b59 <__ubsan_handle_type_mismatch_v1+0xc9>
ffffffff80005d82:	48 89 c6             	mov    rsi,rax
ffffffff80005d85:	48 c7 c7 00 05 01 80 	mov    rdi,0xffffffff80010500
ffffffff80005d8c:	48 89 4c 24 20       	mov    QWORD PTR [rsp+0x20],rcx
ffffffff80005d91:	4c 89 4c 24 18       	mov    QWORD PTR [rsp+0x18],r9
ffffffff80005d96:	4c 89 44 24 10       	mov    QWORD PTR [rsp+0x10],r8
ffffffff80005d9b:	48 89 44 24 08       	mov    QWORD PTR [rsp+0x8],rax
ffffffff80005da0:	e8 eb fc ff ff       	call   ffffffff80005a90 <__ubsan_handle_type_mismatch_v1>
ffffffff80005da5:	48 8b 4c 24 20       	mov    rcx,QWORD PTR [rsp+0x20]
ffffffff80005daa:	4c 8b 4c 24 18       	mov    r9,QWORD PTR [rsp+0x18]
ffffffff80005daf:	4c 8b 44 24 10       	mov    r8,QWORD PTR [rsp+0x10]
ffffffff80005db4:	48 8b 44 24 08       	mov    rax,QWORD PTR [rsp+0x8]
ffffffff80005db9:	e9 56 fd ff ff       	jmp    ffffffff80005b14 <__ubsan_handle_type_mismatch_v1+0x84>
ffffffff80005dbe:	48 89 c6             	mov    rsi,rax
ffffffff80005dc1:	48 c7 c7 c0 04 01 80 	mov    rdi,0xffffffff800104c0
ffffffff80005dc8:	48 89 4c 24 20       	mov    QWORD PTR [rsp+0x20],rcx
ffffffff80005dcd:	4c 89 44 24 18       	mov    QWORD PTR [rsp+0x18],r8
ffffffff80005dd2:	44 89 5c 24 10       	mov    DWORD PTR [rsp+0x10],r11d
ffffffff80005dd7:	48 89 44 24 08       	mov    QWORD PTR [rsp+0x8],rax
ffffffff80005ddc:	e8 af fc ff ff       	call   ffffffff80005a90 <__ubsan_handle_type_mismatch_v1>
ffffffff80005de1:	48 8b 4c 24 20       	mov    rcx,QWORD PTR [rsp+0x20]
ffffffff80005de6:	4c 8b 44 24 18       	mov    r8,QWORD PTR [rsp+0x18]
ffffffff80005deb:	44 8b 5c 24 10       	mov    r11d,DWORD PTR [rsp+0x10]
ffffffff80005df0:	48 8b 44 24 08       	mov    rax,QWORD PTR [rsp+0x8]
ffffffff80005df5:	e9 3a fd ff ff       	jmp    ffffffff80005b34 <__ubsan_handle_type_mismatch_v1+0xa4>
ffffffff80005dfa:	48 89 c6             	mov    rsi,rax
ffffffff80005dfd:	4c 89 ca             	mov    rdx,r9
ffffffff80005e00:	48 89 4c 24 18       	mov    QWORD PTR [rsp+0x18],rcx
ffffffff80005e05:	48 c7 c7 e0 04 01 80 	mov    rdi,0xffffffff800104e0
ffffffff80005e0c:	4c 89 44 24 10       	mov    QWORD PTR [rsp+0x10],r8
ffffffff80005e11:	48 89 44 24 08       	mov    QWORD PTR [rsp+0x8],rax
ffffffff80005e16:	e8 c5 04 00 00       	call   ffffffff800062e0 <__ubsan_handle_pointer_overflow>
ffffffff80005e1b:	48 8b 4c 24 18       	mov    rcx,QWORD PTR [rsp+0x18]
ffffffff80005e20:	4c 8b 44 24 10       	mov    r8,QWORD PTR [rsp+0x10]
ffffffff80005e25:	48 8b 44 24 08       	mov    rax,QWORD PTR [rsp+0x8]
ffffffff80005e2a:	e9 ef fc ff ff       	jmp    ffffffff80005b1e <__ubsan_handle_type_mismatch_v1+0x8e>
ffffffff80005e2f:	48 c7 c6 60 cd 00 80 	mov    rsi,0xffffffff8000cd60
ffffffff80005e36:	48 c7 c7 60 03 01 80 	mov    rdi,0xffffffff80010360
ffffffff80005e3d:	48 89 4c 24 30       	mov    QWORD PTR [rsp+0x30],rcx
ffffffff80005e42:	48 89 44 24 28       	mov    QWORD PTR [rsp+0x28],rax
ffffffff80005e47:	4c 89 54 24 20       	mov    QWORD PTR [rsp+0x20],r10
ffffffff80005e4c:	4c 89 4c 24 18       	mov    QWORD PTR [rsp+0x18],r9
ffffffff80005e51:	4c 89 44 24 10       	mov    QWORD PTR [rsp+0x10],r8
ffffffff80005e56:	44 89 5c 24 08       	mov    DWORD PTR [rsp+0x8],r11d
ffffffff80005e5b:	e8 80 04 00 00       	call   ffffffff800062e0 <__ubsan_handle_pointer_overflow>
ffffffff80005e60:	48 8b 4c 24 30       	mov    rcx,QWORD PTR [rsp+0x30]
ffffffff80005e65:	48 8b 44 24 28       	mov    rax,QWORD PTR [rsp+0x28]
ffffffff80005e6a:	4c 8b 54 24 20       	mov    r10,QWORD PTR [rsp+0x20]
ffffffff80005e6f:	4c 8b 4c 24 18       	mov    r9,QWORD PTR [rsp+0x18]
ffffffff80005e74:	4c 8b 44 24 10       	mov    r8,QWORD PTR [rsp+0x10]
ffffffff80005e79:	44 8b 5c 24 08       	mov    r11d,DWORD PTR [rsp+0x8]
ffffffff80005e7e:	e9 36 fd ff ff       	jmp    ffffffff80005bb9 <__ubsan_handle_type_mismatch_v1+0x129>
ffffffff80005e83:	48 01 fe             	add    rsi,rdi
ffffffff80005e86:	0f 82 18 fd ff ff    	jb     ffffffff80005ba4 <__ubsan_handle_type_mismatch_v1+0x114>
ffffffff80005e8c:	48 89 fe             	mov    rsi,rdi
ffffffff80005e8f:	48 c7 c7 80 03 01 80 	mov    rdi,0xffffffff80010380
ffffffff80005e96:	48 89 4c 24 38       	mov    QWORD PTR [rsp+0x38],rcx
ffffffff80005e9b:	48 89 44 24 30       	mov    QWORD PTR [rsp+0x30],rax
ffffffff80005ea0:	4c 89 54 24 28       	mov    QWORD PTR [rsp+0x28],r10
ffffffff80005ea5:	4c 89 4c 24 20       	mov    QWORD PTR [rsp+0x20],r9
ffffffff80005eaa:	48 89 54 24 18       	mov    QWORD PTR [rsp+0x18],rdx
ffffffff80005eaf:	4c 89 44 24 10       	mov    QWORD PTR [rsp+0x10],r8
ffffffff80005eb4:	44 89 5c 24 08       	mov    DWORD PTR [rsp+0x8],r11d
ffffffff80005eb9:	e8 d2 fb ff ff       	call   ffffffff80005a90 <__ubsan_handle_type_mismatch_v1>
ffffffff80005ebe:	48 8b 4c 24 38       	mov    rcx,QWORD PTR [rsp+0x38]
ffffffff80005ec3:	48 8b 44 24 30       	mov    rax,QWORD PTR [rsp+0x30]
ffffffff80005ec8:	4c 8b 54 24 28       	mov    r10,QWORD PTR [rsp+0x28]
ffffffff80005ecd:	4c 8b 4c 24 20       	mov    r9,QWORD PTR [rsp+0x20]
ffffffff80005ed2:	48 8b 54 24 18       	mov    rdx,QWORD PTR [rsp+0x18]
ffffffff80005ed7:	4c 8b 44 24 10       	mov    r8,QWORD PTR [rsp+0x10]
ffffffff80005edc:	44 8b 5c 24 08       	mov    r11d,DWORD PTR [rsp+0x8]
ffffffff80005ee1:	e9 be fc ff ff       	jmp    ffffffff80005ba4 <__ubsan_handle_type_mismatch_v1+0x114>
ffffffff80005ee6:	48 89 c6             	mov    rsi,rax
ffffffff80005ee9:	48 c7 c7 40 03 01 80 	mov    rdi,0xffffffff80010340
ffffffff80005ef0:	48 89 4c 24 30       	mov    QWORD PTR [rsp+0x30],rcx
ffffffff80005ef5:	4c 89 54 24 28       	mov    QWORD PTR [rsp+0x28],r10
ffffffff80005efa:	4c 89 44 24 20       	mov    QWORD PTR [rsp+0x20],r8
ffffffff80005eff:	4c 89 4c 24 18       	mov    QWORD PTR [rsp+0x18],r9
ffffffff80005f04:	44 89 5c 24 10       	mov    DWORD PTR [rsp+0x10],r11d
ffffffff80005f09:	48 89 44 24 08       	mov    QWORD PTR [rsp+0x8],rax
ffffffff80005f0e:	e8 7d fb ff ff       	call   ffffffff80005a90 <__ubsan_handle_type_mismatch_v1>
ffffffff80005f13:	48 8b 4c 24 30       	mov    rcx,QWORD PTR [rsp+0x30]
ffffffff80005f18:	4c 8b 54 24 28       	mov    r10,QWORD PTR [rsp+0x28]
ffffffff80005f1d:	4c 8b 44 24 20       	mov    r8,QWORD PTR [rsp+0x20]
ffffffff80005f22:	4c 8b 4c 24 18       	mov    r9,QWORD PTR [rsp+0x18]
ffffffff80005f27:	44 8b 5c 24 10       	mov    r11d,DWORD PTR [rsp+0x10]
ffffffff80005f2c:	48 8b 44 24 08       	mov    rax,QWORD PTR [rsp+0x8]
ffffffff80005f31:	e9 9c fc ff ff       	jmp    ffffffff80005bd2 <__ubsan_handle_type_mismatch_v1+0x142>
ffffffff80005f36:	48 c7 c7 60 04 01 80 	mov    rdi,0xffffffff80010460
ffffffff80005f3d:	48 89 4c 24 28       	mov    QWORD PTR [rsp+0x28],rcx
ffffffff80005f42:	48 89 44 24 20       	mov    QWORD PTR [rsp+0x20],rax
ffffffff80005f47:	4c 89 44 24 18       	mov    QWORD PTR [rsp+0x18],r8
ffffffff80005f4c:	44 89 5c 24 10       	mov    DWORD PTR [rsp+0x10],r11d
ffffffff80005f51:	48 89 74 24 08       	mov    QWORD PTR [rsp+0x8],rsi
ffffffff80005f56:	e8 35 fb ff ff       	call   ffffffff80005a90 <__ubsan_handle_type_mismatch_v1>
ffffffff80005f5b:	48 8b 4c 24 28       	mov    rcx,QWORD PTR [rsp+0x28]
ffffffff80005f60:	48 8b 44 24 20       	mov    rax,QWORD PTR [rsp+0x20]
ffffffff80005f65:	4c 8b 44 24 18       	mov    r8,QWORD PTR [rsp+0x18]
ffffffff80005f6a:	44 8b 5c 24 10       	mov    r11d,DWORD PTR [rsp+0x10]
ffffffff80005f6f:	48 8b 74 24 08       	mov    rsi,QWORD PTR [rsp+0x8]
ffffffff80005f74:	e9 d2 fb ff ff       	jmp    ffffffff80005b4b <__ubsan_handle_type_mismatch_v1+0xbb>
ffffffff80005f79:	48 89 c6             	mov    rsi,rax
ffffffff80005f7c:	48 c7 c7 20 05 01 80 	mov    rdi,0xffffffff80010520
ffffffff80005f83:	48 89 4c 24 20       	mov    QWORD PTR [rsp+0x20],rcx
ffffffff80005f88:	4c 89 4c 24 18       	mov    QWORD PTR [rsp+0x18],r9
ffffffff80005f8d:	88 54 24 10          	mov    BYTE PTR [rsp+0x10],dl
ffffffff80005f91:	48 89 44 24 08       	mov    QWORD PTR [rsp+0x8],rax
ffffffff80005f96:	e8 f5 fa ff ff       	call   ffffffff80005a90 <__ubsan_handle_type_mismatch_v1>
ffffffff80005f9b:	48 8b 4c 24 20       	mov    rcx,QWORD PTR [rsp+0x20]
ffffffff80005fa0:	4c 8b 4c 24 18       	mov    r9,QWORD PTR [rsp+0x18]
ffffffff80005fa5:	0f b6 54 24 10       	movzx  edx,BYTE PTR [rsp+0x10]
ffffffff80005faa:	48 8b 44 24 08       	mov    rax,QWORD PTR [rsp+0x8]
ffffffff80005faf:	e9 25 fb ff ff       	jmp    ffffffff80005ad9 <__ubsan_handle_type_mismatch_v1+0x49>
ffffffff80005fb4:	66 2e 0f 1f 84 00 00 	cs nop WORD PTR [rax+rax*1+0x0]
ffffffff80005fbb:	00 00 00 
ffffffff80005fbe:	66 90                	xchg   ax,ax

ffffffff80005fc0 <__ubsan_handle_add_overflow>:
ffffffff80005fc0:	48 83 ec 28          	sub    rsp,0x28
ffffffff80005fc4:	48 89 f8             	mov    rax,rdi
ffffffff80005fc7:	49 89 f1             	mov    r9,rsi
ffffffff80005fca:	49 89 d2             	mov    r10,rdx
ffffffff80005fcd:	48 85 ff             	test   rdi,rdi
ffffffff80005fd0:	74 64                	je     ffffffff80006036 <__ubsan_handle_add_overflow+0x76>
ffffffff80005fd2:	40 f6 c7 07          	test   dil,0x7
ffffffff80005fd6:	75 5e                	jne    ffffffff80006036 <__ubsan_handle_add_overflow+0x76>
ffffffff80005fd8:	48 8d 50 10          	lea    rdx,[rax+0x10]
ffffffff80005fdc:	48 83 f8 f0          	cmp    rax,0xfffffffffffffff0
ffffffff80005fe0:	0f 83 2b 01 00 00    	jae    ffffffff80006111 <__ubsan_handle_add_overflow+0x151>
ffffffff80005fe6:	48 8b 70 10          	mov    rsi,QWORD PTR [rax+0x10]
ffffffff80005fea:	48 85 f6             	test   rsi,rsi
ffffffff80005fed:	0f 84 e7 00 00 00    	je     ffffffff800060da <__ubsan_handle_add_overflow+0x11a>
ffffffff80005ff3:	40 f6 c6 01          	test   sil,0x1
ffffffff80005ff7:	0f 85 dd 00 00 00    	jne    ffffffff800060da <__ubsan_handle_add_overflow+0x11a>
ffffffff80005ffd:	4c 8d 46 04          	lea    r8,[rsi+0x4]
ffffffff80006001:	48 83 fe fc          	cmp    rsi,0xfffffffffffffffc
ffffffff80006005:	0f 83 95 00 00 00    	jae    ffffffff800060a0 <__ubsan_handle_add_overflow+0xe0>
ffffffff8000600b:	48 85 c0             	test   rax,rax
ffffffff8000600e:	74 56                	je     ffffffff80006066 <__ubsan_handle_add_overflow+0xa6>
ffffffff80006010:	a8 07                	test   al,0x7
ffffffff80006012:	75 52                	jne    ffffffff80006066 <__ubsan_handle_add_overflow+0xa6>
ffffffff80006014:	48 83 ec 08          	sub    rsp,0x8
ffffffff80006018:	8b 48 0c             	mov    ecx,DWORD PTR [rax+0xc]
ffffffff8000601b:	8b 50 08             	mov    edx,DWORD PTR [rax+0x8]
ffffffff8000601e:	48 c7 c7 98 c9 00 80 	mov    rdi,0xffffffff8000c998
ffffffff80006025:	48 8b 30             	mov    rsi,QWORD PTR [rax]
ffffffff80006028:	41 52                	push   r10
ffffffff8000602a:	31 c0                	xor    eax,eax
ffffffff8000602c:	e8 9f c7 ff ff       	call   ffffffff800027d0 <mubsan_log>
ffffffff80006031:	48 83 c4 38          	add    rsp,0x38
ffffffff80006035:	c3                   	ret
ffffffff80006036:	48 89 c6             	mov    rsi,rax
ffffffff80006039:	48 c7 c7 00 03 01 80 	mov    rdi,0xffffffff80010300
ffffffff80006040:	4c 89 54 24 10       	mov    QWORD PTR [rsp+0x10],r10
ffffffff80006045:	4c 89 4c 24 08       	mov    QWORD PTR [rsp+0x8],r9
ffffffff8000604a:	48 89 04 24          	mov    QWORD PTR [rsp],rax
ffffffff8000604e:	e8 3d fa ff ff       	call   ffffffff80005a90 <__ubsan_handle_type_mismatch_v1>
ffffffff80006053:	4c 8b 54 24 10       	mov    r10,QWORD PTR [rsp+0x10]
ffffffff80006058:	4c 8b 4c 24 08       	mov    r9,QWORD PTR [rsp+0x8]
ffffffff8000605d:	48 8b 04 24          	mov    rax,QWORD PTR [rsp]
ffffffff80006061:	e9 72 ff ff ff       	jmp    ffffffff80005fd8 <__ubsan_handle_add_overflow+0x18>
ffffffff80006066:	48 89 c6             	mov    rsi,rax
ffffffff80006069:	48 c7 c7 80 02 01 80 	mov    rdi,0xffffffff80010280
ffffffff80006070:	4c 89 54 24 18       	mov    QWORD PTR [rsp+0x18],r10
ffffffff80006075:	4c 89 4c 24 10       	mov    QWORD PTR [rsp+0x10],r9
ffffffff8000607a:	4c 89 44 24 08       	mov    QWORD PTR [rsp+0x8],r8
ffffffff8000607f:	48 89 04 24          	mov    QWORD PTR [rsp],rax
ffffffff80006083:	e8 08 fa ff ff       	call   ffffffff80005a90 <__ubsan_handle_type_mismatch_v1>
ffffffff80006088:	4c 8b 54 24 18       	mov    r10,QWORD PTR [rsp+0x18]
ffffffff8000608d:	4c 8b 4c 24 10       	mov    r9,QWORD PTR [rsp+0x10]
ffffffff80006092:	4c 8b 44 24 08       	mov    r8,QWORD PTR [rsp+0x8]
ffffffff80006097:	48 8b 04 24          	mov    rax,QWORD PTR [rsp]
ffffffff8000609b:	e9 74 ff ff ff       	jmp    ffffffff80006014 <__ubsan_handle_add_overflow+0x54>
ffffffff800060a0:	4c 89 c2             	mov    rdx,r8
ffffffff800060a3:	48 c7 c7 a0 02 01 80 	mov    rdi,0xffffffff800102a0
ffffffff800060aa:	4c 89 54 24 18       	mov    QWORD PTR [rsp+0x18],r10
ffffffff800060af:	4c 89 4c 24 10       	mov    QWORD PTR [rsp+0x10],r9
ffffffff800060b4:	48 89 44 24 08       	mov    QWORD PTR [rsp+0x8],rax
ffffffff800060b9:	4c 89 04 24          	mov    QWORD PTR [rsp],r8
ffffffff800060bd:	e8 1e 02 00 00       	call   ffffffff800062e0 <__ubsan_handle_pointer_overflow>
ffffffff800060c2:	4c 8b 54 24 18       	mov    r10,QWORD PTR [rsp+0x18]
ffffffff800060c7:	4c 8b 4c 24 10       	mov    r9,QWORD PTR [rsp+0x10]
ffffffff800060cc:	48 8b 44 24 08       	mov    rax,QWORD PTR [rsp+0x8]
ffffffff800060d1:	4c 8b 04 24          	mov    r8,QWORD PTR [rsp]
ffffffff800060d5:	e9 31 ff ff ff       	jmp    ffffffff8000600b <__ubsan_handle_add_overflow+0x4b>
ffffffff800060da:	48 c7 c7 c0 02 01 80 	mov    rdi,0xffffffff800102c0
ffffffff800060e1:	4c 89 54 24 18       	mov    QWORD PTR [rsp+0x18],r10
ffffffff800060e6:	4c 89 4c 24 10       	mov    QWORD PTR [rsp+0x10],r9
ffffffff800060eb:	48 89 44 24 08       	mov    QWORD PTR [rsp+0x8],rax
ffffffff800060f0:	48 89 34 24          	mov    QWORD PTR [rsp],rsi
ffffffff800060f4:	e8 97 f9 ff ff       	call   ffffffff80005a90 <__ubsan_handle_type_mismatch_v1>
ffffffff800060f9:	4c 8b 54 24 18       	mov    r10,QWORD PTR [rsp+0x18]
ffffffff800060fe:	4c 8b 4c 24 10       	mov    r9,QWORD PTR [rsp+0x10]
ffffffff80006103:	48 8b 44 24 08       	mov    rax,QWORD PTR [rsp+0x8]
ffffffff80006108:	48 8b 34 24          	mov    rsi,QWORD PTR [rsp]
ffffffff8000610c:	e9 ec fe ff ff       	jmp    ffffffff80005ffd <__ubsan_handle_add_overflow+0x3d>
ffffffff80006111:	48 89 c6             	mov    rsi,rax
ffffffff80006114:	48 c7 c7 e0 02 01 80 	mov    rdi,0xffffffff800102e0
ffffffff8000611b:	4c 89 54 24 10       	mov    QWORD PTR [rsp+0x10],r10
ffffffff80006120:	4c 89 4c 24 08       	mov    QWORD PTR [rsp+0x8],r9
ffffffff80006125:	48 89 04 24          	mov    QWORD PTR [rsp],rax
ffffffff80006129:	e8 b2 01 00 00       	call   ffffffff800062e0 <__ubsan_handle_pointer_overflow>
ffffffff8000612e:	4c 8b 54 24 10       	mov    r10,QWORD PTR [rsp+0x10]
ffffffff80006133:	4c 8b 4c 24 08       	mov    r9,QWORD PTR [rsp+0x8]
ffffffff80006138:	48 8b 04 24          	mov    rax,QWORD PTR [rsp]
ffffffff8000613c:	e9 a5 fe ff ff       	jmp    ffffffff80005fe6 <__ubsan_handle_add_overflow+0x26>
ffffffff80006141:	66 2e 0f 1f 84 00 00 	cs nop WORD PTR [rax+rax*1+0x0]
ffffffff80006148:	00 00 00 
ffffffff8000614b:	0f 1f 44 00 00       	nop    DWORD PTR [rax+rax*1+0x0]

ffffffff80006150 <__ubsan_handle_divrem_overflow>:
ffffffff80006150:	48 83 ec 28          	sub    rsp,0x28
ffffffff80006154:	48 89 f8             	mov    rax,rdi
ffffffff80006157:	49 89 f1             	mov    r9,rsi
ffffffff8000615a:	49 89 d2             	mov    r10,rdx
ffffffff8000615d:	48 85 ff             	test   rdi,rdi
ffffffff80006160:	74 64                	je     ffffffff800061c6 <__ubsan_handle_divrem_overflow+0x76>
ffffffff80006162:	40 f6 c7 07          	test   dil,0x7
ffffffff80006166:	75 5e                	jne    ffffffff800061c6 <__ubsan_handle_divrem_overflow+0x76>
ffffffff80006168:	48 8d 50 10          	lea    rdx,[rax+0x10]
ffffffff8000616c:	48 83 f8 f0          	cmp    rax,0xfffffffffffffff0
ffffffff80006170:	0f 83 2b 01 00 00    	jae    ffffffff800062a1 <__ubsan_handle_divrem_overflow+0x151>
ffffffff80006176:	48 8b 70 10          	mov    rsi,QWORD PTR [rax+0x10]
ffffffff8000617a:	48 85 f6             	test   rsi,rsi
ffffffff8000617d:	0f 84 e7 00 00 00    	je     ffffffff8000626a <__ubsan_handle_divrem_overflow+0x11a>
ffffffff80006183:	40 f6 c6 01          	test   sil,0x1
ffffffff80006187:	0f 85 dd 00 00 00    	jne    ffffffff8000626a <__ubsan_handle_divrem_overflow+0x11a>
ffffffff8000618d:	4c 8d 46 04          	lea    r8,[rsi+0x4]
ffffffff80006191:	48 83 fe fc          	cmp    rsi,0xfffffffffffffffc
ffffffff80006195:	0f 83 95 00 00 00    	jae    ffffffff80006230 <__ubsan_handle_divrem_overflow+0xe0>
ffffffff8000619b:	48 85 c0             	test   rax,rax
ffffffff8000619e:	74 56                	je     ffffffff800061f6 <__ubsan_handle_divrem_overflow+0xa6>
ffffffff800061a0:	a8 07                	test   al,0x7
ffffffff800061a2:	75 52                	jne    ffffffff800061f6 <__ubsan_handle_divrem_overflow+0xa6>
ffffffff800061a4:	48 83 ec 08          	sub    rsp,0x8
ffffffff800061a8:	8b 48 0c             	mov    ecx,DWORD PTR [rax+0xc]
ffffffff800061ab:	8b 50 08             	mov    edx,DWORD PTR [rax+0x8]
ffffffff800061ae:	48 c7 c7 e8 c9 00 80 	mov    rdi,0xffffffff8000c9e8
ffffffff800061b5:	48 8b 30             	mov    rsi,QWORD PTR [rax]
ffffffff800061b8:	41 52                	push   r10
ffffffff800061ba:	31 c0                	xor    eax,eax
ffffffff800061bc:	e8 0f c6 ff ff       	call   ffffffff800027d0 <mubsan_log>
ffffffff800061c1:	48 83 c4 38          	add    rsp,0x38
ffffffff800061c5:	c3                   	ret
ffffffff800061c6:	48 89 c6             	mov    rsi,rax
ffffffff800061c9:	48 c7 c7 60 02 01 80 	mov    rdi,0xffffffff80010260
ffffffff800061d0:	4c 89 54 24 10       	mov    QWORD PTR [rsp+0x10],r10
ffffffff800061d5:	4c 89 4c 24 08       	mov    QWORD PTR [rsp+0x8],r9
ffffffff800061da:	48 89 04 24          	mov    QWORD PTR [rsp],rax
ffffffff800061de:	e8 ad f8 ff ff       	call   ffffffff80005a90 <__ubsan_handle_type_mismatch_v1>
ffffffff800061e3:	4c 8b 54 24 10       	mov    r10,QWORD PTR [rsp+0x10]
ffffffff800061e8:	4c 8b 4c 24 08       	mov    r9,QWORD PTR [rsp+0x8]
ffffffff800061ed:	48 8b 04 24          	mov    rax,QWORD PTR [rsp]
ffffffff800061f1:	e9 72 ff ff ff       	jmp    ffffffff80006168 <__ubsan_handle_divrem_overflow+0x18>
ffffffff800061f6:	48 89 c6             	mov    rsi,rax
ffffffff800061f9:	48 c7 c7 e0 01 01 80 	mov    rdi,0xffffffff800101e0
ffffffff80006200:	4c 89 54 24 18       	mov    QWORD PTR [rsp+0x18],r10
ffffffff80006205:	4c 89 4c 24 10       	mov    QWORD PTR [rsp+0x10],r9
ffffffff8000620a:	4c 89 44 24 08       	mov    QWORD PTR [rsp+0x8],r8
ffffffff8000620f:	48 89 04 24          	mov    QWORD PTR [rsp],rax
ffffffff80006213:	e8 78 f8 ff ff       	call   ffffffff80005a90 <__ubsan_handle_type_mismatch_v1>
ffffffff80006218:	4c 8b 54 24 18       	mov    r10,QWORD PTR [rsp+0x18]
ffffffff8000621d:	4c 8b 4c 24 10       	mov    r9,QWORD PTR [rsp+0x10]
ffffffff80006222:	4c 8b 44 24 08       	mov    r8,QWORD PTR [rsp+0x8]
ffffffff80006227:	48 8b 04 24          	mov    rax,QWORD PTR [rsp]
ffffffff8000622b:	e9 74 ff ff ff       	jmp    ffffffff800061a4 <__ubsan_handle_divrem_overflow+0x54>
ffffffff80006230:	4c 89 c2             	mov    rdx,r8
ffffffff80006233:	48 c7 c7 00 02 01 80 	mov    rdi,0xffffffff80010200
ffffffff8000623a:	4c 89 54 24 18       	mov    QWORD PTR [rsp+0x18],r10
ffffffff8000623f:	4c 89 4c 24 10       	mov    QWORD PTR [rsp+0x10],r9
ffffffff80006244:	48 89 44 24 08       	mov    QWORD PTR [rsp+0x8],rax
ffffffff80006249:	4c 89 04 24          	mov    QWORD PTR [rsp],r8
ffffffff8000624d:	e8 8e 00 00 00       	call   ffffffff800062e0 <__ubsan_handle_pointer_overflow>
ffffffff80006252:	4c 8b 54 24 18       	mov    r10,QWORD PTR [rsp+0x18]
ffffffff80006257:	4c 8b 4c 24 10       	mov    r9,QWORD PTR [rsp+0x10]
ffffffff8000625c:	48 8b 44 24 08       	mov    rax,QWORD PTR [rsp+0x8]
ffffffff80006261:	4c 8b 04 24          	mov    r8,QWORD PTR [rsp]
ffffffff80006265:	e9 31 ff ff ff       	jmp    ffffffff8000619b <__ubsan_handle_divrem_overflow+0x4b>
ffffffff8000626a:	48 c7 c7 20 02 01 80 	mov    rdi,0xffffffff80010220
ffffffff80006271:	4c 89 54 24 18       	mov    QWORD PTR [rsp+0x18],r10
ffffffff80006276:	4c 89 4c 24 10       	mov    QWORD PTR [rsp+0x10],r9
ffffffff8000627b:	48 89 44 24 08       	mov    QWORD PTR [rsp+0x8],rax
ffffffff80006280:	48 89 34 24          	mov    QWORD PTR [rsp],rsi
ffffffff80006284:	e8 07 f8 ff ff       	call   ffffffff80005a90 <__ubsan_handle_type_mismatch_v1>
ffffffff80006289:	4c 8b 54 24 18       	mov    r10,QWORD PTR [rsp+0x18]
ffffffff8000628e:	4c 8b 4c 24 10       	mov    r9,QWORD PTR [rsp+0x10]
ffffffff80006293:	48 8b 44 24 08       	mov    rax,QWORD PTR [rsp+0x8]
ffffffff80006298:	48 8b 34 24          	mov    rsi,QWORD PTR [rsp]
ffffffff8000629c:	e9 ec fe ff ff       	jmp    ffffffff8000618d <__ubsan_handle_divrem_overflow+0x3d>
ffffffff800062a1:	48 89 c6             	mov    rsi,rax
ffffffff800062a4:	48 c7 c7 40 02 01 80 	mov    rdi,0xffffffff80010240
ffffffff800062ab:	4c 89 54 24 10       	mov    QWORD PTR [rsp+0x10],r10
ffffffff800062b0:	4c 89 4c 24 08       	mov    QWORD PTR [rsp+0x8],r9
ffffffff800062b5:	48 89 04 24          	mov    QWORD PTR [rsp],rax
ffffffff800062b9:	e8 22 00 00 00       	call   ffffffff800062e0 <__ubsan_handle_pointer_overflow>
ffffffff800062be:	4c 8b 54 24 10       	mov    r10,QWORD PTR [rsp+0x10]
ffffffff800062c3:	4c 8b 4c 24 08       	mov    r9,QWORD PTR [rsp+0x8]
ffffffff800062c8:	48 8b 04 24          	mov    rax,QWORD PTR [rsp]
ffffffff800062cc:	e9 a5 fe ff ff       	jmp    ffffffff80006176 <__ubsan_handle_divrem_overflow+0x26>
ffffffff800062d1:	66 2e 0f 1f 84 00 00 	cs nop WORD PTR [rax+rax*1+0x0]
ffffffff800062d8:	00 00 00 
ffffffff800062db:	0f 1f 44 00 00       	nop    DWORD PTR [rax+rax*1+0x0]

ffffffff800062e0 <__ubsan_handle_pointer_overflow>:
ffffffff800062e0:	48 83 ec 28          	sub    rsp,0x28
ffffffff800062e4:	48 89 f8             	mov    rax,rdi
ffffffff800062e7:	49 89 f0             	mov    r8,rsi
ffffffff800062ea:	49 89 d1             	mov    r9,rdx
ffffffff800062ed:	48 85 ff             	test   rdi,rdi
ffffffff800062f0:	74 2b                	je     ffffffff8000631d <__ubsan_handle_pointer_overflow+0x3d>
ffffffff800062f2:	40 f6 c7 07          	test   dil,0x7
ffffffff800062f6:	75 25                	jne    ffffffff8000631d <__ubsan_handle_pointer_overflow+0x3d>
ffffffff800062f8:	48 8d 50 0c          	lea    rdx,[rax+0xc]
ffffffff800062fc:	48 83 f8 f4          	cmp    rax,0xfffffffffffffff4
ffffffff80006300:	73 4a                	jae    ffffffff8000634c <__ubsan_handle_pointer_overflow+0x6c>
ffffffff80006302:	8b 48 0c             	mov    ecx,DWORD PTR [rax+0xc]
ffffffff80006305:	8b 50 08             	mov    edx,DWORD PTR [rax+0x8]
ffffffff80006308:	48 c7 c7 38 ca 00 80 	mov    rdi,0xffffffff8000ca38
ffffffff8000630f:	48 8b 30             	mov    rsi,QWORD PTR [rax]
ffffffff80006312:	31 c0                	xor    eax,eax
ffffffff80006314:	48 83 c4 28          	add    rsp,0x28
ffffffff80006318:	e9 b3 c4 ff ff       	jmp    ffffffff800027d0 <mubsan_log>
ffffffff8000631d:	48 89 c6             	mov    rsi,rax
ffffffff80006320:	48 c7 c7 80 01 01 80 	mov    rdi,0xffffffff80010180
ffffffff80006327:	4c 89 4c 24 18       	mov    QWORD PTR [rsp+0x18],r9
ffffffff8000632c:	4c 89 44 24 10       	mov    QWORD PTR [rsp+0x10],r8
ffffffff80006331:	48 89 44 24 08       	mov    QWORD PTR [rsp+0x8],rax
ffffffff80006336:	e8 55 f7 ff ff       	call   ffffffff80005a90 <__ubsan_handle_type_mismatch_v1>
ffffffff8000633b:	4c 8b 4c 24 18       	mov    r9,QWORD PTR [rsp+0x18]
ffffffff80006340:	4c 8b 44 24 10       	mov    r8,QWORD PTR [rsp+0x10]
ffffffff80006345:	48 8b 44 24 08       	mov    rax,QWORD PTR [rsp+0x8]
ffffffff8000634a:	eb ac                	jmp    ffffffff800062f8 <__ubsan_handle_pointer_overflow+0x18>
ffffffff8000634c:	48 89 c6             	mov    rsi,rax
ffffffff8000634f:	48 c7 c7 70 01 01 80 	mov    rdi,0xffffffff80010170
ffffffff80006356:	4c 89 4c 24 18       	mov    QWORD PTR [rsp+0x18],r9
ffffffff8000635b:	4c 89 44 24 10       	mov    QWORD PTR [rsp+0x10],r8
ffffffff80006360:	48 89 44 24 08       	mov    QWORD PTR [rsp+0x8],rax
ffffffff80006365:	e8 76 ff ff ff       	call   ffffffff800062e0 <__ubsan_handle_pointer_overflow>
ffffffff8000636a:	4c 8b 4c 24 18       	mov    r9,QWORD PTR [rsp+0x18]
ffffffff8000636f:	4c 8b 44 24 10       	mov    r8,QWORD PTR [rsp+0x10]
ffffffff80006374:	48 8b 44 24 08       	mov    rax,QWORD PTR [rsp+0x8]
ffffffff80006379:	eb 87                	jmp    ffffffff80006302 <__ubsan_handle_pointer_overflow+0x22>
ffffffff8000637b:	0f 1f 44 00 00       	nop    DWORD PTR [rax+rax*1+0x0]

ffffffff80006380 <__ubsan_handle_out_of_bounds>:
ffffffff80006380:	48 83 ec 28          	sub    rsp,0x28
ffffffff80006384:	48 89 f8             	mov    rax,rdi
ffffffff80006387:	49 89 f2             	mov    r10,rsi
ffffffff8000638a:	48 85 ff             	test   rdi,rdi
ffffffff8000638d:	0f 84 9e 00 00 00    	je     ffffffff80006431 <__ubsan_handle_out_of_bounds+0xb1>
ffffffff80006393:	40 f6 c7 07          	test   dil,0x7
ffffffff80006397:	0f 85 94 00 00 00    	jne    ffffffff80006431 <__ubsan_handle_out_of_bounds+0xb1>
ffffffff8000639d:	48 8d 50 18          	lea    rdx,[rax+0x18]
ffffffff800063a1:	48 83 f8 e8          	cmp    rax,0xffffffffffffffe8
ffffffff800063a5:	0f 83 e1 01 00 00    	jae    ffffffff8000658c <__ubsan_handle_out_of_bounds+0x20c>
ffffffff800063ab:	48 8b 70 18          	mov    rsi,QWORD PTR [rax+0x18]
ffffffff800063af:	48 85 f6             	test   rsi,rsi
ffffffff800063b2:	0f 84 a7 01 00 00    	je     ffffffff8000655f <__ubsan_handle_out_of_bounds+0x1df>
ffffffff800063b8:	40 f6 c6 01          	test   sil,0x1
ffffffff800063bc:	0f 85 9d 01 00 00    	jne    ffffffff8000655f <__ubsan_handle_out_of_bounds+0x1df>
ffffffff800063c2:	4c 8d 4e 04          	lea    r9,[rsi+0x4]
ffffffff800063c6:	48 83 fe fc          	cmp    rsi,0xfffffffffffffffc
ffffffff800063ca:	0f 83 5f 01 00 00    	jae    ffffffff8000652f <__ubsan_handle_out_of_bounds+0x1af>
ffffffff800063d0:	48 85 c0             	test   rax,rax
ffffffff800063d3:	0f 84 26 01 00 00    	je     ffffffff800064ff <__ubsan_handle_out_of_bounds+0x17f>
ffffffff800063d9:	a8 07                	test   al,0x7
ffffffff800063db:	0f 85 1e 01 00 00    	jne    ffffffff800064ff <__ubsan_handle_out_of_bounds+0x17f>
ffffffff800063e1:	48 8b 70 10          	mov    rsi,QWORD PTR [rax+0x10]
ffffffff800063e5:	48 85 f6             	test   rsi,rsi
ffffffff800063e8:	0f 84 da 00 00 00    	je     ffffffff800064c8 <__ubsan_handle_out_of_bounds+0x148>
ffffffff800063ee:	40 f6 c6 01          	test   sil,0x1
ffffffff800063f2:	0f 85 d0 00 00 00    	jne    ffffffff800064c8 <__ubsan_handle_out_of_bounds+0x148>
ffffffff800063f8:	4c 8d 46 04          	lea    r8,[rsi+0x4]
ffffffff800063fc:	48 83 fe fc          	cmp    rsi,0xfffffffffffffffc
ffffffff80006400:	0f 83 88 00 00 00    	jae    ffffffff8000648e <__ubsan_handle_out_of_bounds+0x10e>
ffffffff80006406:	48 85 c0             	test   rax,rax
ffffffff80006409:	74 4c                	je     ffffffff80006457 <__ubsan_handle_out_of_bounds+0xd7>
ffffffff8000640b:	a8 07                	test   al,0x7
ffffffff8000640d:	75 48                	jne    ffffffff80006457 <__ubsan_handle_out_of_bounds+0xd7>
ffffffff8000640f:	48 83 ec 08          	sub    rsp,0x8
ffffffff80006413:	8b 48 0c             	mov    ecx,DWORD PTR [rax+0xc]
ffffffff80006416:	8b 50 08             	mov    edx,DWORD PTR [rax+0x8]
ffffffff80006419:	48 c7 c7 78 ca 00 80 	mov    rdi,0xffffffff8000ca78
ffffffff80006420:	48 8b 30             	mov    rsi,QWORD PTR [rax]
ffffffff80006423:	41 52                	push   r10
ffffffff80006425:	31 c0                	xor    eax,eax
ffffffff80006427:	e8 a4 c3 ff ff       	call   ffffffff800027d0 <mubsan_log>
ffffffff8000642c:	48 83 c4 38          	add    rsp,0x38
ffffffff80006430:	c3                   	ret
ffffffff80006431:	48 89 c6             	mov    rsi,rax
ffffffff80006434:	48 c7 c7 20 01 01 80 	mov    rdi,0xffffffff80010120
ffffffff8000643b:	4c 89 54 24 08       	mov    QWORD PTR [rsp+0x8],r10
ffffffff80006440:	48 89 04 24          	mov    QWORD PTR [rsp],rax
ffffffff80006444:	e8 47 f6 ff ff       	call   ffffffff80005a90 <__ubsan_handle_type_mismatch_v1>
ffffffff80006449:	4c 8b 54 24 08       	mov    r10,QWORD PTR [rsp+0x8]
ffffffff8000644e:	48 8b 04 24          	mov    rax,QWORD PTR [rsp]
ffffffff80006452:	e9 46 ff ff ff       	jmp    ffffffff8000639d <__ubsan_handle_out_of_bounds+0x1d>
ffffffff80006457:	48 89 c6             	mov    rsi,rax
ffffffff8000645a:	48 c7 c7 40 00 01 80 	mov    rdi,0xffffffff80010040
ffffffff80006461:	4c 89 54 24 18       	mov    QWORD PTR [rsp+0x18],r10
ffffffff80006466:	4c 89 44 24 10       	mov    QWORD PTR [rsp+0x10],r8
ffffffff8000646b:	4c 89 4c 24 08       	mov    QWORD PTR [rsp+0x8],r9
ffffffff80006470:	48 89 04 24          	mov    QWORD PTR [rsp],rax
ffffffff80006474:	e8 17 f6 ff ff       	call   ffffffff80005a90 <__ubsan_handle_type_mismatch_v1>
ffffffff80006479:	4c 8b 54 24 18       	mov    r10,QWORD PTR [rsp+0x18]
ffffffff8000647e:	4c 8b 44 24 10       	mov    r8,QWORD PTR [rsp+0x10]
ffffffff80006483:	4c 8b 4c 24 08       	mov    r9,QWORD PTR [rsp+0x8]
ffffffff80006488:	48 8b 04 24          	mov    rax,QWORD PTR [rsp]
ffffffff8000648c:	eb 81                	jmp    ffffffff8000640f <__ubsan_handle_out_of_bounds+0x8f>
ffffffff8000648e:	4c 89 c2             	mov    rdx,r8
ffffffff80006491:	48 c7 c7 60 00 01 80 	mov    rdi,0xffffffff80010060
ffffffff80006498:	4c 89 54 24 18       	mov    QWORD PTR [rsp+0x18],r10
ffffffff8000649d:	48 89 44 24 10       	mov    QWORD PTR [rsp+0x10],rax
ffffffff800064a2:	4c 89 4c 24 08       	mov    QWORD PTR [rsp+0x8],r9
ffffffff800064a7:	4c 89 04 24          	mov    QWORD PTR [rsp],r8
ffffffff800064ab:	e8 30 fe ff ff       	call   ffffffff800062e0 <__ubsan_handle_pointer_overflow>
ffffffff800064b0:	4c 8b 54 24 18       	mov    r10,QWORD PTR [rsp+0x18]
ffffffff800064b5:	48 8b 44 24 10       	mov    rax,QWORD PTR [rsp+0x10]
ffffffff800064ba:	4c 8b 4c 24 08       	mov    r9,QWORD PTR [rsp+0x8]
ffffffff800064bf:	4c 8b 04 24          	mov    r8,QWORD PTR [rsp]
ffffffff800064c3:	e9 3e ff ff ff       	jmp    ffffffff80006406 <__ubsan_handle_out_of_bounds+0x86>
ffffffff800064c8:	48 c7 c7 80 00 01 80 	mov    rdi,0xffffffff80010080
ffffffff800064cf:	4c 89 54 24 18       	mov    QWORD PTR [rsp+0x18],r10
ffffffff800064d4:	48 89 44 24 10       	mov    QWORD PTR [rsp+0x10],rax
ffffffff800064d9:	4c 89 4c 24 08       	mov    QWORD PTR [rsp+0x8],r9
ffffffff800064de:	48 89 34 24          	mov    QWORD PTR [rsp],rsi
ffffffff800064e2:	e8 a9 f5 ff ff       	call   ffffffff80005a90 <__ubsan_handle_type_mismatch_v1>
ffffffff800064e7:	4c 8b 54 24 18       	mov    r10,QWORD PTR [rsp+0x18]
ffffffff800064ec:	48 8b 44 24 10       	mov    rax,QWORD PTR [rsp+0x10]
ffffffff800064f1:	4c 8b 4c 24 08       	mov    r9,QWORD PTR [rsp+0x8]
ffffffff800064f6:	48 8b 34 24          	mov    rsi,QWORD PTR [rsp]
ffffffff800064fa:	e9 f9 fe ff ff       	jmp    ffffffff800063f8 <__ubsan_handle_out_of_bounds+0x78>
ffffffff800064ff:	48 89 c6             	mov    rsi,rax
ffffffff80006502:	48 c7 c7 a0 00 01 80 	mov    rdi,0xffffffff800100a0
ffffffff80006509:	4c 89 54 24 10       	mov    QWORD PTR [rsp+0x10],r10
ffffffff8000650e:	4c 89 4c 24 08       	mov    QWORD PTR [rsp+0x8],r9
ffffffff80006513:	48 89 04 24          	mov    QWORD PTR [rsp],rax
ffffffff80006517:	e8 74 f5 ff ff       	call   ffffffff80005a90 <__ubsan_handle_type_mismatch_v1>
ffffffff8000651c:	4c 8b 54 24 10       	mov    r10,QWORD PTR [rsp+0x10]
ffffffff80006521:	4c 8b 4c 24 08       	mov    r9,QWORD PTR [rsp+0x8]
ffffffff80006526:	48 8b 04 24          	mov    rax,QWORD PTR [rsp]
ffffffff8000652a:	e9 b2 fe ff ff       	jmp    ffffffff800063e1 <__ubsan_handle_out_of_bounds+0x61>
ffffffff8000652f:	4c 89 ca             	mov    rdx,r9
ffffffff80006532:	48 c7 c7 c0 00 01 80 	mov    rdi,0xffffffff800100c0
ffffffff80006539:	4c 89 54 24 10       	mov    QWORD PTR [rsp+0x10],r10
ffffffff8000653e:	48 89 44 24 08       	mov    QWORD PTR [rsp+0x8],rax
ffffffff80006543:	4c 89 0c 24          	mov    QWORD PTR [rsp],r9
ffffffff80006547:	e8 94 fd ff ff       	call   ffffffff800062e0 <__ubsan_handle_pointer_overflow>
ffffffff8000654c:	4c 8b 54 24 10       	mov    r10,QWORD PTR [rsp+0x10]
ffffffff80006551:	48 8b 44 24 08       	mov    rax,QWORD PTR [rsp+0x8]
ffffffff80006556:	4c 8b 0c 24          	mov    r9,QWORD PTR [rsp]
ffffffff8000655a:	e9 71 fe ff ff       	jmp    ffffffff800063d0 <__ubsan_handle_out_of_bounds+0x50>
ffffffff8000655f:	48 c7 c7 e0 00 01 80 	mov    rdi,0xffffffff800100e0
ffffffff80006566:	4c 89 54 24 10       	mov    QWORD PTR [rsp+0x10],r10
ffffffff8000656b:	48 89 44 24 08       	mov    QWORD PTR [rsp+0x8],rax
ffffffff80006570:	48 89 34 24          	mov    QWORD PTR [rsp],rsi
ffffffff80006574:	e8 17 f5 ff ff       	call   ffffffff80005a90 <__ubsan_handle_type_mismatch_v1>
ffffffff80006579:	4c 8b 54 24 10       	mov    r10,QWORD PTR [rsp+0x10]
ffffffff8000657e:	48 8b 44 24 08       	mov    rax,QWORD PTR [rsp+0x8]
ffffffff80006583:	48 8b 34 24          	mov    rsi,QWORD PTR [rsp]
ffffffff80006587:	e9 36 fe ff ff       	jmp    ffffffff800063c2 <__ubsan_handle_out_of_bounds+0x42>
ffffffff8000658c:	48 89 c6             	mov    rsi,rax
ffffffff8000658f:	48 c7 c7 00 01 01 80 	mov    rdi,0xffffffff80010100
ffffffff80006596:	4c 89 54 24 08       	mov    QWORD PTR [rsp+0x8],r10
ffffffff8000659b:	48 89 04 24          	mov    QWORD PTR [rsp],rax
ffffffff8000659f:	e8 3c fd ff ff       	call   ffffffff800062e0 <__ubsan_handle_pointer_overflow>
ffffffff800065a4:	4c 8b 54 24 08       	mov    r10,QWORD PTR [rsp+0x8]
ffffffff800065a9:	48 8b 04 24          	mov    rax,QWORD PTR [rsp]
ffffffff800065ad:	e9 f9 fd ff ff       	jmp    ffffffff800063ab <__ubsan_handle_out_of_bounds+0x2b>
ffffffff800065b2:	66 2e 0f 1f 84 00 00 	cs nop WORD PTR [rax+rax*1+0x0]
ffffffff800065b9:	00 00 00 
ffffffff800065bc:	0f 1f 40 00          	nop    DWORD PTR [rax+0x0]

ffffffff800065c0 <__ubsan_handle_load_invalid_value>:
ffffffff800065c0:	48 83 ec 28          	sub    rsp,0x28
ffffffff800065c4:	48 89 f8             	mov    rax,rdi
ffffffff800065c7:	49 89 f1             	mov    r9,rsi
ffffffff800065ca:	48 85 ff             	test   rdi,rdi
ffffffff800065cd:	74 59                	je     ffffffff80006628 <__ubsan_handle_load_invalid_value+0x68>
ffffffff800065cf:	40 f6 c7 07          	test   dil,0x7
ffffffff800065d3:	75 53                	jne    ffffffff80006628 <__ubsan_handle_load_invalid_value+0x68>
ffffffff800065d5:	48 8d 50 10          	lea    rdx,[rax+0x10]
ffffffff800065d9:	48 83 f8 f0          	cmp    rax,0xfffffffffffffff0
ffffffff800065dd:	0f 83 fa 00 00 00    	jae    ffffffff800066dd <__ubsan_handle_load_invalid_value+0x11d>
ffffffff800065e3:	48 8b 70 10          	mov    rsi,QWORD PTR [rax+0x10]
ffffffff800065e7:	48 85 f6             	test   rsi,rsi
ffffffff800065ea:	0f 84 be 00 00 00    	je     ffffffff800066ae <__ubsan_handle_load_invalid_value+0xee>
ffffffff800065f0:	40 f6 c6 01          	test   sil,0x1
ffffffff800065f4:	0f 85 b4 00 00 00    	jne    ffffffff800066ae <__ubsan_handle_load_invalid_value+0xee>
ffffffff800065fa:	4c 8d 46 04          	lea    r8,[rsi+0x4]
ffffffff800065fe:	48 83 fe fc          	cmp    rsi,0xfffffffffffffffc
ffffffff80006602:	73 78                	jae    ffffffff8000667c <__ubsan_handle_load_invalid_value+0xbc>
ffffffff80006604:	48 85 c0             	test   rax,rax
ffffffff80006607:	74 44                	je     ffffffff8000664d <__ubsan_handle_load_invalid_value+0x8d>
ffffffff80006609:	a8 07                	test   al,0x7
ffffffff8000660b:	75 40                	jne    ffffffff8000664d <__ubsan_handle_load_invalid_value+0x8d>
ffffffff8000660d:	8b 48 0c             	mov    ecx,DWORD PTR [rax+0xc]
ffffffff80006610:	8b 50 08             	mov    edx,DWORD PTR [rax+0x8]
ffffffff80006613:	48 c7 c7 c8 ca 00 80 	mov    rdi,0xffffffff8000cac8
ffffffff8000661a:	48 8b 30             	mov    rsi,QWORD PTR [rax]
ffffffff8000661d:	31 c0                	xor    eax,eax
ffffffff8000661f:	48 83 c4 28          	add    rsp,0x28
ffffffff80006623:	e9 a8 c1 ff ff       	jmp    ffffffff800027d0 <mubsan_log>
ffffffff80006628:	48 89 c6             	mov    rsi,rax
ffffffff8000662b:	48 c7 c7 e0 ff 00 80 	mov    rdi,0xffffffff8000ffe0
ffffffff80006632:	4c 89 4c 24 10       	mov    QWORD PTR [rsp+0x10],r9
ffffffff80006637:	48 89 44 24 08       	mov    QWORD PTR [rsp+0x8],rax
ffffffff8000663c:	e8 4f f4 ff ff       	call   ffffffff80005a90 <__ubsan_handle_type_mismatch_v1>
ffffffff80006641:	4c 8b 4c 24 10       	mov    r9,QWORD PTR [rsp+0x10]
ffffffff80006646:	48 8b 44 24 08       	mov    rax,QWORD PTR [rsp+0x8]
ffffffff8000664b:	eb 88                	jmp    ffffffff800065d5 <__ubsan_handle_load_invalid_value+0x15>
ffffffff8000664d:	48 89 c6             	mov    rsi,rax
ffffffff80006650:	48 c7 c7 60 ff 00 80 	mov    rdi,0xffffffff8000ff60
ffffffff80006657:	4c 89 4c 24 18       	mov    QWORD PTR [rsp+0x18],r9
ffffffff8000665c:	4c 89 44 24 10       	mov    QWORD PTR [rsp+0x10],r8
ffffffff80006661:	48 89 44 24 08       	mov    QWORD PTR [rsp+0x8],rax
ffffffff80006666:	e8 25 f4 ff ff       	call   ffffffff80005a90 <__ubsan_handle_type_mismatch_v1>
ffffffff8000666b:	4c 8b 4c 24 18       	mov    r9,QWORD PTR [rsp+0x18]
ffffffff80006670:	4c 8b 44 24 10       	mov    r8,QWORD PTR [rsp+0x10]
ffffffff80006675:	48 8b 44 24 08       	mov    rax,QWORD PTR [rsp+0x8]
ffffffff8000667a:	eb 91                	jmp    ffffffff8000660d <__ubsan_handle_load_invalid_value+0x4d>
ffffffff8000667c:	4c 89 c2             	mov    rdx,r8
ffffffff8000667f:	48 c7 c7 80 ff 00 80 	mov    rdi,0xffffffff8000ff80
ffffffff80006686:	4c 89 4c 24 18       	mov    QWORD PTR [rsp+0x18],r9
ffffffff8000668b:	48 89 44 24 10       	mov    QWORD PTR [rsp+0x10],rax
ffffffff80006690:	4c 89 44 24 08       	mov    QWORD PTR [rsp+0x8],r8
ffffffff80006695:	e8 46 fc ff ff       	call   ffffffff800062e0 <__ubsan_handle_pointer_overflow>
ffffffff8000669a:	4c 8b 4c 24 18       	mov    r9,QWORD PTR [rsp+0x18]
ffffffff8000669f:	48 8b 44 24 10       	mov    rax,QWORD PTR [rsp+0x10]
ffffffff800066a4:	4c 8b 44 24 08       	mov    r8,QWORD PTR [rsp+0x8]
ffffffff800066a9:	e9 56 ff ff ff       	jmp    ffffffff80006604 <__ubsan_handle_load_invalid_value+0x44>
ffffffff800066ae:	48 c7 c7 a0 ff 00 80 	mov    rdi,0xffffffff8000ffa0
ffffffff800066b5:	4c 89 4c 24 18       	mov    QWORD PTR [rsp+0x18],r9
ffffffff800066ba:	48 89 44 24 10       	mov    QWORD PTR [rsp+0x10],rax
ffffffff800066bf:	48 89 74 24 08       	mov    QWORD PTR [rsp+0x8],rsi
ffffffff800066c4:	e8 c7 f3 ff ff       	call   ffffffff80005a90 <__ubsan_handle_type_mismatch_v1>
ffffffff800066c9:	4c 8b 4c 24 18       	mov    r9,QWORD PTR [rsp+0x18]
ffffffff800066ce:	48 8b 44 24 10       	mov    rax,QWORD PTR [rsp+0x10]
ffffffff800066d3:	48 8b 74 24 08       	mov    rsi,QWORD PTR [rsp+0x8]
ffffffff800066d8:	e9 1d ff ff ff       	jmp    ffffffff800065fa <__ubsan_handle_load_invalid_value+0x3a>
ffffffff800066dd:	48 89 c6             	mov    rsi,rax
ffffffff800066e0:	48 c7 c7 c0 ff 00 80 	mov    rdi,0xffffffff8000ffc0
ffffffff800066e7:	4c 89 4c 24 10       	mov    QWORD PTR [rsp+0x10],r9
ffffffff800066ec:	48 89 44 24 08       	mov    QWORD PTR [rsp+0x8],rax
ffffffff800066f1:	e8 ea fb ff ff       	call   ffffffff800062e0 <__ubsan_handle_pointer_overflow>
ffffffff800066f6:	4c 8b 4c 24 10       	mov    r9,QWORD PTR [rsp+0x10]
ffffffff800066fb:	48 8b 44 24 08       	mov    rax,QWORD PTR [rsp+0x8]
ffffffff80006700:	e9 de fe ff ff       	jmp    ffffffff800065e3 <__ubsan_handle_load_invalid_value+0x23>
ffffffff80006705:	66 2e 0f 1f 84 00 00 	cs nop WORD PTR [rax+rax*1+0x0]
ffffffff8000670c:	00 00 00 
ffffffff8000670f:	90                   	nop

ffffffff80006710 <__ubsan_handle_builtin_unreachable>:
ffffffff80006710:	48 83 ec 18          	sub    rsp,0x18
ffffffff80006714:	48 89 f8             	mov    rax,rdi
ffffffff80006717:	48 85 ff             	test   rdi,rdi
ffffffff8000671a:	74 2b                	je     ffffffff80006747 <__ubsan_handle_builtin_unreachable+0x37>
ffffffff8000671c:	40 f6 c7 07          	test   dil,0x7
ffffffff80006720:	75 25                	jne    ffffffff80006747 <__ubsan_handle_builtin_unreachable+0x37>
ffffffff80006722:	48 8d 50 0c          	lea    rdx,[rax+0xc]
ffffffff80006726:	48 83 f8 f4          	cmp    rax,0xfffffffffffffff4
ffffffff8000672a:	73 36                	jae    ffffffff80006762 <__ubsan_handle_builtin_unreachable+0x52>
ffffffff8000672c:	8b 48 0c             	mov    ecx,DWORD PTR [rax+0xc]
ffffffff8000672f:	8b 50 08             	mov    edx,DWORD PTR [rax+0x8]
ffffffff80006732:	48 c7 c7 10 cb 00 80 	mov    rdi,0xffffffff8000cb10
ffffffff80006739:	48 8b 30             	mov    rsi,QWORD PTR [rax]
ffffffff8000673c:	31 c0                	xor    eax,eax
ffffffff8000673e:	48 83 c4 18          	add    rsp,0x18
ffffffff80006742:	e9 89 c0 ff ff       	jmp    ffffffff800027d0 <mubsan_log>
ffffffff80006747:	48 89 c6             	mov    rsi,rax
ffffffff8000674a:	48 c7 c7 20 ff 00 80 	mov    rdi,0xffffffff8000ff20
ffffffff80006751:	48 89 44 24 08       	mov    QWORD PTR [rsp+0x8],rax
ffffffff80006756:	e8 35 f3 ff ff       	call   ffffffff80005a90 <__ubsan_handle_type_mismatch_v1>
ffffffff8000675b:	48 8b 44 24 08       	mov    rax,QWORD PTR [rsp+0x8]
ffffffff80006760:	eb c0                	jmp    ffffffff80006722 <__ubsan_handle_builtin_unreachable+0x12>
ffffffff80006762:	48 89 c6             	mov    rsi,rax
ffffffff80006765:	48 c7 c7 00 ff 00 80 	mov    rdi,0xffffffff8000ff00
ffffffff8000676c:	48 89 44 24 08       	mov    QWORD PTR [rsp+0x8],rax
ffffffff80006771:	e8 6a fb ff ff       	call   ffffffff800062e0 <__ubsan_handle_pointer_overflow>
ffffffff80006776:	48 8b 44 24 08       	mov    rax,QWORD PTR [rsp+0x8]
ffffffff8000677b:	eb af                	jmp    ffffffff8000672c <__ubsan_handle_builtin_unreachable+0x1c>

ffffffff8000677d <acpi_init.cold>:
ffffffff8000677d:	0f b6 f0             	movzx  esi,al
ffffffff80006780:	48 c7 c7 f0 0a 01 80 	mov    rdi,0xffffffff80010af0
ffffffff80006787:	88 04 24             	mov    BYTE PTR [rsp],al
ffffffff8000678a:	e8 31 fe ff ff       	call   ffffffff800065c0 <__ubsan_handle_load_invalid_value>
ffffffff8000678f:	0f b6 04 24          	movzx  eax,BYTE PTR [rsp]
ffffffff80006793:	e9 cc 00 00 00       	jmp    ffffffff80006864 <acpi_init+0xc4>
ffffffff80006798:	0f 1f 84 00 00 00 00 	nop    DWORD PTR [rax+rax*1+0x0]
ffffffff8000679f:	00 

ffffffff800067a0 <acpi_init>:
ffffffff800067a0:	48 83 ec 18          	sub    rsp,0x18
ffffffff800067a4:	48 8b 05 fd 99 ff ff 	mov    rax,QWORD PTR [rip+0xffffffffffff99fd]        # ffffffff800001a8 <rsdp_request+0x28>
ffffffff800067ab:	48 85 c0             	test   rax,rax
ffffffff800067ae:	0f 84 be 02 00 00    	je     ffffffff80006a72 <acpi_init+0x2d2>
ffffffff800067b4:	a8 07                	test   al,0x7
ffffffff800067b6:	0f 85 b6 02 00 00    	jne    ffffffff80006a72 <acpi_init+0x2d2>
ffffffff800067bc:	48 8d 50 08          	lea    rdx,[rax+0x8]
ffffffff800067c0:	48 83 f8 f8          	cmp    rax,0xfffffffffffffff8
ffffffff800067c4:	0f 83 6a 03 00 00    	jae    ffffffff80006b34 <acpi_init+0x394>
ffffffff800067ca:	4c 8b 40 08          	mov    r8,QWORD PTR [rax+0x8]
ffffffff800067ce:	48 c7 c0 c0 00 00 80 	mov    rax,0xffffffff800000c0
ffffffff800067d5:	48 83 f8 d8          	cmp    rax,0xffffffffffffffd8
ffffffff800067d9:	0f 83 32 03 00 00    	jae    ffffffff80006b11 <acpi_init+0x371>
ffffffff800067df:	48 8b 05 02 99 ff ff 	mov    rax,QWORD PTR [rip+0xffffffffffff9902]        # ffffffff800000e8 <hhdm_request+0x28>
ffffffff800067e6:	48 85 c0             	test   rax,rax
ffffffff800067e9:	0f 84 fc 02 00 00    	je     ffffffff80006aeb <acpi_init+0x34b>
ffffffff800067ef:	a8 07                	test   al,0x7
ffffffff800067f1:	0f 85 f4 02 00 00    	jne    ffffffff80006aeb <acpi_init+0x34b>
ffffffff800067f7:	48 8d 50 08          	lea    rdx,[rax+0x8]
ffffffff800067fb:	48 83 f8 f8          	cmp    rax,0xfffffffffffffff8
ffffffff800067ff:	0f 83 c0 02 00 00    	jae    ffffffff80006ac5 <acpi_init+0x325>
ffffffff80006805:	4c 03 40 08          	add    r8,QWORD PTR [rax+0x8]
ffffffff80006809:	48 c7 c1 c0 c2 00 80 	mov    rcx,0xffffffff8000c2c0
ffffffff80006810:	31 c0                	xor    eax,eax
ffffffff80006812:	ba 19 00 00 00       	mov    edx,0x19
ffffffff80006817:	48 c7 c6 c0 cd 00 80 	mov    rsi,0xffffffff8000cdc0
ffffffff8000681e:	48 c7 c7 62 c2 00 80 	mov    rdi,0xffffffff8000c262
ffffffff80006825:	4c 89 05 7c c7 00 00 	mov    QWORD PTR [rip+0xc77c],r8        # ffffffff80012fa8 <rsdp_ptr>
ffffffff8000682c:	e8 2f c0 ff ff       	call   ffffffff80002860 <log>
ffffffff80006831:	48 8b 05 70 c7 00 00 	mov    rax,QWORD PTR [rip+0xc770]        # ffffffff80012fa8 <rsdp_ptr>
ffffffff80006838:	48 85 c0             	test   rax,rax
ffffffff8000683b:	0f 84 69 02 00 00    	je     ffffffff80006aaa <acpi_init+0x30a>
ffffffff80006841:	48 8d 50 0f          	lea    rdx,[rax+0xf]
ffffffff80006845:	48 83 f8 f1          	cmp    rax,0xfffffffffffffff1
ffffffff80006849:	0f 83 3f 02 00 00    	jae    ffffffff80006a8e <acpi_init+0x2ee>
ffffffff8000684f:	80 78 0f 02          	cmp    BYTE PTR [rax+0xf],0x2
ffffffff80006853:	74 73                	je     ffffffff800068c8 <acpi_init+0x128>
ffffffff80006855:	0f b6 05 3c c7 00 00 	movzx  eax,BYTE PTR [rip+0xc73c]        # ffffffff80012f98 <is_extended>
ffffffff8000685c:	3c 01                	cmp    al,0x1
ffffffff8000685e:	0f 87 70 03 00 00    	ja     ffffffff80006bd4 <acpi_init+0x434>
ffffffff80006864:	a8 01                	test   al,0x1
ffffffff80006866:	0f 85 be 00 00 00    	jne    ffffffff8000692a <acpi_init+0x18a>
ffffffff8000686c:	48 8b 05 35 c7 00 00 	mov    rax,QWORD PTR [rip+0xc735]        # ffffffff80012fa8 <rsdp_ptr>
ffffffff80006873:	48 85 c0             	test   rax,rax
ffffffff80006876:	0f 84 db 01 00 00    	je     ffffffff80006a57 <acpi_init+0x2b7>
ffffffff8000687c:	48 8d 50 10          	lea    rdx,[rax+0x10]
ffffffff80006880:	48 83 f8 f0          	cmp    rax,0xfffffffffffffff0
ffffffff80006884:	0f 83 b1 01 00 00    	jae    ffffffff80006a3b <acpi_init+0x29b>
ffffffff8000688a:	8b 48 10             	mov    ecx,DWORD PTR [rax+0x10]
ffffffff8000688d:	48 8b 05 54 98 ff ff 	mov    rax,QWORD PTR [rip+0xffffffffffff9854]        # ffffffff800000e8 <hhdm_request+0x28>
ffffffff80006894:	48 85 c0             	test   rax,rax
ffffffff80006897:	0f 84 78 01 00 00    	je     ffffffff80006a15 <acpi_init+0x275>
ffffffff8000689d:	a8 07                	test   al,0x7
ffffffff8000689f:	0f 85 70 01 00 00    	jne    ffffffff80006a15 <acpi_init+0x275>
ffffffff800068a5:	48 8d 50 08          	lea    rdx,[rax+0x8]
ffffffff800068a9:	48 83 f8 f8          	cmp    rax,0xfffffffffffffff8
ffffffff800068ad:	0f 83 3c 01 00 00    	jae    ffffffff800069ef <acpi_init+0x24f>
ffffffff800068b3:	48 03 48 08          	add    rcx,QWORD PTR [rax+0x8]
ffffffff800068b7:	48 89 0d d2 c6 00 00 	mov    QWORD PTR [rip+0xc6d2],rcx        # ffffffff80012f90 <rsdt_ptr>
ffffffff800068be:	48 83 c4 18          	add    rsp,0x18
ffffffff800068c2:	c3                   	ret
ffffffff800068c3:	0f 1f 44 00 00       	nop    DWORD PTR [rax+rax*1+0x0]
ffffffff800068c8:	48 8b 05 d9 98 ff ff 	mov    rax,QWORD PTR [rip+0xffffffffffff98d9]        # ffffffff800001a8 <rsdp_request+0x28>
ffffffff800068cf:	c6 05 c2 c6 00 00 01 	mov    BYTE PTR [rip+0xc6c2],0x1        # ffffffff80012f98 <is_extended>
ffffffff800068d6:	48 85 c0             	test   rax,rax
ffffffff800068d9:	0f 84 b3 02 00 00    	je     ffffffff80006b92 <acpi_init+0x3f2>
ffffffff800068df:	a8 07                	test   al,0x7
ffffffff800068e1:	0f 85 ab 02 00 00    	jne    ffffffff80006b92 <acpi_init+0x3f2>
ffffffff800068e7:	48 8d 50 08          	lea    rdx,[rax+0x8]
ffffffff800068eb:	48 83 f8 f8          	cmp    rax,0xfffffffffffffff8
ffffffff800068ef:	0f 83 5b 02 00 00    	jae    ffffffff80006b50 <acpi_init+0x3b0>
ffffffff800068f5:	48 8b 48 08          	mov    rcx,QWORD PTR [rax+0x8]
ffffffff800068f9:	48 8b 05 e8 97 ff ff 	mov    rax,QWORD PTR [rip+0xffffffffffff97e8]        # ffffffff800000e8 <hhdm_request+0x28>
ffffffff80006900:	48 85 c0             	test   rax,rax
ffffffff80006903:	0f 84 63 02 00 00    	je     ffffffff80006b6c <acpi_init+0x3cc>
ffffffff80006909:	a8 07                	test   al,0x7
ffffffff8000690b:	0f 85 5b 02 00 00    	jne    ffffffff80006b6c <acpi_init+0x3cc>
ffffffff80006911:	48 8d 50 08          	lea    rdx,[rax+0x8]
ffffffff80006915:	48 83 f8 f8          	cmp    rax,0xfffffffffffffff8
ffffffff80006919:	0f 83 8f 02 00 00    	jae    ffffffff80006bae <acpi_init+0x40e>
ffffffff8000691f:	48 03 48 08          	add    rcx,QWORD PTR [rax+0x8]
ffffffff80006923:	48 89 0d 76 c6 00 00 	mov    QWORD PTR [rip+0xc676],rcx        # ffffffff80012fa0 <xsdp_ptr>
ffffffff8000692a:	48 8b 05 6f c6 00 00 	mov    rax,QWORD PTR [rip+0xc66f]        # ffffffff80012fa0 <xsdp_ptr>
ffffffff80006931:	48 85 c0             	test   rax,rax
ffffffff80006934:	0f 84 9a 00 00 00    	je     ffffffff800069d4 <acpi_init+0x234>
ffffffff8000693a:	48 8d 50 18          	lea    rdx,[rax+0x18]
ffffffff8000693e:	48 83 f8 e8          	cmp    rax,0xffffffffffffffe8
ffffffff80006942:	73 74                	jae    ffffffff800069b8 <acpi_init+0x218>
ffffffff80006944:	48 8b 48 18          	mov    rcx,QWORD PTR [rax+0x18]
ffffffff80006948:	48 8b 05 99 97 ff ff 	mov    rax,QWORD PTR [rip+0xffffffffffff9799]        # ffffffff800000e8 <hhdm_request+0x28>
ffffffff8000694f:	48 85 c0             	test   rax,rax
ffffffff80006952:	74 41                	je     ffffffff80006995 <acpi_init+0x1f5>
ffffffff80006954:	a8 07                	test   al,0x7
ffffffff80006956:	75 3d                	jne    ffffffff80006995 <acpi_init+0x1f5>
ffffffff80006958:	48 8d 50 08          	lea    rdx,[rax+0x8]
ffffffff8000695c:	48 83 f8 f8          	cmp    rax,0xfffffffffffffff8
ffffffff80006960:	73 10                	jae    ffffffff80006972 <acpi_init+0x1d2>
ffffffff80006962:	48 03 48 08          	add    rcx,QWORD PTR [rax+0x8]
ffffffff80006966:	48 89 0d 1b c6 00 00 	mov    QWORD PTR [rip+0xc61b],rcx        # ffffffff80012f88 <xsdt_ptr>
ffffffff8000696d:	48 83 c4 18          	add    rsp,0x18
ffffffff80006971:	c3                   	ret
ffffffff80006972:	48 89 c6             	mov    rsi,rax
ffffffff80006975:	48 c7 c7 40 08 01 80 	mov    rdi,0xffffffff80010840
ffffffff8000697c:	48 89 4c 24 08       	mov    QWORD PTR [rsp+0x8],rcx
ffffffff80006981:	48 89 04 24          	mov    QWORD PTR [rsp],rax
ffffffff80006985:	e8 56 f9 ff ff       	call   ffffffff800062e0 <__ubsan_handle_pointer_overflow>
ffffffff8000698a:	48 8b 4c 24 08       	mov    rcx,QWORD PTR [rsp+0x8]
ffffffff8000698f:	48 8b 04 24          	mov    rax,QWORD PTR [rsp]
ffffffff80006993:	eb cd                	jmp    ffffffff80006962 <acpi_init+0x1c2>
ffffffff80006995:	48 89 c6             	mov    rsi,rax
ffffffff80006998:	48 c7 c7 60 08 01 80 	mov    rdi,0xffffffff80010860
ffffffff8000699f:	48 89 4c 24 08       	mov    QWORD PTR [rsp+0x8],rcx
ffffffff800069a4:	48 89 04 24          	mov    QWORD PTR [rsp],rax
ffffffff800069a8:	e8 e3 f0 ff ff       	call   ffffffff80005a90 <__ubsan_handle_type_mismatch_v1>
ffffffff800069ad:	48 8b 4c 24 08       	mov    rcx,QWORD PTR [rsp+0x8]
ffffffff800069b2:	48 8b 04 24          	mov    rax,QWORD PTR [rsp]
ffffffff800069b6:	eb a0                	jmp    ffffffff80006958 <acpi_init+0x1b8>
ffffffff800069b8:	48 89 c6             	mov    rsi,rax
ffffffff800069bb:	48 c7 c7 80 08 01 80 	mov    rdi,0xffffffff80010880
ffffffff800069c2:	48 89 04 24          	mov    QWORD PTR [rsp],rax
ffffffff800069c6:	e8 15 f9 ff ff       	call   ffffffff800062e0 <__ubsan_handle_pointer_overflow>
ffffffff800069cb:	48 8b 04 24          	mov    rax,QWORD PTR [rsp]
ffffffff800069cf:	e9 70 ff ff ff       	jmp    ffffffff80006944 <acpi_init+0x1a4>
ffffffff800069d4:	31 f6                	xor    esi,esi
ffffffff800069d6:	48 c7 c7 a0 08 01 80 	mov    rdi,0xffffffff800108a0
ffffffff800069dd:	48 89 04 24          	mov    QWORD PTR [rsp],rax
ffffffff800069e1:	e8 aa f0 ff ff       	call   ffffffff80005a90 <__ubsan_handle_type_mismatch_v1>
ffffffff800069e6:	48 8b 04 24          	mov    rax,QWORD PTR [rsp]
ffffffff800069ea:	e9 4b ff ff ff       	jmp    ffffffff8000693a <acpi_init+0x19a>
ffffffff800069ef:	48 89 c6             	mov    rsi,rax
ffffffff800069f2:	48 c7 c7 c0 07 01 80 	mov    rdi,0xffffffff800107c0
ffffffff800069f9:	48 89 4c 24 08       	mov    QWORD PTR [rsp+0x8],rcx
ffffffff800069fe:	48 89 04 24          	mov    QWORD PTR [rsp],rax
ffffffff80006a02:	e8 d9 f8 ff ff       	call   ffffffff800062e0 <__ubsan_handle_pointer_overflow>
ffffffff80006a07:	48 8b 4c 24 08       	mov    rcx,QWORD PTR [rsp+0x8]
ffffffff80006a0c:	48 8b 04 24          	mov    rax,QWORD PTR [rsp]
ffffffff80006a10:	e9 9e fe ff ff       	jmp    ffffffff800068b3 <acpi_init+0x113>
ffffffff80006a15:	48 89 c6             	mov    rsi,rax
ffffffff80006a18:	48 c7 c7 e0 07 01 80 	mov    rdi,0xffffffff800107e0
ffffffff80006a1f:	48 89 4c 24 08       	mov    QWORD PTR [rsp+0x8],rcx
ffffffff80006a24:	48 89 04 24          	mov    QWORD PTR [rsp],rax
ffffffff80006a28:	e8 63 f0 ff ff       	call   ffffffff80005a90 <__ubsan_handle_type_mismatch_v1>
ffffffff80006a2d:	48 8b 4c 24 08       	mov    rcx,QWORD PTR [rsp+0x8]
ffffffff80006a32:	48 8b 04 24          	mov    rax,QWORD PTR [rsp]
ffffffff80006a36:	e9 6a fe ff ff       	jmp    ffffffff800068a5 <acpi_init+0x105>
ffffffff80006a3b:	48 89 c6             	mov    rsi,rax
ffffffff80006a3e:	48 c7 c7 00 08 01 80 	mov    rdi,0xffffffff80010800
ffffffff80006a45:	48 89 04 24          	mov    QWORD PTR [rsp],rax
ffffffff80006a49:	e8 92 f8 ff ff       	call   ffffffff800062e0 <__ubsan_handle_pointer_overflow>
ffffffff80006a4e:	48 8b 04 24          	mov    rax,QWORD PTR [rsp]
ffffffff80006a52:	e9 33 fe ff ff       	jmp    ffffffff8000688a <acpi_init+0xea>
ffffffff80006a57:	31 f6                	xor    esi,esi
ffffffff80006a59:	48 c7 c7 20 08 01 80 	mov    rdi,0xffffffff80010820
ffffffff80006a60:	48 89 04 24          	mov    QWORD PTR [rsp],rax
ffffffff80006a64:	e8 27 f0 ff ff       	call   ffffffff80005a90 <__ubsan_handle_type_mismatch_v1>
ffffffff80006a69:	48 8b 04 24          	mov    rax,QWORD PTR [rsp]
ffffffff80006a6d:	e9 0a fe ff ff       	jmp    ffffffff8000687c <acpi_init+0xdc>
ffffffff80006a72:	48 89 c6             	mov    rsi,rax
ffffffff80006a75:	48 c7 c7 60 0a 01 80 	mov    rdi,0xffffffff80010a60
ffffffff80006a7c:	48 89 04 24          	mov    QWORD PTR [rsp],rax
ffffffff80006a80:	e8 0b f0 ff ff       	call   ffffffff80005a90 <__ubsan_handle_type_mismatch_v1>
ffffffff80006a85:	48 8b 04 24          	mov    rax,QWORD PTR [rsp]
ffffffff80006a89:	e9 2e fd ff ff       	jmp    ffffffff800067bc <acpi_init+0x1c>
ffffffff80006a8e:	48 89 c6             	mov    rsi,rax
ffffffff80006a91:	48 c7 c7 60 09 01 80 	mov    rdi,0xffffffff80010960
ffffffff80006a98:	48 89 04 24          	mov    QWORD PTR [rsp],rax
ffffffff80006a9c:	e8 3f f8 ff ff       	call   ffffffff800062e0 <__ubsan_handle_pointer_overflow>
ffffffff80006aa1:	48 8b 04 24          	mov    rax,QWORD PTR [rsp]
ffffffff80006aa5:	e9 a5 fd ff ff       	jmp    ffffffff8000684f <acpi_init+0xaf>
ffffffff80006aaa:	31 f6                	xor    esi,esi
ffffffff80006aac:	48 c7 c7 80 09 01 80 	mov    rdi,0xffffffff80010980
ffffffff80006ab3:	48 89 04 24          	mov    QWORD PTR [rsp],rax
ffffffff80006ab7:	e8 d4 ef ff ff       	call   ffffffff80005a90 <__ubsan_handle_type_mismatch_v1>
ffffffff80006abc:	48 8b 04 24          	mov    rax,QWORD PTR [rsp]
ffffffff80006ac0:	e9 7c fd ff ff       	jmp    ffffffff80006841 <acpi_init+0xa1>
ffffffff80006ac5:	48 89 c6             	mov    rsi,rax
ffffffff80006ac8:	48 c7 c7 c0 09 01 80 	mov    rdi,0xffffffff800109c0
ffffffff80006acf:	4c 89 44 24 08       	mov    QWORD PTR [rsp+0x8],r8
ffffffff80006ad4:	48 89 04 24          	mov    QWORD PTR [rsp],rax
ffffffff80006ad8:	e8 03 f8 ff ff       	call   ffffffff800062e0 <__ubsan_handle_pointer_overflow>
ffffffff80006add:	4c 8b 44 24 08       	mov    r8,QWORD PTR [rsp+0x8]
ffffffff80006ae2:	48 8b 04 24          	mov    rax,QWORD PTR [rsp]
ffffffff80006ae6:	e9 1a fd ff ff       	jmp    ffffffff80006805 <acpi_init+0x65>
ffffffff80006aeb:	48 89 c6             	mov    rsi,rax
ffffffff80006aee:	48 c7 c7 e0 09 01 80 	mov    rdi,0xffffffff800109e0
ffffffff80006af5:	4c 89 44 24 08       	mov    QWORD PTR [rsp+0x8],r8
ffffffff80006afa:	48 89 04 24          	mov    QWORD PTR [rsp],rax
ffffffff80006afe:	e8 8d ef ff ff       	call   ffffffff80005a90 <__ubsan_handle_type_mismatch_v1>
ffffffff80006b03:	4c 8b 44 24 08       	mov    r8,QWORD PTR [rsp+0x8]
ffffffff80006b08:	48 8b 04 24          	mov    rax,QWORD PTR [rsp]
ffffffff80006b0c:	e9 e6 fc ff ff       	jmp    ffffffff800067f7 <acpi_init+0x57>
ffffffff80006b11:	48 c7 c2 e8 00 00 80 	mov    rdx,0xffffffff800000e8
ffffffff80006b18:	48 89 c6             	mov    rsi,rax
ffffffff80006b1b:	48 c7 c7 30 0a 01 80 	mov    rdi,0xffffffff80010a30
ffffffff80006b22:	4c 89 04 24          	mov    QWORD PTR [rsp],r8
ffffffff80006b26:	e8 b5 f7 ff ff       	call   ffffffff800062e0 <__ubsan_handle_pointer_overflow>
ffffffff80006b2b:	4c 8b 04 24          	mov    r8,QWORD PTR [rsp]
ffffffff80006b2f:	e9 ab fc ff ff       	jmp    ffffffff800067df <acpi_init+0x3f>
ffffffff80006b34:	48 89 c6             	mov    rsi,rax
ffffffff80006b37:	48 c7 c7 40 0a 01 80 	mov    rdi,0xffffffff80010a40
ffffffff80006b3e:	48 89 04 24          	mov    QWORD PTR [rsp],rax
ffffffff80006b42:	e8 99 f7 ff ff       	call   ffffffff800062e0 <__ubsan_handle_pointer_overflow>
ffffffff80006b47:	48 8b 04 24          	mov    rax,QWORD PTR [rsp]
ffffffff80006b4b:	e9 7a fc ff ff       	jmp    ffffffff800067ca <acpi_init+0x2a>
ffffffff80006b50:	48 89 c6             	mov    rsi,rax
ffffffff80006b53:	48 c7 c7 20 09 01 80 	mov    rdi,0xffffffff80010920
ffffffff80006b5a:	48 89 04 24          	mov    QWORD PTR [rsp],rax
ffffffff80006b5e:	e8 7d f7 ff ff       	call   ffffffff800062e0 <__ubsan_handle_pointer_overflow>
ffffffff80006b63:	48 8b 04 24          	mov    rax,QWORD PTR [rsp]
ffffffff80006b67:	e9 89 fd ff ff       	jmp    ffffffff800068f5 <acpi_init+0x155>
ffffffff80006b6c:	48 89 c6             	mov    rsi,rax
ffffffff80006b6f:	48 c7 c7 00 09 01 80 	mov    rdi,0xffffffff80010900
ffffffff80006b76:	48 89 4c 24 08       	mov    QWORD PTR [rsp+0x8],rcx
ffffffff80006b7b:	48 89 04 24          	mov    QWORD PTR [rsp],rax
ffffffff80006b7f:	e8 0c ef ff ff       	call   ffffffff80005a90 <__ubsan_handle_type_mismatch_v1>
ffffffff80006b84:	48 8b 4c 24 08       	mov    rcx,QWORD PTR [rsp+0x8]
ffffffff80006b89:	48 8b 04 24          	mov    rax,QWORD PTR [rsp]
ffffffff80006b8d:	e9 7f fd ff ff       	jmp    ffffffff80006911 <acpi_init+0x171>
ffffffff80006b92:	48 89 c6             	mov    rsi,rax
ffffffff80006b95:	48 c7 c7 40 09 01 80 	mov    rdi,0xffffffff80010940
ffffffff80006b9c:	48 89 04 24          	mov    QWORD PTR [rsp],rax
ffffffff80006ba0:	e8 eb ee ff ff       	call   ffffffff80005a90 <__ubsan_handle_type_mismatch_v1>
ffffffff80006ba5:	48 8b 04 24          	mov    rax,QWORD PTR [rsp]
ffffffff80006ba9:	e9 39 fd ff ff       	jmp    ffffffff800068e7 <acpi_init+0x147>
ffffffff80006bae:	48 89 c6             	mov    rsi,rax
ffffffff80006bb1:	48 c7 c7 e0 08 01 80 	mov    rdi,0xffffffff800108e0
ffffffff80006bb8:	48 89 4c 24 08       	mov    QWORD PTR [rsp+0x8],rcx
ffffffff80006bbd:	48 89 04 24          	mov    QWORD PTR [rsp],rax
ffffffff80006bc1:	e8 1a f7 ff ff       	call   ffffffff800062e0 <__ubsan_handle_pointer_overflow>
ffffffff80006bc6:	48 8b 4c 24 08       	mov    rcx,QWORD PTR [rsp+0x8]
ffffffff80006bcb:	48 8b 04 24          	mov    rax,QWORD PTR [rsp]
ffffffff80006bcf:	e9 4b fd ff ff       	jmp    ffffffff8000691f <acpi_init+0x17f>
ffffffff80006bd4:	e9 a4 fb ff ff       	jmp    ffffffff8000677d <acpi_init.cold>

ffffffff80006bd9 <acpi_get_entry.cold>:
ffffffff80006bd9:	41 0f b6 f6          	movzx  esi,r14b
ffffffff80006bdd:	48 c7 c7 b0 0a 01 80 	mov    rdi,0xffffffff80010ab0
ffffffff80006be4:	e8 d7 f9 ff ff       	call   ffffffff800065c0 <__ubsan_handle_load_invalid_value>
ffffffff80006be9:	e9 3e 01 00 00       	jmp    ffffffff80006d2c <acpi_get_entry+0x11c>
ffffffff80006bee:	0f b6 f3             	movzx  esi,bl
ffffffff80006bf1:	48 c7 c7 d0 0a 01 80 	mov    rdi,0xffffffff80010ad0
ffffffff80006bf8:	e8 c3 f9 ff ff       	call   ffffffff800065c0 <__ubsan_handle_load_invalid_value>
ffffffff80006bfd:	e9 2d 00 00 00       	jmp    ffffffff80006c2f <acpi_get_entry+0x1f>
ffffffff80006c02:	66 2e 0f 1f 84 00 00 	cs nop WORD PTR [rax+rax*1+0x0]
ffffffff80006c09:	00 00 00 
ffffffff80006c0c:	0f 1f 40 00          	nop    DWORD PTR [rax+0x0]

ffffffff80006c10 <acpi_get_entry>:
ffffffff80006c10:	41 56                	push   r14
ffffffff80006c12:	41 55                	push   r13
ffffffff80006c14:	41 54                	push   r12
ffffffff80006c16:	55                   	push   rbp
ffffffff80006c17:	48 89 fd             	mov    rbp,rdi
ffffffff80006c1a:	53                   	push   rbx
ffffffff80006c1b:	48 83 ec 10          	sub    rsp,0x10
ffffffff80006c1f:	0f b6 1d 72 c3 00 00 	movzx  ebx,BYTE PTR [rip+0xc372]        # ffffffff80012f98 <is_extended>
ffffffff80006c26:	80 fb 01             	cmp    bl,0x1
ffffffff80006c29:	0f 87 bf ff ff ff    	ja     ffffffff80006bee <acpi_get_entry.cold+0x15>
ffffffff80006c2f:	83 e3 01             	and    ebx,0x1
ffffffff80006c32:	0f 84 e0 01 00 00    	je     ffffffff80006e18 <acpi_get_entry+0x208>
ffffffff80006c38:	48 8b 1d 49 c3 00 00 	mov    rbx,QWORD PTR [rip+0xc349]        # ffffffff80012f88 <xsdt_ptr>
ffffffff80006c3f:	48 85 db             	test   rbx,rbx
ffffffff80006c42:	0f 84 14 03 00 00    	je     ffffffff80006f5c <acpi_get_entry+0x34c>
ffffffff80006c48:	48 8d 53 04          	lea    rdx,[rbx+0x4]
ffffffff80006c4c:	48 83 fb fc          	cmp    rbx,0xfffffffffffffffc
ffffffff80006c50:	0f 83 f2 02 00 00    	jae    ffffffff80006f48 <acpi_get_entry+0x338>
ffffffff80006c56:	8b 5b 04             	mov    ebx,DWORD PTR [rbx+0x4]
ffffffff80006c59:	48 83 eb 24          	sub    rbx,0x24
ffffffff80006c5d:	48 c1 eb 03          	shr    rbx,0x3
ffffffff80006c61:	48 85 db             	test   rbx,rbx
ffffffff80006c64:	0f 84 96 01 00 00    	je     ffffffff80006e00 <acpi_get_entry+0x1f0>
ffffffff80006c6a:	45 31 ed             	xor    r13d,r13d
ffffffff80006c6d:	49 c7 c4 c0 00 00 80 	mov    r12,0xffffffff800000c0
ffffffff80006c74:	e9 a1 00 00 00       	jmp    ffffffff80006d1a <acpi_get_entry+0x10a>
ffffffff80006c79:	0f 1f 80 00 00 00 00 	nop    DWORD PTR [rax+0x0]
ffffffff80006c80:	4c 8b 35 01 c3 00 00 	mov    r14,QWORD PTR [rip+0xc301]        # ffffffff80012f88 <xsdt_ptr>
ffffffff80006c87:	4d 85 f6             	test   r14,r14
ffffffff80006c8a:	0f 84 e6 01 00 00    	je     ffffffff80006e76 <acpi_get_entry+0x266>
ffffffff80006c90:	4a 8d 14 ed 24 00 00 	lea    rdx,[r13*8+0x24]
ffffffff80006c97:	00 
ffffffff80006c98:	49 8d 0c 16          	lea    rcx,[r14+rdx*1]
ffffffff80006c9c:	48 85 d2             	test   rdx,rdx
ffffffff80006c9f:	0f 88 1b 01 00 00    	js     ffffffff80006dc0 <acpi_get_entry+0x1b0>
ffffffff80006ca5:	4c 39 f1             	cmp    rcx,r14
ffffffff80006ca8:	0f 82 1b 01 00 00    	jb     ffffffff80006dc9 <acpi_get_entry+0x1b9>
ffffffff80006cae:	4b 8b 44 ee 24       	mov    rax,QWORD PTR [r14+r13*8+0x24]
ffffffff80006cb3:	49 83 fc d8          	cmp    r12,0xffffffffffffffd8
ffffffff80006cb7:	0f 83 08 02 00 00    	jae    ffffffff80006ec5 <acpi_get_entry+0x2b5>
ffffffff80006cbd:	4c 8b 35 24 94 ff ff 	mov    r14,QWORD PTR [rip+0xffffffffffff9424]        # ffffffff800000e8 <hhdm_request+0x28>
ffffffff80006cc4:	4d 85 f6             	test   r14,r14
ffffffff80006cc7:	0f 84 da 01 00 00    	je     ffffffff80006ea7 <acpi_get_entry+0x297>
ffffffff80006ccd:	41 f6 c6 07          	test   r14b,0x7
ffffffff80006cd1:	0f 85 d0 01 00 00    	jne    ffffffff80006ea7 <acpi_get_entry+0x297>
ffffffff80006cd7:	49 8d 56 08          	lea    rdx,[r14+0x8]
ffffffff80006cdb:	49 83 fe f8          	cmp    r14,0xfffffffffffffff8
ffffffff80006cdf:	0f 83 a4 01 00 00    	jae    ffffffff80006e89 <acpi_get_entry+0x279>
ffffffff80006ce5:	49 03 46 08          	add    rax,QWORD PTR [r14+0x8]
ffffffff80006ce9:	49 89 c6             	mov    r14,rax
ffffffff80006cec:	48 85 c0             	test   rax,rax
ffffffff80006cef:	0f 84 51 01 00 00    	je     ffffffff80006e46 <acpi_get_entry+0x236>
ffffffff80006cf5:	ba 04 00 00 00       	mov    edx,0x4
ffffffff80006cfa:	48 89 ee             	mov    rsi,rbp
ffffffff80006cfd:	48 89 c7             	mov    rdi,rax
ffffffff80006d00:	e8 21 3d 00 00       	call   ffffffff8000aa26 <memcmp>
ffffffff80006d05:	85 c0                	test   eax,eax
ffffffff80006d07:	0f 84 f6 00 00 00    	je     ffffffff80006e03 <acpi_get_entry+0x1f3>
ffffffff80006d0d:	49 83 c5 01          	add    r13,0x1
ffffffff80006d11:	4c 39 eb             	cmp    rbx,r13
ffffffff80006d14:	0f 84 e6 00 00 00    	je     ffffffff80006e00 <acpi_get_entry+0x1f0>
ffffffff80006d1a:	44 0f b6 35 76 c2 00 	movzx  r14d,BYTE PTR [rip+0xc276]        # ffffffff80012f98 <is_extended>
ffffffff80006d21:	00 
ffffffff80006d22:	41 80 fe 01          	cmp    r14b,0x1
ffffffff80006d26:	0f 87 ad fe ff ff    	ja     ffffffff80006bd9 <acpi_get_entry.cold>
ffffffff80006d2c:	41 83 e6 01          	and    r14d,0x1
ffffffff80006d30:	0f 85 4a ff ff ff    	jne    ffffffff80006c80 <acpi_get_entry+0x70>
ffffffff80006d36:	4c 8b 35 53 c2 00 00 	mov    r14,QWORD PTR [rip+0xc253]        # ffffffff80012f90 <rsdt_ptr>
ffffffff80006d3d:	4d 85 f6             	test   r14,r14
ffffffff80006d40:	0f 84 1d 01 00 00    	je     ffffffff80006e63 <acpi_get_entry+0x253>
ffffffff80006d46:	4a 8d 14 ad 24 00 00 	lea    rdx,[r13*4+0x24]
ffffffff80006d4d:	00 
ffffffff80006d4e:	49 8d 0c 16          	lea    rcx,[r14+rdx*1]
ffffffff80006d52:	48 85 d2             	test   rdx,rdx
ffffffff80006d55:	0f 88 85 00 00 00    	js     ffffffff80006de0 <acpi_get_entry+0x1d0>
ffffffff80006d5b:	4c 39 f1             	cmp    rcx,r14
ffffffff80006d5e:	0f 82 85 00 00 00    	jb     ffffffff80006de9 <acpi_get_entry+0x1d9>
ffffffff80006d64:	43 8b 44 ae 24       	mov    eax,DWORD PTR [r14+r13*4+0x24]
ffffffff80006d69:	49 83 fc d8          	cmp    r12,0xffffffffffffffd8
ffffffff80006d6d:	0f 83 99 01 00 00    	jae    ffffffff80006f0c <acpi_get_entry+0x2fc>
ffffffff80006d73:	4c 8b 35 6e 93 ff ff 	mov    r14,QWORD PTR [rip+0xffffffffffff936e]        # ffffffff800000e8 <hhdm_request+0x28>
ffffffff80006d7a:	4d 85 f6             	test   r14,r14
ffffffff80006d7d:	0f 84 6b 01 00 00    	je     ffffffff80006eee <acpi_get_entry+0x2de>
ffffffff80006d83:	41 f6 c6 07          	test   r14b,0x7
ffffffff80006d87:	0f 85 61 01 00 00    	jne    ffffffff80006eee <acpi_get_entry+0x2de>
ffffffff80006d8d:	49 8d 56 08          	lea    rdx,[r14+0x8]
ffffffff80006d91:	49 83 fe f8          	cmp    r14,0xfffffffffffffff8
ffffffff80006d95:	0f 82 4a ff ff ff    	jb     ffffffff80006ce5 <acpi_get_entry+0xd5>
ffffffff80006d9b:	4c 89 f6             	mov    rsi,r14
ffffffff80006d9e:	48 c7 c7 00 06 01 80 	mov    rdi,0xffffffff80010600
ffffffff80006da5:	48 89 44 24 08       	mov    QWORD PTR [rsp+0x8],rax
ffffffff80006daa:	e8 31 f5 ff ff       	call   ffffffff800062e0 <__ubsan_handle_pointer_overflow>
ffffffff80006daf:	48 8b 44 24 08       	mov    rax,QWORD PTR [rsp+0x8]
ffffffff80006db4:	e9 2c ff ff ff       	jmp    ffffffff80006ce5 <acpi_get_entry+0xd5>
ffffffff80006db9:	0f 1f 80 00 00 00 00 	nop    DWORD PTR [rax+0x0]
ffffffff80006dc0:	49 39 ce             	cmp    r14,rcx
ffffffff80006dc3:	0f 83 e5 fe ff ff    	jae    ffffffff80006cae <acpi_get_entry+0x9e>
ffffffff80006dc9:	48 89 ca             	mov    rdx,rcx
ffffffff80006dcc:	4c 89 f6             	mov    rsi,r14
ffffffff80006dcf:	48 c7 c7 d0 06 01 80 	mov    rdi,0xffffffff800106d0
ffffffff80006dd6:	e8 05 f5 ff ff       	call   ffffffff800062e0 <__ubsan_handle_pointer_overflow>
ffffffff80006ddb:	e9 ce fe ff ff       	jmp    ffffffff80006cae <acpi_get_entry+0x9e>
ffffffff80006de0:	49 39 ce             	cmp    r14,rcx
ffffffff80006de3:	0f 83 7b ff ff ff    	jae    ffffffff80006d64 <acpi_get_entry+0x154>
ffffffff80006de9:	48 89 ca             	mov    rdx,rcx
ffffffff80006dec:	4c 89 f6             	mov    rsi,r14
ffffffff80006def:	48 c7 c7 50 06 01 80 	mov    rdi,0xffffffff80010650
ffffffff80006df6:	e8 e5 f4 ff ff       	call   ffffffff800062e0 <__ubsan_handle_pointer_overflow>
ffffffff80006dfb:	e9 64 ff ff ff       	jmp    ffffffff80006d64 <acpi_get_entry+0x154>
ffffffff80006e00:	45 31 f6             	xor    r14d,r14d
ffffffff80006e03:	48 83 c4 10          	add    rsp,0x10
ffffffff80006e07:	4c 89 f0             	mov    rax,r14
ffffffff80006e0a:	5b                   	pop    rbx
ffffffff80006e0b:	5d                   	pop    rbp
ffffffff80006e0c:	41 5c                	pop    r12
ffffffff80006e0e:	41 5d                	pop    r13
ffffffff80006e10:	41 5e                	pop    r14
ffffffff80006e12:	c3                   	ret
ffffffff80006e13:	0f 1f 44 00 00       	nop    DWORD PTR [rax+rax*1+0x0]
ffffffff80006e18:	48 8b 1d 71 c1 00 00 	mov    rbx,QWORD PTR [rip+0xc171]        # ffffffff80012f90 <rsdt_ptr>
ffffffff80006e1f:	48 85 db             	test   rbx,rbx
ffffffff80006e22:	0f 84 0d 01 00 00    	je     ffffffff80006f35 <acpi_get_entry+0x325>
ffffffff80006e28:	48 8d 53 04          	lea    rdx,[rbx+0x4]
ffffffff80006e2c:	48 83 fb fc          	cmp    rbx,0xfffffffffffffffc
ffffffff80006e30:	0f 83 39 01 00 00    	jae    ffffffff80006f6f <acpi_get_entry+0x35f>
ffffffff80006e36:	8b 5b 04             	mov    ebx,DWORD PTR [rbx+0x4]
ffffffff80006e39:	48 83 eb 24          	sub    rbx,0x24
ffffffff80006e3d:	48 c1 eb 02          	shr    rbx,0x2
ffffffff80006e41:	e9 1b fe ff ff       	jmp    ffffffff80006c61 <acpi_get_entry+0x51>
ffffffff80006e46:	31 f6                	xor    esi,esi
ffffffff80006e48:	48 c7 c7 c0 05 01 80 	mov    rdi,0xffffffff800105c0
ffffffff80006e4f:	48 89 44 24 08       	mov    QWORD PTR [rsp+0x8],rax
ffffffff80006e54:	e8 37 ec ff ff       	call   ffffffff80005a90 <__ubsan_handle_type_mismatch_v1>
ffffffff80006e59:	48 8b 44 24 08       	mov    rax,QWORD PTR [rsp+0x8]
ffffffff80006e5e:	e9 92 fe ff ff       	jmp    ffffffff80006cf5 <acpi_get_entry+0xe5>
ffffffff80006e63:	31 f6                	xor    esi,esi
ffffffff80006e65:	48 c7 c7 60 06 01 80 	mov    rdi,0xffffffff80010660
ffffffff80006e6c:	e8 1f ec ff ff       	call   ffffffff80005a90 <__ubsan_handle_type_mismatch_v1>
ffffffff80006e71:	e9 d0 fe ff ff       	jmp    ffffffff80006d46 <acpi_get_entry+0x136>
ffffffff80006e76:	31 f6                	xor    esi,esi
ffffffff80006e78:	48 c7 c7 e0 06 01 80 	mov    rdi,0xffffffff800106e0
ffffffff80006e7f:	e8 0c ec ff ff       	call   ffffffff80005a90 <__ubsan_handle_type_mismatch_v1>
ffffffff80006e84:	e9 07 fe ff ff       	jmp    ffffffff80006c90 <acpi_get_entry+0x80>
ffffffff80006e89:	4c 89 f6             	mov    rsi,r14
ffffffff80006e8c:	48 c7 c7 80 06 01 80 	mov    rdi,0xffffffff80010680
ffffffff80006e93:	48 89 44 24 08       	mov    QWORD PTR [rsp+0x8],rax
ffffffff80006e98:	e8 43 f4 ff ff       	call   ffffffff800062e0 <__ubsan_handle_pointer_overflow>
ffffffff80006e9d:	48 8b 44 24 08       	mov    rax,QWORD PTR [rsp+0x8]
ffffffff80006ea2:	e9 3e fe ff ff       	jmp    ffffffff80006ce5 <acpi_get_entry+0xd5>
ffffffff80006ea7:	4c 89 f6             	mov    rsi,r14
ffffffff80006eaa:	48 c7 c7 a0 06 01 80 	mov    rdi,0xffffffff800106a0
ffffffff80006eb1:	48 89 44 24 08       	mov    QWORD PTR [rsp+0x8],rax
ffffffff80006eb6:	e8 d5 eb ff ff       	call   ffffffff80005a90 <__ubsan_handle_type_mismatch_v1>
ffffffff80006ebb:	48 8b 44 24 08       	mov    rax,QWORD PTR [rsp+0x8]
ffffffff80006ec0:	e9 12 fe ff ff       	jmp    ffffffff80006cd7 <acpi_get_entry+0xc7>
ffffffff80006ec5:	48 c7 c2 e8 00 00 80 	mov    rdx,0xffffffff800000e8
ffffffff80006ecc:	48 c7 c6 c0 00 00 80 	mov    rsi,0xffffffff800000c0
ffffffff80006ed3:	48 89 44 24 08       	mov    QWORD PTR [rsp+0x8],rax
ffffffff80006ed8:	48 c7 c7 c0 06 01 80 	mov    rdi,0xffffffff800106c0
ffffffff80006edf:	e8 fc f3 ff ff       	call   ffffffff800062e0 <__ubsan_handle_pointer_overflow>
ffffffff80006ee4:	48 8b 44 24 08       	mov    rax,QWORD PTR [rsp+0x8]
ffffffff80006ee9:	e9 cf fd ff ff       	jmp    ffffffff80006cbd <acpi_get_entry+0xad>
ffffffff80006eee:	4c 89 f6             	mov    rsi,r14
ffffffff80006ef1:	48 c7 c7 20 06 01 80 	mov    rdi,0xffffffff80010620
ffffffff80006ef8:	48 89 44 24 08       	mov    QWORD PTR [rsp+0x8],rax
ffffffff80006efd:	e8 8e eb ff ff       	call   ffffffff80005a90 <__ubsan_handle_type_mismatch_v1>
ffffffff80006f02:	48 8b 44 24 08       	mov    rax,QWORD PTR [rsp+0x8]
ffffffff80006f07:	e9 81 fe ff ff       	jmp    ffffffff80006d8d <acpi_get_entry+0x17d>
ffffffff80006f0c:	48 c7 c2 e8 00 00 80 	mov    rdx,0xffffffff800000e8
ffffffff80006f13:	48 c7 c6 c0 00 00 80 	mov    rsi,0xffffffff800000c0
ffffffff80006f1a:	48 89 44 24 08       	mov    QWORD PTR [rsp+0x8],rax
ffffffff80006f1f:	48 c7 c7 40 06 01 80 	mov    rdi,0xffffffff80010640
ffffffff80006f26:	e8 b5 f3 ff ff       	call   ffffffff800062e0 <__ubsan_handle_pointer_overflow>
ffffffff80006f2b:	48 8b 44 24 08       	mov    rax,QWORD PTR [rsp+0x8]
ffffffff80006f30:	e9 3e fe ff ff       	jmp    ffffffff80006d73 <acpi_get_entry+0x163>
ffffffff80006f35:	31 f6                	xor    esi,esi
ffffffff80006f37:	48 c7 c7 20 07 01 80 	mov    rdi,0xffffffff80010720
ffffffff80006f3e:	e8 4d eb ff ff       	call   ffffffff80005a90 <__ubsan_handle_type_mismatch_v1>
ffffffff80006f43:	e9 e0 fe ff ff       	jmp    ffffffff80006e28 <acpi_get_entry+0x218>
ffffffff80006f48:	48 89 de             	mov    rsi,rbx
ffffffff80006f4b:	48 c7 c7 60 07 01 80 	mov    rdi,0xffffffff80010760
ffffffff80006f52:	e8 89 f3 ff ff       	call   ffffffff800062e0 <__ubsan_handle_pointer_overflow>
ffffffff80006f57:	e9 fa fc ff ff       	jmp    ffffffff80006c56 <acpi_get_entry+0x46>
ffffffff80006f5c:	31 f6                	xor    esi,esi
ffffffff80006f5e:	48 c7 c7 80 07 01 80 	mov    rdi,0xffffffff80010780
ffffffff80006f65:	e8 26 eb ff ff       	call   ffffffff80005a90 <__ubsan_handle_type_mismatch_v1>
ffffffff80006f6a:	e9 d9 fc ff ff       	jmp    ffffffff80006c48 <acpi_get_entry+0x38>
ffffffff80006f6f:	48 89 de             	mov    rsi,rbx
ffffffff80006f72:	48 c7 c7 00 07 01 80 	mov    rdi,0xffffffff80010700
ffffffff80006f79:	e8 62 f3 ff ff       	call   ffffffff800062e0 <__ubsan_handle_pointer_overflow>
ffffffff80006f7e:	e9 b3 fe ff ff       	jmp    ffffffff80006e36 <acpi_get_entry+0x226>
ffffffff80006f83:	66 2e 0f 1f 84 00 00 	cs nop WORD PTR [rax+rax*1+0x0]
ffffffff80006f8a:	00 00 00 
ffffffff80006f8d:	0f 1f 00             	nop    DWORD PTR [rax]

ffffffff80006f90 <debug_handler>:
ffffffff80006f90:	48 83 ec 08          	sub    rsp,0x8
ffffffff80006f94:	48 c7 c7 71 c2 00 80 	mov    rdi,0xffffffff8000c271
ffffffff80006f9b:	31 c0                	xor    eax,eax
ffffffff80006f9d:	e8 ce b2 ff ff       	call   ffffffff80002270 <printf>
ffffffff80006fa2:	48 c7 c7 71 c2 00 80 	mov    rdi,0xffffffff8000c271
ffffffff80006fa9:	31 c0                	xor    eax,eax
ffffffff80006fab:	48 83 c4 08          	add    rsp,0x8
ffffffff80006faf:	e9 fc a0 ff ff       	jmp    ffffffff800010b0 <serial_printf>
ffffffff80006fb4:	66 2e 0f 1f 84 00 00 	cs nop WORD PTR [rax+rax*1+0x0]
ffffffff80006fbb:	00 00 00 
ffffffff80006fbe:	66 90                	xchg   ax,ax

ffffffff80006fc0 <except_init>:
ffffffff80006fc0:	48 c7 05 fd bf 00 00 	mov    QWORD PTR [rip+0xbffd],0xffffffff80006f90        # ffffffff80012fc8 <except_handlers+0x8>
ffffffff80006fc7:	90 6f 00 80 
ffffffff80006fcb:	c3                   	ret
ffffffff80006fcc:	0f 1f 40 00          	nop    DWORD PTR [rax+0x0]

ffffffff80006fd0 <except_handler>:
ffffffff80006fd0:	48 83 ec 38          	sub    rsp,0x38
ffffffff80006fd4:	48 89 f9             	mov    rcx,rdi
ffffffff80006fd7:	48 85 ff             	test   rdi,rdi
ffffffff80006fda:	0f 84 7d 03 00 00    	je     ffffffff8000735d <except_handler+0x38d>
ffffffff80006fe0:	40 f6 c7 07          	test   dil,0x7
ffffffff80006fe4:	0f 85 73 03 00 00    	jne    ffffffff8000735d <except_handler+0x38d>
ffffffff80006fea:	48 8d 51 78          	lea    rdx,[rcx+0x78]
ffffffff80006fee:	48 83 f9 88          	cmp    rcx,0xffffffffffffff88
ffffffff80006ff2:	0f 83 81 03 00 00    	jae    ffffffff80007379 <except_handler+0x3a9>
ffffffff80006ff8:	48 8b 41 78          	mov    rax,QWORD PTR [rcx+0x78]
ffffffff80006ffc:	48 83 f8 20          	cmp    rax,0x20
ffffffff80007000:	0f 83 df 03 00 00    	jae    ffffffff800073e5 <except_handler+0x415>
ffffffff80007006:	4c 8d 04 c5 00 00 00 	lea    r8,[rax*8+0x0]
ffffffff8000700d:	00 
ffffffff8000700e:	4d 8d 48 08          	lea    r9,[r8+0x8]
ffffffff80007012:	49 8d 90 c0 2f 01 80 	lea    rdx,[r8-0x7ffed040]
ffffffff80007019:	49 81 f9 00 01 00 00 	cmp    r9,0x100
ffffffff80007020:	0f 87 6f 03 00 00    	ja     ffffffff80007395 <except_handler+0x3c5>
ffffffff80007026:	49 c7 c3 c0 2f 01 80 	mov    r11,0xffffffff80012fc0
ffffffff8000702d:	4d 85 c0             	test   r8,r8
ffffffff80007030:	78 56                	js     ffffffff80007088 <except_handler+0xb8>
ffffffff80007032:	4c 39 da             	cmp    rdx,r11
ffffffff80007035:	72 56                	jb     ffffffff8000708d <except_handler+0xbd>
ffffffff80007037:	4c 8b 14 c5 c0 2f 01 	mov    r10,QWORD PTR [rax*8-0x7ffed040]
ffffffff8000703e:	80 
ffffffff8000703f:	4d 85 d2             	test   r10,r10
ffffffff80007042:	0f 84 d0 00 00 00    	je     ffffffff80007118 <except_handler+0x148>
ffffffff80007048:	48 85 c9             	test   rcx,rcx
ffffffff8000704b:	0f 84 05 04 00 00    	je     ffffffff80007456 <except_handler+0x486>
ffffffff80007051:	f6 c1 07             	test   cl,0x7
ffffffff80007054:	0f 85 fc 03 00 00    	jne    ffffffff80007456 <except_handler+0x486>
ffffffff8000705a:	48 83 f8 20          	cmp    rax,0x20
ffffffff8000705e:	0f 83 a7 03 00 00    	jae    ffffffff8000740b <except_handler+0x43b>
ffffffff80007064:	49 81 f9 00 01 00 00 	cmp    r9,0x100
ffffffff8000706b:	0f 87 3a 04 00 00    	ja     ffffffff800074ab <except_handler+0x4db>
ffffffff80007071:	4d 85 c0             	test   r8,r8
ffffffff80007074:	79 6a                	jns    ffffffff800070e0 <except_handler+0x110>
ffffffff80007076:	49 39 d3             	cmp    r11,rdx
ffffffff80007079:	72 6e                	jb     ffffffff800070e9 <except_handler+0x119>
ffffffff8000707b:	48 89 cf             	mov    rdi,rcx
ffffffff8000707e:	48 83 c4 38          	add    rsp,0x38
ffffffff80007082:	41 ff e2             	jmp    r10
ffffffff80007085:	0f 1f 00             	nop    DWORD PTR [rax]
ffffffff80007088:	49 39 d3             	cmp    r11,rdx
ffffffff8000708b:	73 aa                	jae    ffffffff80007037 <except_handler+0x67>
ffffffff8000708d:	48 c7 c6 c0 2f 01 80 	mov    rsi,0xffffffff80012fc0
ffffffff80007094:	48 c7 c7 a0 0d 01 80 	mov    rdi,0xffffffff80010da0
ffffffff8000709b:	48 89 4c 24 20       	mov    QWORD PTR [rsp+0x20],rcx
ffffffff800070a0:	4c 89 4c 24 18       	mov    QWORD PTR [rsp+0x18],r9
ffffffff800070a5:	4c 89 44 24 10       	mov    QWORD PTR [rsp+0x10],r8
ffffffff800070aa:	48 89 44 24 08       	mov    QWORD PTR [rsp+0x8],rax
ffffffff800070af:	48 89 14 24          	mov    QWORD PTR [rsp],rdx
ffffffff800070b3:	e8 28 f2 ff ff       	call   ffffffff800062e0 <__ubsan_handle_pointer_overflow>
ffffffff800070b8:	48 8b 14 24          	mov    rdx,QWORD PTR [rsp]
ffffffff800070bc:	48 8b 44 24 08       	mov    rax,QWORD PTR [rsp+0x8]
ffffffff800070c1:	49 c7 c3 c0 2f 01 80 	mov    r11,0xffffffff80012fc0
ffffffff800070c8:	4c 8b 44 24 10       	mov    r8,QWORD PTR [rsp+0x10]
ffffffff800070cd:	4c 8b 4c 24 18       	mov    r9,QWORD PTR [rsp+0x18]
ffffffff800070d2:	48 8b 4c 24 20       	mov    rcx,QWORD PTR [rsp+0x20]
ffffffff800070d7:	e9 5b ff ff ff       	jmp    ffffffff80007037 <except_handler+0x67>
ffffffff800070dc:	0f 1f 40 00          	nop    DWORD PTR [rax+0x0]
ffffffff800070e0:	48 81 fa c0 2f 01 80 	cmp    rdx,0xffffffff80012fc0
ffffffff800070e7:	73 92                	jae    ffffffff8000707b <except_handler+0xab>
ffffffff800070e9:	48 c7 c6 c0 2f 01 80 	mov    rsi,0xffffffff80012fc0
ffffffff800070f0:	48 c7 c7 20 0d 01 80 	mov    rdi,0xffffffff80010d20
ffffffff800070f7:	48 89 4c 24 08       	mov    QWORD PTR [rsp+0x8],rcx
ffffffff800070fc:	4c 89 14 24          	mov    QWORD PTR [rsp],r10
ffffffff80007100:	e8 db f1 ff ff       	call   ffffffff800062e0 <__ubsan_handle_pointer_overflow>
ffffffff80007105:	4c 8b 14 24          	mov    r10,QWORD PTR [rsp]
ffffffff80007109:	48 8b 4c 24 08       	mov    rcx,QWORD PTR [rsp+0x8]
ffffffff8000710e:	e9 68 ff ff ff       	jmp    ffffffff8000707b <except_handler+0xab>
ffffffff80007113:	0f 1f 44 00 00       	nop    DWORD PTR [rax+rax*1+0x0]
ffffffff80007118:	48 85 c9             	test   rcx,rcx
ffffffff8000711b:	0f 84 54 05 00 00    	je     ffffffff80007675 <except_handler+0x6a5>
ffffffff80007121:	f6 c1 07             	test   cl,0x7
ffffffff80007124:	0f 85 4b 05 00 00    	jne    ffffffff80007675 <except_handler+0x6a5>
ffffffff8000712a:	48 8d 91 80 00 00 00 	lea    rdx,[rcx+0x80]
ffffffff80007131:	48 83 f9 80          	cmp    rcx,0xffffffffffffff80
ffffffff80007135:	0f 83 0a 05 00 00    	jae    ffffffff80007645 <except_handler+0x675>
ffffffff8000713b:	4c 8b 99 80 00 00 00 	mov    r11,QWORD PTR [rcx+0x80]
ffffffff80007142:	48 85 c9             	test   rcx,rcx
ffffffff80007145:	0f 84 c0 04 00 00    	je     ffffffff8000760b <except_handler+0x63b>
ffffffff8000714b:	f6 c1 07             	test   cl,0x7
ffffffff8000714e:	0f 85 b7 04 00 00    	jne    ffffffff8000760b <except_handler+0x63b>
ffffffff80007154:	48 83 f8 16          	cmp    rax,0x16
ffffffff80007158:	0f 83 cb 05 00 00    	jae    ffffffff80007729 <except_handler+0x759>
ffffffff8000715e:	41 b9 08 00 00 00    	mov    r9d,0x8
ffffffff80007164:	49 8d 90 c0 0e 01 80 	lea    rdx,[r8-0x7ffef140]
ffffffff8000716b:	49 81 e9 c0 0e 01 80 	sub    r9,0xffffffff80010ec0
ffffffff80007172:	4a 8d 34 0a          	lea    rsi,[rdx+r9*1]
ffffffff80007176:	48 81 fe b0 00 00 00 	cmp    rsi,0xb0
ffffffff8000717d:	0f 87 4f 05 00 00    	ja     ffffffff800076d2 <except_handler+0x702>
ffffffff80007183:	49 c7 c2 c0 0e 01 80 	mov    r10,0xffffffff80010ec0
ffffffff8000718a:	4d 85 c0             	test   r8,r8
ffffffff8000718d:	0f 88 3d 01 00 00    	js     ffffffff800072d0 <except_handler+0x300>
ffffffff80007193:	4c 39 d2             	cmp    rdx,r10
ffffffff80007196:	0f 82 3d 01 00 00    	jb     ffffffff800072d9 <except_handler+0x309>
ffffffff8000719c:	48 8b 34 c5 c0 0e 01 	mov    rsi,QWORD PTR [rax*8-0x7ffef140]
ffffffff800071a3:	80 
ffffffff800071a4:	4c 89 da             	mov    rdx,r11
ffffffff800071a7:	31 c0                	xor    eax,eax
ffffffff800071a9:	48 89 4c 24 08       	mov    QWORD PTR [rsp+0x8],rcx
ffffffff800071ae:	48 c7 c7 93 c2 00 80 	mov    rdi,0xffffffff8000c293
ffffffff800071b5:	4c 89 0c 24          	mov    QWORD PTR [rsp],r9
ffffffff800071b9:	e8 b2 b0 ff ff       	call   ffffffff80002270 <printf>
ffffffff800071be:	48 8b 4c 24 08       	mov    rcx,QWORD PTR [rsp+0x8]
ffffffff800071c3:	4c 8b 0c 24          	mov    r9,QWORD PTR [rsp]
ffffffff800071c7:	49 c7 c2 c0 0e 01 80 	mov    r10,0xffffffff80010ec0
ffffffff800071ce:	48 85 c9             	test   rcx,rcx
ffffffff800071d1:	0f 84 ce 04 00 00    	je     ffffffff800076a5 <except_handler+0x6d5>
ffffffff800071d7:	f6 c1 07             	test   cl,0x7
ffffffff800071da:	0f 85 c5 04 00 00    	jne    ffffffff800076a5 <except_handler+0x6d5>
ffffffff800071e0:	4c 8b 81 80 00 00 00 	mov    r8,QWORD PTR [rcx+0x80]
ffffffff800071e7:	48 85 c9             	test   rcx,rcx
ffffffff800071ea:	0f 84 ac 03 00 00    	je     ffffffff8000759c <except_handler+0x5cc>
ffffffff800071f0:	f6 c1 07             	test   cl,0x7
ffffffff800071f3:	0f 85 a3 03 00 00    	jne    ffffffff8000759c <except_handler+0x5cc>
ffffffff800071f9:	48 8b 41 78          	mov    rax,QWORD PTR [rcx+0x78]
ffffffff800071fd:	48 83 f8 16          	cmp    rax,0x16
ffffffff80007201:	0f 83 54 03 00 00    	jae    ffffffff8000755b <except_handler+0x58b>
ffffffff80007207:	48 8d 14 c5 c0 0e 01 	lea    rdx,[rax*8-0x7ffef140]
ffffffff8000720e:	80 
ffffffff8000720f:	49 01 d1             	add    r9,rdx
ffffffff80007212:	49 81 f9 b0 00 00 00 	cmp    r9,0xb0
ffffffff80007219:	0f 87 f2 02 00 00    	ja     ffffffff80007511 <except_handler+0x541>
ffffffff8000721f:	48 89 c6             	mov    rsi,rax
ffffffff80007222:	48 c1 e6 03          	shl    rsi,0x3
ffffffff80007226:	0f 88 f4 00 00 00    	js     ffffffff80007320 <except_handler+0x350>
ffffffff8000722c:	48 81 fa c0 0e 01 80 	cmp    rdx,0xffffffff80010ec0
ffffffff80007233:	0f 82 f0 00 00 00    	jb     ffffffff80007329 <except_handler+0x359>
ffffffff80007239:	48 8b 34 c5 c0 0e 01 	mov    rsi,QWORD PTR [rax*8-0x7ffef140]
ffffffff80007240:	80 
ffffffff80007241:	4c 89 c2             	mov    rdx,r8
ffffffff80007244:	48 c7 c7 93 c2 00 80 	mov    rdi,0xffffffff8000c293
ffffffff8000724b:	31 c0                	xor    eax,eax
ffffffff8000724d:	48 89 0c 24          	mov    QWORD PTR [rsp],rcx
ffffffff80007251:	e8 5a 9e ff ff       	call   ffffffff800010b0 <serial_printf>
ffffffff80007256:	48 8b 0c 24          	mov    rcx,QWORD PTR [rsp]
ffffffff8000725a:	48 85 c9             	test   rcx,rcx
ffffffff8000725d:	0f 84 8c 03 00 00    	je     ffffffff800075ef <except_handler+0x61f>
ffffffff80007263:	f6 c1 07             	test   cl,0x7
ffffffff80007266:	0f 85 83 03 00 00    	jne    ffffffff800075ef <except_handler+0x61f>
ffffffff8000726c:	48 8d 91 88 00 00 00 	lea    rdx,[rcx+0x88]
ffffffff80007273:	48 81 f9 78 ff ff ff 	cmp    rcx,0xffffffffffffff78
ffffffff8000727a:	0f 83 53 03 00 00    	jae    ffffffff800075d3 <except_handler+0x603>
ffffffff80007280:	48 8b b1 88 00 00 00 	mov    rsi,QWORD PTR [rcx+0x88]
ffffffff80007287:	48 c7 c7 ae c2 00 80 	mov    rdi,0xffffffff8000c2ae
ffffffff8000728e:	31 c0                	xor    eax,eax
ffffffff80007290:	48 89 0c 24          	mov    QWORD PTR [rsp],rcx
ffffffff80007294:	e8 d7 af ff ff       	call   ffffffff80002270 <printf>
ffffffff80007299:	48 8b 0c 24          	mov    rcx,QWORD PTR [rsp]
ffffffff8000729d:	48 85 c9             	test   rcx,rcx
ffffffff800072a0:	0f 84 4f 02 00 00    	je     ffffffff800074f5 <except_handler+0x525>
ffffffff800072a6:	f6 c1 07             	test   cl,0x7
ffffffff800072a9:	0f 85 46 02 00 00    	jne    ffffffff800074f5 <except_handler+0x525>
ffffffff800072af:	48 8b b1 88 00 00 00 	mov    rsi,QWORD PTR [rcx+0x88]
ffffffff800072b6:	48 c7 c7 ae c2 00 80 	mov    rdi,0xffffffff8000c2ae
ffffffff800072bd:	31 c0                	xor    eax,eax
ffffffff800072bf:	e8 ec 9d ff ff       	call   ffffffff800010b0 <serial_printf>
ffffffff800072c4:	48 83 c4 38          	add    rsp,0x38
ffffffff800072c8:	e9 f3 b4 ff ff       	jmp    ffffffff800027c0 <hcf>
ffffffff800072cd:	0f 1f 00             	nop    DWORD PTR [rax]
ffffffff800072d0:	49 39 d2             	cmp    r10,rdx
ffffffff800072d3:	0f 83 c3 fe ff ff    	jae    ffffffff8000719c <except_handler+0x1cc>
ffffffff800072d9:	48 c7 c6 c0 0e 01 80 	mov    rsi,0xffffffff80010ec0
ffffffff800072e0:	48 c7 c7 20 0c 01 80 	mov    rdi,0xffffffff80010c20
ffffffff800072e7:	48 89 4c 24 18       	mov    QWORD PTR [rsp+0x18],rcx
ffffffff800072ec:	4c 89 4c 24 10       	mov    QWORD PTR [rsp+0x10],r9
ffffffff800072f1:	48 89 44 24 08       	mov    QWORD PTR [rsp+0x8],rax
ffffffff800072f6:	4c 89 1c 24          	mov    QWORD PTR [rsp],r11
ffffffff800072fa:	e8 e1 ef ff ff       	call   ffffffff800062e0 <__ubsan_handle_pointer_overflow>
ffffffff800072ff:	4c 8b 1c 24          	mov    r11,QWORD PTR [rsp]
ffffffff80007303:	48 8b 44 24 08       	mov    rax,QWORD PTR [rsp+0x8]
ffffffff80007308:	4c 8b 4c 24 10       	mov    r9,QWORD PTR [rsp+0x10]
ffffffff8000730d:	48 8b 4c 24 18       	mov    rcx,QWORD PTR [rsp+0x18]
ffffffff80007312:	e9 85 fe ff ff       	jmp    ffffffff8000719c <except_handler+0x1cc>
ffffffff80007317:	66 0f 1f 84 00 00 00 	nop    WORD PTR [rax+rax*1+0x0]
ffffffff8000731e:	00 00 
ffffffff80007320:	49 39 d2             	cmp    r10,rdx
ffffffff80007323:	0f 83 10 ff ff ff    	jae    ffffffff80007239 <except_handler+0x269>
ffffffff80007329:	48 c7 c6 c0 0e 01 80 	mov    rsi,0xffffffff80010ec0
ffffffff80007330:	48 c7 c7 80 0b 01 80 	mov    rdi,0xffffffff80010b80
ffffffff80007337:	48 89 4c 24 10       	mov    QWORD PTR [rsp+0x10],rcx
ffffffff8000733c:	48 89 44 24 08       	mov    QWORD PTR [rsp+0x8],rax
ffffffff80007341:	4c 89 04 24          	mov    QWORD PTR [rsp],r8
ffffffff80007345:	e8 96 ef ff ff       	call   ffffffff800062e0 <__ubsan_handle_pointer_overflow>
ffffffff8000734a:	4c 8b 04 24          	mov    r8,QWORD PTR [rsp]
ffffffff8000734e:	48 8b 44 24 08       	mov    rax,QWORD PTR [rsp+0x8]
ffffffff80007353:	48 8b 4c 24 10       	mov    rcx,QWORD PTR [rsp+0x10]
ffffffff80007358:	e9 dc fe ff ff       	jmp    ffffffff80007239 <except_handler+0x269>
ffffffff8000735d:	48 89 ce             	mov    rsi,rcx
ffffffff80007360:	48 c7 c7 40 0e 01 80 	mov    rdi,0xffffffff80010e40
ffffffff80007367:	48 89 0c 24          	mov    QWORD PTR [rsp],rcx
ffffffff8000736b:	e8 20 e7 ff ff       	call   ffffffff80005a90 <__ubsan_handle_type_mismatch_v1>
ffffffff80007370:	48 8b 0c 24          	mov    rcx,QWORD PTR [rsp]
ffffffff80007374:	e9 71 fc ff ff       	jmp    ffffffff80006fea <except_handler+0x1a>
ffffffff80007379:	48 89 ce             	mov    rsi,rcx
ffffffff8000737c:	48 c7 c7 20 0e 01 80 	mov    rdi,0xffffffff80010e20
ffffffff80007383:	48 89 0c 24          	mov    QWORD PTR [rsp],rcx
ffffffff80007387:	e8 54 ef ff ff       	call   ffffffff800062e0 <__ubsan_handle_pointer_overflow>
ffffffff8000738c:	48 8b 0c 24          	mov    rcx,QWORD PTR [rsp]
ffffffff80007390:	e9 63 fc ff ff       	jmp    ffffffff80006ff8 <except_handler+0x28>
ffffffff80007395:	48 89 d7             	mov    rdi,rdx
ffffffff80007398:	4c 01 cf             	add    rdi,r9
ffffffff8000739b:	0f 82 85 fc ff ff    	jb     ffffffff80007026 <except_handler+0x56>
ffffffff800073a1:	48 89 d6             	mov    rsi,rdx
ffffffff800073a4:	48 c7 c7 c0 0d 01 80 	mov    rdi,0xffffffff80010dc0
ffffffff800073ab:	48 89 4c 24 20       	mov    QWORD PTR [rsp+0x20],rcx
ffffffff800073b0:	4c 89 4c 24 18       	mov    QWORD PTR [rsp+0x18],r9
ffffffff800073b5:	4c 89 44 24 10       	mov    QWORD PTR [rsp+0x10],r8
ffffffff800073ba:	48 89 44 24 08       	mov    QWORD PTR [rsp+0x8],rax
ffffffff800073bf:	48 89 14 24          	mov    QWORD PTR [rsp],rdx
ffffffff800073c3:	e8 c8 e6 ff ff       	call   ffffffff80005a90 <__ubsan_handle_type_mismatch_v1>
ffffffff800073c8:	48 8b 4c 24 20       	mov    rcx,QWORD PTR [rsp+0x20]
ffffffff800073cd:	4c 8b 4c 24 18       	mov    r9,QWORD PTR [rsp+0x18]
ffffffff800073d2:	4c 8b 44 24 10       	mov    r8,QWORD PTR [rsp+0x10]
ffffffff800073d7:	48 8b 44 24 08       	mov    rax,QWORD PTR [rsp+0x8]
ffffffff800073dc:	48 8b 14 24          	mov    rdx,QWORD PTR [rsp]
ffffffff800073e0:	e9 41 fc ff ff       	jmp    ffffffff80007026 <except_handler+0x56>
ffffffff800073e5:	48 89 c6             	mov    rsi,rax
ffffffff800073e8:	48 c7 c7 e0 0d 01 80 	mov    rdi,0xffffffff80010de0
ffffffff800073ef:	48 89 4c 24 08       	mov    QWORD PTR [rsp+0x8],rcx
ffffffff800073f4:	48 89 04 24          	mov    QWORD PTR [rsp],rax
ffffffff800073f8:	e8 83 ef ff ff       	call   ffffffff80006380 <__ubsan_handle_out_of_bounds>
ffffffff800073fd:	48 8b 4c 24 08       	mov    rcx,QWORD PTR [rsp+0x8]
ffffffff80007402:	48 8b 04 24          	mov    rax,QWORD PTR [rsp]
ffffffff80007406:	e9 fb fb ff ff       	jmp    ffffffff80007006 <except_handler+0x36>
ffffffff8000740b:	48 89 c6             	mov    rsi,rax
ffffffff8000740e:	48 c7 c7 60 0d 01 80 	mov    rdi,0xffffffff80010d60
ffffffff80007415:	48 89 4c 24 20       	mov    QWORD PTR [rsp+0x20],rcx
ffffffff8000741a:	48 89 54 24 18       	mov    QWORD PTR [rsp+0x18],rdx
ffffffff8000741f:	4c 89 4c 24 10       	mov    QWORD PTR [rsp+0x10],r9
ffffffff80007424:	4c 89 44 24 08       	mov    QWORD PTR [rsp+0x8],r8
ffffffff80007429:	4c 89 14 24          	mov    QWORD PTR [rsp],r10
ffffffff8000742d:	e8 4e ef ff ff       	call   ffffffff80006380 <__ubsan_handle_out_of_bounds>
ffffffff80007432:	48 8b 4c 24 20       	mov    rcx,QWORD PTR [rsp+0x20]
ffffffff80007437:	48 8b 54 24 18       	mov    rdx,QWORD PTR [rsp+0x18]
ffffffff8000743c:	49 c7 c3 c0 2f 01 80 	mov    r11,0xffffffff80012fc0
ffffffff80007443:	4c 8b 4c 24 10       	mov    r9,QWORD PTR [rsp+0x10]
ffffffff80007448:	4c 8b 44 24 08       	mov    r8,QWORD PTR [rsp+0x8]
ffffffff8000744d:	4c 8b 14 24          	mov    r10,QWORD PTR [rsp]
ffffffff80007451:	e9 0e fc ff ff       	jmp    ffffffff80007064 <except_handler+0x94>
ffffffff80007456:	48 89 ce             	mov    rsi,rcx
ffffffff80007459:	48 c7 c7 80 0d 01 80 	mov    rdi,0xffffffff80010d80
ffffffff80007460:	48 89 54 24 28       	mov    QWORD PTR [rsp+0x28],rdx
ffffffff80007465:	4c 89 4c 24 20       	mov    QWORD PTR [rsp+0x20],r9
ffffffff8000746a:	4c 89 44 24 18       	mov    QWORD PTR [rsp+0x18],r8
ffffffff8000746f:	48 89 44 24 10       	mov    QWORD PTR [rsp+0x10],rax
ffffffff80007474:	4c 89 54 24 08       	mov    QWORD PTR [rsp+0x8],r10
ffffffff80007479:	48 89 0c 24          	mov    QWORD PTR [rsp],rcx
ffffffff8000747d:	e8 0e e6 ff ff       	call   ffffffff80005a90 <__ubsan_handle_type_mismatch_v1>
ffffffff80007482:	48 8b 54 24 28       	mov    rdx,QWORD PTR [rsp+0x28]
ffffffff80007487:	4c 8b 4c 24 20       	mov    r9,QWORD PTR [rsp+0x20]
ffffffff8000748c:	49 c7 c3 c0 2f 01 80 	mov    r11,0xffffffff80012fc0
ffffffff80007493:	4c 8b 44 24 18       	mov    r8,QWORD PTR [rsp+0x18]
ffffffff80007498:	48 8b 44 24 10       	mov    rax,QWORD PTR [rsp+0x10]
ffffffff8000749d:	4c 8b 54 24 08       	mov    r10,QWORD PTR [rsp+0x8]
ffffffff800074a2:	48 8b 0c 24          	mov    rcx,QWORD PTR [rsp]
ffffffff800074a6:	e9 af fb ff ff       	jmp    ffffffff8000705a <except_handler+0x8a>
ffffffff800074ab:	49 01 d1             	add    r9,rdx
ffffffff800074ae:	0f 82 bd fb ff ff    	jb     ffffffff80007071 <except_handler+0xa1>
ffffffff800074b4:	48 89 d6             	mov    rsi,rdx
ffffffff800074b7:	48 c7 c7 40 0d 01 80 	mov    rdi,0xffffffff80010d40
ffffffff800074be:	48 89 4c 24 18       	mov    QWORD PTR [rsp+0x18],rcx
ffffffff800074c3:	4c 89 44 24 10       	mov    QWORD PTR [rsp+0x10],r8
ffffffff800074c8:	4c 89 54 24 08       	mov    QWORD PTR [rsp+0x8],r10
ffffffff800074cd:	48 89 14 24          	mov    QWORD PTR [rsp],rdx
ffffffff800074d1:	e8 ba e5 ff ff       	call   ffffffff80005a90 <__ubsan_handle_type_mismatch_v1>
ffffffff800074d6:	48 8b 4c 24 18       	mov    rcx,QWORD PTR [rsp+0x18]
ffffffff800074db:	4c 8b 44 24 10       	mov    r8,QWORD PTR [rsp+0x10]
ffffffff800074e0:	49 c7 c3 c0 2f 01 80 	mov    r11,0xffffffff80012fc0
ffffffff800074e7:	4c 8b 54 24 08       	mov    r10,QWORD PTR [rsp+0x8]
ffffffff800074ec:	48 8b 14 24          	mov    rdx,QWORD PTR [rsp]
ffffffff800074f0:	e9 7c fb ff ff       	jmp    ffffffff80007071 <except_handler+0xa1>
ffffffff800074f5:	48 89 ce             	mov    rsi,rcx
ffffffff800074f8:	48 c7 c7 20 0b 01 80 	mov    rdi,0xffffffff80010b20
ffffffff800074ff:	48 89 0c 24          	mov    QWORD PTR [rsp],rcx
ffffffff80007503:	e8 88 e5 ff ff       	call   ffffffff80005a90 <__ubsan_handle_type_mismatch_v1>
ffffffff80007508:	48 8b 0c 24          	mov    rcx,QWORD PTR [rsp]
ffffffff8000750c:	e9 9e fd ff ff       	jmp    ffffffff800072af <except_handler+0x2df>
ffffffff80007511:	49 01 d1             	add    r9,rdx
ffffffff80007514:	0f 82 05 fd ff ff    	jb     ffffffff8000721f <except_handler+0x24f>
ffffffff8000751a:	48 89 d6             	mov    rsi,rdx
ffffffff8000751d:	48 c7 c7 a0 0b 01 80 	mov    rdi,0xffffffff80010ba0
ffffffff80007524:	48 89 4c 24 18       	mov    QWORD PTR [rsp+0x18],rcx
ffffffff80007529:	48 89 44 24 10       	mov    QWORD PTR [rsp+0x10],rax
ffffffff8000752e:	4c 89 44 24 08       	mov    QWORD PTR [rsp+0x8],r8
ffffffff80007533:	48 89 14 24          	mov    QWORD PTR [rsp],rdx
ffffffff80007537:	e8 54 e5 ff ff       	call   ffffffff80005a90 <__ubsan_handle_type_mismatch_v1>
ffffffff8000753c:	48 8b 4c 24 18       	mov    rcx,QWORD PTR [rsp+0x18]
ffffffff80007541:	48 8b 44 24 10       	mov    rax,QWORD PTR [rsp+0x10]
ffffffff80007546:	49 c7 c2 c0 0e 01 80 	mov    r10,0xffffffff80010ec0
ffffffff8000754d:	4c 8b 44 24 08       	mov    r8,QWORD PTR [rsp+0x8]
ffffffff80007552:	48 8b 14 24          	mov    rdx,QWORD PTR [rsp]
ffffffff80007556:	e9 c4 fc ff ff       	jmp    ffffffff8000721f <except_handler+0x24f>
ffffffff8000755b:	48 89 c6             	mov    rsi,rax
ffffffff8000755e:	48 c7 c7 c0 0b 01 80 	mov    rdi,0xffffffff80010bc0
ffffffff80007565:	48 89 4c 24 18       	mov    QWORD PTR [rsp+0x18],rcx
ffffffff8000756a:	4c 89 4c 24 10       	mov    QWORD PTR [rsp+0x10],r9
ffffffff8000756f:	4c 89 44 24 08       	mov    QWORD PTR [rsp+0x8],r8
ffffffff80007574:	48 89 04 24          	mov    QWORD PTR [rsp],rax
ffffffff80007578:	e8 03 ee ff ff       	call   ffffffff80006380 <__ubsan_handle_out_of_bounds>
ffffffff8000757d:	48 8b 4c 24 18       	mov    rcx,QWORD PTR [rsp+0x18]
ffffffff80007582:	4c 8b 4c 24 10       	mov    r9,QWORD PTR [rsp+0x10]
ffffffff80007587:	49 c7 c2 c0 0e 01 80 	mov    r10,0xffffffff80010ec0
ffffffff8000758e:	4c 8b 44 24 08       	mov    r8,QWORD PTR [rsp+0x8]
ffffffff80007593:	48 8b 04 24          	mov    rax,QWORD PTR [rsp]
ffffffff80007597:	e9 6b fc ff ff       	jmp    ffffffff80007207 <except_handler+0x237>
ffffffff8000759c:	48 89 ce             	mov    rsi,rcx
ffffffff8000759f:	48 c7 c7 e0 0b 01 80 	mov    rdi,0xffffffff80010be0
ffffffff800075a6:	4c 89 4c 24 10       	mov    QWORD PTR [rsp+0x10],r9
ffffffff800075ab:	4c 89 44 24 08       	mov    QWORD PTR [rsp+0x8],r8
ffffffff800075b0:	48 89 0c 24          	mov    QWORD PTR [rsp],rcx
ffffffff800075b4:	e8 d7 e4 ff ff       	call   ffffffff80005a90 <__ubsan_handle_type_mismatch_v1>
ffffffff800075b9:	4c 8b 4c 24 10       	mov    r9,QWORD PTR [rsp+0x10]
ffffffff800075be:	48 8b 0c 24          	mov    rcx,QWORD PTR [rsp]
ffffffff800075c2:	49 c7 c2 c0 0e 01 80 	mov    r10,0xffffffff80010ec0
ffffffff800075c9:	4c 8b 44 24 08       	mov    r8,QWORD PTR [rsp+0x8]
ffffffff800075ce:	e9 26 fc ff ff       	jmp    ffffffff800071f9 <except_handler+0x229>
ffffffff800075d3:	48 89 ce             	mov    rsi,rcx
ffffffff800075d6:	48 c7 c7 40 0b 01 80 	mov    rdi,0xffffffff80010b40
ffffffff800075dd:	48 89 0c 24          	mov    QWORD PTR [rsp],rcx
ffffffff800075e1:	e8 fa ec ff ff       	call   ffffffff800062e0 <__ubsan_handle_pointer_overflow>
ffffffff800075e6:	48 8b 0c 24          	mov    rcx,QWORD PTR [rsp]
ffffffff800075ea:	e9 91 fc ff ff       	jmp    ffffffff80007280 <except_handler+0x2b0>
ffffffff800075ef:	48 89 ce             	mov    rsi,rcx
ffffffff800075f2:	48 c7 c7 60 0b 01 80 	mov    rdi,0xffffffff80010b60
ffffffff800075f9:	48 89 0c 24          	mov    QWORD PTR [rsp],rcx
ffffffff800075fd:	e8 8e e4 ff ff       	call   ffffffff80005a90 <__ubsan_handle_type_mismatch_v1>
ffffffff80007602:	48 8b 0c 24          	mov    rcx,QWORD PTR [rsp]
ffffffff80007606:	e9 61 fc ff ff       	jmp    ffffffff8000726c <except_handler+0x29c>
ffffffff8000760b:	48 89 ce             	mov    rsi,rcx
ffffffff8000760e:	48 c7 c7 c0 0c 01 80 	mov    rdi,0xffffffff80010cc0
ffffffff80007615:	4c 89 44 24 18       	mov    QWORD PTR [rsp+0x18],r8
ffffffff8000761a:	48 89 44 24 10       	mov    QWORD PTR [rsp+0x10],rax
ffffffff8000761f:	4c 89 5c 24 08       	mov    QWORD PTR [rsp+0x8],r11
ffffffff80007624:	48 89 0c 24          	mov    QWORD PTR [rsp],rcx
ffffffff80007628:	e8 63 e4 ff ff       	call   ffffffff80005a90 <__ubsan_handle_type_mismatch_v1>
ffffffff8000762d:	4c 8b 44 24 18       	mov    r8,QWORD PTR [rsp+0x18]
ffffffff80007632:	48 8b 44 24 10       	mov    rax,QWORD PTR [rsp+0x10]
ffffffff80007637:	4c 8b 5c 24 08       	mov    r11,QWORD PTR [rsp+0x8]
ffffffff8000763c:	48 8b 0c 24          	mov    rcx,QWORD PTR [rsp]
ffffffff80007640:	e9 0f fb ff ff       	jmp    ffffffff80007154 <except_handler+0x184>
ffffffff80007645:	48 89 ce             	mov    rsi,rcx
ffffffff80007648:	48 c7 c7 e0 0c 01 80 	mov    rdi,0xffffffff80010ce0
ffffffff8000764f:	4c 89 44 24 10       	mov    QWORD PTR [rsp+0x10],r8
ffffffff80007654:	48 89 44 24 08       	mov    QWORD PTR [rsp+0x8],rax
ffffffff80007659:	48 89 0c 24          	mov    QWORD PTR [rsp],rcx
ffffffff8000765d:	e8 7e ec ff ff       	call   ffffffff800062e0 <__ubsan_handle_pointer_overflow>
ffffffff80007662:	4c 8b 44 24 10       	mov    r8,QWORD PTR [rsp+0x10]
ffffffff80007667:	48 8b 44 24 08       	mov    rax,QWORD PTR [rsp+0x8]
ffffffff8000766c:	48 8b 0c 24          	mov    rcx,QWORD PTR [rsp]
ffffffff80007670:	e9 c6 fa ff ff       	jmp    ffffffff8000713b <except_handler+0x16b>
ffffffff80007675:	48 89 ce             	mov    rsi,rcx
ffffffff80007678:	48 c7 c7 00 0d 01 80 	mov    rdi,0xffffffff80010d00
ffffffff8000767f:	4c 89 44 24 10       	mov    QWORD PTR [rsp+0x10],r8
ffffffff80007684:	48 89 44 24 08       	mov    QWORD PTR [rsp+0x8],rax
ffffffff80007689:	48 89 0c 24          	mov    QWORD PTR [rsp],rcx
ffffffff8000768d:	e8 fe e3 ff ff       	call   ffffffff80005a90 <__ubsan_handle_type_mismatch_v1>
ffffffff80007692:	4c 8b 44 24 10       	mov    r8,QWORD PTR [rsp+0x10]
ffffffff80007697:	48 8b 44 24 08       	mov    rax,QWORD PTR [rsp+0x8]
ffffffff8000769c:	48 8b 0c 24          	mov    rcx,QWORD PTR [rsp]
ffffffff800076a0:	e9 85 fa ff ff       	jmp    ffffffff8000712a <except_handler+0x15a>
ffffffff800076a5:	48 89 ce             	mov    rsi,rcx
ffffffff800076a8:	48 c7 c7 00 0c 01 80 	mov    rdi,0xffffffff80010c00
ffffffff800076af:	4c 89 4c 24 08       	mov    QWORD PTR [rsp+0x8],r9
ffffffff800076b4:	48 89 0c 24          	mov    QWORD PTR [rsp],rcx
ffffffff800076b8:	e8 d3 e3 ff ff       	call   ffffffff80005a90 <__ubsan_handle_type_mismatch_v1>
ffffffff800076bd:	4c 8b 4c 24 08       	mov    r9,QWORD PTR [rsp+0x8]
ffffffff800076c2:	48 8b 0c 24          	mov    rcx,QWORD PTR [rsp]
ffffffff800076c6:	49 c7 c2 c0 0e 01 80 	mov    r10,0xffffffff80010ec0
ffffffff800076cd:	e9 0e fb ff ff       	jmp    ffffffff800071e0 <except_handler+0x210>
ffffffff800076d2:	48 01 d6             	add    rsi,rdx
ffffffff800076d5:	0f 82 a8 fa ff ff    	jb     ffffffff80007183 <except_handler+0x1b3>
ffffffff800076db:	48 89 d6             	mov    rsi,rdx
ffffffff800076de:	48 c7 c7 40 0c 01 80 	mov    rdi,0xffffffff80010c40
ffffffff800076e5:	48 89 4c 24 28       	mov    QWORD PTR [rsp+0x28],rcx
ffffffff800076ea:	4c 89 4c 24 20       	mov    QWORD PTR [rsp+0x20],r9
ffffffff800076ef:	4c 89 44 24 18       	mov    QWORD PTR [rsp+0x18],r8
ffffffff800076f4:	48 89 44 24 10       	mov    QWORD PTR [rsp+0x10],rax
ffffffff800076f9:	4c 89 5c 24 08       	mov    QWORD PTR [rsp+0x8],r11
ffffffff800076fe:	48 89 14 24          	mov    QWORD PTR [rsp],rdx
ffffffff80007702:	e8 89 e3 ff ff       	call   ffffffff80005a90 <__ubsan_handle_type_mismatch_v1>
ffffffff80007707:	48 8b 4c 24 28       	mov    rcx,QWORD PTR [rsp+0x28]
ffffffff8000770c:	4c 8b 4c 24 20       	mov    r9,QWORD PTR [rsp+0x20]
ffffffff80007711:	4c 8b 44 24 18       	mov    r8,QWORD PTR [rsp+0x18]
ffffffff80007716:	48 8b 44 24 10       	mov    rax,QWORD PTR [rsp+0x10]
ffffffff8000771b:	4c 8b 5c 24 08       	mov    r11,QWORD PTR [rsp+0x8]
ffffffff80007720:	48 8b 14 24          	mov    rdx,QWORD PTR [rsp]
ffffffff80007724:	e9 5a fa ff ff       	jmp    ffffffff80007183 <except_handler+0x1b3>
ffffffff80007729:	48 89 c6             	mov    rsi,rax
ffffffff8000772c:	48 c7 c7 80 0c 01 80 	mov    rdi,0xffffffff80010c80
ffffffff80007733:	48 89 4c 24 18       	mov    QWORD PTR [rsp+0x18],rcx
ffffffff80007738:	4c 89 44 24 10       	mov    QWORD PTR [rsp+0x10],r8
ffffffff8000773d:	4c 89 5c 24 08       	mov    QWORD PTR [rsp+0x8],r11
ffffffff80007742:	48 89 04 24          	mov    QWORD PTR [rsp],rax
ffffffff80007746:	e8 35 ec ff ff       	call   ffffffff80006380 <__ubsan_handle_out_of_bounds>
ffffffff8000774b:	48 8b 4c 24 18       	mov    rcx,QWORD PTR [rsp+0x18]
ffffffff80007750:	4c 8b 44 24 10       	mov    r8,QWORD PTR [rsp+0x10]
ffffffff80007755:	4c 8b 5c 24 08       	mov    r11,QWORD PTR [rsp+0x8]
ffffffff8000775a:	48 8b 04 24          	mov    rax,QWORD PTR [rsp]
ffffffff8000775e:	e9 fb f9 ff ff       	jmp    ffffffff8000715e <except_handler+0x18e>
ffffffff80007763:	66 2e 0f 1f 84 00 00 	cs nop WORD PTR [rax+rax*1+0x0]
ffffffff8000776a:	00 00 00 
ffffffff8000776d:	0f 1f 00             	nop    DWORD PTR [rax]

ffffffff80007770 <idt_init>:
ffffffff80007770:	41 57                	push   r15
ffffffff80007772:	48 c7 c1 00 26 01 80 	mov    rcx,0xffffffff80012600
ffffffff80007779:	41 b8 08 00 00 00    	mov    r8d,0x8
ffffffff8000777f:	41 bf 02 00 00 00    	mov    r15d,0x2
ffffffff80007785:	41 56                	push   r14
ffffffff80007787:	49 29 c8             	sub    r8,rcx
ffffffff8000778a:	41 55                	push   r13
ffffffff8000778c:	41 54                	push   r12
ffffffff8000778e:	45 31 e4             	xor    r12d,r12d
ffffffff80007791:	55                   	push   rbp
ffffffff80007792:	31 ed                	xor    ebp,ebp
ffffffff80007794:	53                   	push   rbx
ffffffff80007795:	48 c7 c3 c0 30 01 80 	mov    rbx,0xffffffff800130c0
ffffffff8000779c:	48 83 ec 48          	sub    rsp,0x48
ffffffff800077a0:	48 81 fd 00 01 00 00 	cmp    rbp,0x100
ffffffff800077a7:	0f 83 5d 02 00 00    	jae    ffffffff80007a0a <idt_init+0x29a>
ffffffff800077ad:	4e 8d 14 01          	lea    r10,[rcx+r8*1]
ffffffff800077b1:	4c 8d 2c ed 00 00 00 	lea    r13,[rbp*8+0x0]
ffffffff800077b8:	00 
ffffffff800077b9:	49 81 fa 00 08 00 00 	cmp    r10,0x800
ffffffff800077c0:	0f 87 5b 09 00 00    	ja     ffffffff80008121 <idt_init+0x9b1>
ffffffff800077c6:	49 81 c5 00 26 01 80 	add    r13,0xffffffff80012600
ffffffff800077cd:	0f 82 17 09 00 00    	jb     ffffffff800080ea <idt_init+0x97a>
ffffffff800077d3:	4c 8b 09             	mov    r9,QWORD PTR [rcx]
ffffffff800077d6:	48 81 fd 00 01 00 00 	cmp    rbp,0x100
ffffffff800077dd:	0f 83 cd 08 00 00    	jae    ffffffff800080b0 <idt_init+0x940>
ffffffff800077e3:	49 81 ff 00 10 00 00 	cmp    r15,0x1000
ffffffff800077ea:	0f 87 78 08 00 00    	ja     ffffffff80008068 <idt_init+0x8f8>
ffffffff800077f0:	4c 89 e2             	mov    rdx,r12
ffffffff800077f3:	48 81 c2 c0 30 01 80 	add    rdx,0xffffffff800130c0
ffffffff800077fa:	0f 82 2a 08 00 00    	jb     ffffffff8000802a <idt_init+0x8ba>
ffffffff80007800:	66 44 89 0b          	mov    WORD PTR [rbx],r9w
ffffffff80007804:	48 81 fd 00 01 00 00 	cmp    rbp,0x100
ffffffff8000780b:	0f 83 df 07 00 00    	jae    ffffffff80007ff0 <idt_init+0x880>
ffffffff80007811:	49 8d 47 02          	lea    rax,[r15+0x2]
ffffffff80007815:	49 8d 54 24 02       	lea    rdx,[r12+0x2]
ffffffff8000781a:	48 8d 73 02          	lea    rsi,[rbx+0x2]
ffffffff8000781e:	48 3d 00 10 00 00    	cmp    rax,0x1000
ffffffff80007824:	0f 87 76 07 00 00    	ja     ffffffff80007fa0 <idt_init+0x830>
ffffffff8000782a:	48 81 c2 c0 30 01 80 	add    rdx,0xffffffff800130c0
ffffffff80007831:	0f 82 2b 07 00 00    	jb     ffffffff80007f62 <idt_init+0x7f2>
ffffffff80007837:	ba 28 00 00 00       	mov    edx,0x28
ffffffff8000783c:	66 89 53 02          	mov    WORD PTR [rbx+0x2],dx
ffffffff80007840:	48 81 fd 00 01 00 00 	cmp    rbp,0x100
ffffffff80007847:	0f 83 db 06 00 00    	jae    ffffffff80007f28 <idt_init+0x7b8>
ffffffff8000784d:	49 8d 44 24 05       	lea    rax,[r12+0x5]
ffffffff80007852:	49 8d 54 24 04       	lea    rdx,[r12+0x4]
ffffffff80007857:	48 8d 73 04          	lea    rsi,[rbx+0x4]
ffffffff8000785b:	48 3d 00 10 00 00    	cmp    rax,0x1000
ffffffff80007861:	0f 87 65 06 00 00    	ja     ffffffff80007ecc <idt_init+0x75c>
ffffffff80007867:	48 81 c2 c0 30 01 80 	add    rdx,0xffffffff800130c0
ffffffff8000786e:	0f 82 10 06 00 00    	jb     ffffffff80007e84 <idt_init+0x714>
ffffffff80007874:	c6 43 04 00          	mov    BYTE PTR [rbx+0x4],0x0
ffffffff80007878:	48 81 fd 00 01 00 00 	cmp    rbp,0x100
ffffffff8000787f:	0f 83 bb 05 00 00    	jae    ffffffff80007e40 <idt_init+0x6d0>
ffffffff80007885:	4d 8d 74 24 06       	lea    r14,[r12+0x6]
ffffffff8000788a:	48 8d 73 05          	lea    rsi,[rbx+0x5]
ffffffff8000788e:	49 81 fe 00 10 00 00 	cmp    r14,0x1000
ffffffff80007895:	0f 87 50 05 00 00    	ja     ffffffff80007deb <idt_init+0x67b>
ffffffff8000789b:	48 05 c0 30 01 80    	add    rax,0xffffffff800130c0
ffffffff800078a1:	0f 82 03 05 00 00    	jb     ffffffff80007daa <idt_init+0x63a>
ffffffff800078a7:	c6 43 05 8e          	mov    BYTE PTR [rbx+0x5],0x8e
ffffffff800078ab:	48 81 fd 00 01 00 00 	cmp    rbp,0x100
ffffffff800078b2:	0f 83 b8 04 00 00    	jae    ffffffff80007d70 <idt_init+0x600>
ffffffff800078b8:	49 81 fa 00 08 00 00 	cmp    r10,0x800
ffffffff800078bf:	0f 87 60 04 00 00    	ja     ffffffff80007d25 <idt_init+0x5b5>
ffffffff800078c5:	49 81 fd 00 26 01 80 	cmp    r13,0xffffffff80012600
ffffffff800078cc:	0f 82 12 04 00 00    	jb     ffffffff80007ce4 <idt_init+0x574>
ffffffff800078d2:	4c 89 c8             	mov    rax,r9
ffffffff800078d5:	48 c1 e8 10          	shr    rax,0x10
ffffffff800078d9:	48 81 fd 00 01 00 00 	cmp    rbp,0x100
ffffffff800078e0:	0f 83 ba 03 00 00    	jae    ffffffff80007ca0 <idt_init+0x530>
ffffffff800078e6:	49 8d 57 06          	lea    rdx,[r15+0x6]
ffffffff800078ea:	48 8d 73 06          	lea    rsi,[rbx+0x6]
ffffffff800078ee:	48 81 fa 00 10 00 00 	cmp    rdx,0x1000
ffffffff800078f5:	0f 87 5a 03 00 00    	ja     ffffffff80007c55 <idt_init+0x4e5>
ffffffff800078fb:	49 81 c6 c0 30 01 80 	add    r14,0xffffffff800130c0
ffffffff80007902:	0f 82 02 03 00 00    	jb     ffffffff80007c0a <idt_init+0x49a>
ffffffff80007908:	66 89 43 06          	mov    WORD PTR [rbx+0x6],ax
ffffffff8000790c:	48 81 fd 00 01 00 00 	cmp    rbp,0x100
ffffffff80007913:	0f 83 b7 02 00 00    	jae    ffffffff80007bd0 <idt_init+0x460>
ffffffff80007919:	49 81 fa 00 08 00 00 	cmp    r10,0x800
ffffffff80007920:	0f 87 71 02 00 00    	ja     ffffffff80007b97 <idt_init+0x427>
ffffffff80007926:	49 81 fd 00 26 01 80 	cmp    r13,0xffffffff80012600
ffffffff8000792d:	0f 82 2d 02 00 00    	jb     ffffffff80007b60 <idt_init+0x3f0>
ffffffff80007933:	49 c1 e9 20          	shr    r9,0x20
ffffffff80007937:	48 81 fd 00 01 00 00 	cmp    rbp,0x100
ffffffff8000793e:	0f 83 ec 01 00 00    	jae    ffffffff80007b30 <idt_init+0x3c0>
ffffffff80007944:	4d 8d 6c 24 0c       	lea    r13,[r12+0xc]
ffffffff80007949:	49 8d 54 24 08       	lea    rdx,[r12+0x8]
ffffffff8000794e:	48 8d 73 08          	lea    rsi,[rbx+0x8]
ffffffff80007952:	49 81 fd 00 10 00 00 	cmp    r13,0x1000
ffffffff80007959:	0f 87 8b 01 00 00    	ja     ffffffff80007aea <idt_init+0x37a>
ffffffff8000795f:	48 81 c2 c0 30 01 80 	add    rdx,0xffffffff800130c0
ffffffff80007966:	0f 82 4a 01 00 00    	jb     ffffffff80007ab6 <idt_init+0x346>
ffffffff8000796c:	44 89 4b 08          	mov    DWORD PTR [rbx+0x8],r9d
ffffffff80007970:	48 81 fd 00 01 00 00 	cmp    rbp,0x100
ffffffff80007977:	0f 83 13 01 00 00    	jae    ffffffff80007a90 <idt_init+0x320>
ffffffff8000797d:	49 83 c4 10          	add    r12,0x10
ffffffff80007981:	48 8d 73 0c          	lea    rsi,[rbx+0xc]
ffffffff80007985:	49 81 fc 00 10 00 00 	cmp    r12,0x1000
ffffffff8000798c:	0f 87 cb 00 00 00    	ja     ffffffff80007a5d <idt_init+0x2ed>
ffffffff80007992:	49 81 c5 c0 30 01 80 	add    r13,0xffffffff800130c0
ffffffff80007999:	0f 82 91 00 00 00    	jb     ffffffff80007a30 <idt_init+0x2c0>
ffffffff8000799f:	48 83 c5 01          	add    rbp,0x1
ffffffff800079a3:	48 83 c1 08          	add    rcx,0x8
ffffffff800079a7:	48 83 c3 10          	add    rbx,0x10
ffffffff800079ab:	49 83 c7 10          	add    r15,0x10
ffffffff800079af:	c7 43 fc 00 00 00 00 	mov    DWORD PTR [rbx-0x4],0x0
ffffffff800079b6:	48 81 fd 00 01 00 00 	cmp    rbp,0x100
ffffffff800079bd:	0f 85 dd fd ff ff    	jne    ffffffff800077a0 <idt_init+0x30>
ffffffff800079c3:	48 c7 44 24 38 c0 30 	mov    QWORD PTR [rsp+0x38],0xffffffff800130c0
ffffffff800079ca:	01 80 
ffffffff800079cc:	b8 ff 0f 00 00       	mov    eax,0xfff
ffffffff800079d1:	66 89 44 24 36       	mov    WORD PTR [rsp+0x36],ax
ffffffff800079d6:	0f 01 5c 24 36       	lidt   [rsp+0x36]
ffffffff800079db:	48 83 c4 48          	add    rsp,0x48
ffffffff800079df:	48 c7 c1 58 c4 00 80 	mov    rcx,0xffffffff8000c458
ffffffff800079e6:	31 c0                	xor    eax,eax
ffffffff800079e8:	ba 2a 00 00 00       	mov    edx,0x2a
ffffffff800079ed:	5b                   	pop    rbx
ffffffff800079ee:	48 c7 c6 d0 cd 00 80 	mov    rsi,0xffffffff8000cdd0
ffffffff800079f5:	5d                   	pop    rbp
ffffffff800079f6:	48 c7 c7 62 c4 00 80 	mov    rdi,0xffffffff8000c462
ffffffff800079fd:	41 5c                	pop    r12
ffffffff800079ff:	41 5d                	pop    r13
ffffffff80007a01:	41 5e                	pop    r14
ffffffff80007a03:	41 5f                	pop    r15
ffffffff80007a05:	e9 56 ae ff ff       	jmp    ffffffff80002860 <log>
ffffffff80007a0a:	48 89 ee             	mov    rsi,rbp
ffffffff80007a0d:	48 c7 c7 a0 13 01 80 	mov    rdi,0xffffffff800113a0
ffffffff80007a14:	4c 89 44 24 08       	mov    QWORD PTR [rsp+0x8],r8
ffffffff80007a19:	48 89 0c 24          	mov    QWORD PTR [rsp],rcx
ffffffff80007a1d:	e8 5e e9 ff ff       	call   ffffffff80006380 <__ubsan_handle_out_of_bounds>
ffffffff80007a22:	4c 8b 44 24 08       	mov    r8,QWORD PTR [rsp+0x8]
ffffffff80007a27:	48 8b 0c 24          	mov    rcx,QWORD PTR [rsp]
ffffffff80007a2b:	e9 7d fd ff ff       	jmp    ffffffff800077ad <idt_init+0x3d>
ffffffff80007a30:	4c 89 ea             	mov    rdx,r13
ffffffff80007a33:	48 c7 c6 c0 30 01 80 	mov    rsi,0xffffffff800130c0
ffffffff80007a3a:	48 c7 c7 70 0f 01 80 	mov    rdi,0xffffffff80010f70
ffffffff80007a41:	4c 89 44 24 08       	mov    QWORD PTR [rsp+0x8],r8
ffffffff80007a46:	48 89 0c 24          	mov    QWORD PTR [rsp],rcx
ffffffff80007a4a:	e8 91 e8 ff ff       	call   ffffffff800062e0 <__ubsan_handle_pointer_overflow>
ffffffff80007a4f:	4c 8b 44 24 08       	mov    r8,QWORD PTR [rsp+0x8]
ffffffff80007a54:	48 8b 0c 24          	mov    rcx,QWORD PTR [rsp]
ffffffff80007a58:	e9 42 ff ff ff       	jmp    ffffffff8000799f <idt_init+0x22f>
ffffffff80007a5d:	48 89 f0             	mov    rax,rsi
ffffffff80007a60:	4c 01 e0             	add    rax,r12
ffffffff80007a63:	0f 82 29 ff ff ff    	jb     ffffffff80007992 <idt_init+0x222>
ffffffff80007a69:	48 c7 c7 80 0f 01 80 	mov    rdi,0xffffffff80010f80
ffffffff80007a70:	4c 89 44 24 08       	mov    QWORD PTR [rsp+0x8],r8
ffffffff80007a75:	48 89 0c 24          	mov    QWORD PTR [rsp],rcx
ffffffff80007a79:	e8 12 e0 ff ff       	call   ffffffff80005a90 <__ubsan_handle_type_mismatch_v1>
ffffffff80007a7e:	4c 8b 44 24 08       	mov    r8,QWORD PTR [rsp+0x8]
ffffffff80007a83:	48 8b 0c 24          	mov    rcx,QWORD PTR [rsp]
ffffffff80007a87:	e9 06 ff ff ff       	jmp    ffffffff80007992 <idt_init+0x222>
ffffffff80007a8c:	0f 1f 40 00          	nop    DWORD PTR [rax+0x0]
ffffffff80007a90:	48 89 ee             	mov    rsi,rbp
ffffffff80007a93:	48 c7 c7 a0 0f 01 80 	mov    rdi,0xffffffff80010fa0
ffffffff80007a9a:	4c 89 44 24 08       	mov    QWORD PTR [rsp+0x8],r8
ffffffff80007a9f:	48 89 0c 24          	mov    QWORD PTR [rsp],rcx
ffffffff80007aa3:	e8 d8 e8 ff ff       	call   ffffffff80006380 <__ubsan_handle_out_of_bounds>
ffffffff80007aa8:	4c 8b 44 24 08       	mov    r8,QWORD PTR [rsp+0x8]
ffffffff80007aad:	48 8b 0c 24          	mov    rcx,QWORD PTR [rsp]
ffffffff80007ab1:	e9 c7 fe ff ff       	jmp    ffffffff8000797d <idt_init+0x20d>
ffffffff80007ab6:	48 c7 c6 c0 30 01 80 	mov    rsi,0xffffffff800130c0
ffffffff80007abd:	48 c7 c7 c0 0f 01 80 	mov    rdi,0xffffffff80010fc0
ffffffff80007ac4:	4c 89 44 24 10       	mov    QWORD PTR [rsp+0x10],r8
ffffffff80007ac9:	48 89 4c 24 08       	mov    QWORD PTR [rsp+0x8],rcx
ffffffff80007ace:	4c 89 0c 24          	mov    QWORD PTR [rsp],r9
ffffffff80007ad2:	e8 09 e8 ff ff       	call   ffffffff800062e0 <__ubsan_handle_pointer_overflow>
ffffffff80007ad7:	4c 8b 44 24 10       	mov    r8,QWORD PTR [rsp+0x10]
ffffffff80007adc:	48 8b 4c 24 08       	mov    rcx,QWORD PTR [rsp+0x8]
ffffffff80007ae1:	4c 8b 0c 24          	mov    r9,QWORD PTR [rsp]
ffffffff80007ae5:	e9 82 fe ff ff       	jmp    ffffffff8000796c <idt_init+0x1fc>
ffffffff80007aea:	48 89 f0             	mov    rax,rsi
ffffffff80007aed:	4c 01 e8             	add    rax,r13
ffffffff80007af0:	0f 82 69 fe ff ff    	jb     ffffffff8000795f <idt_init+0x1ef>
ffffffff80007af6:	48 c7 c7 e0 0f 01 80 	mov    rdi,0xffffffff80010fe0
ffffffff80007afd:	4c 89 44 24 18       	mov    QWORD PTR [rsp+0x18],r8
ffffffff80007b02:	48 89 4c 24 10       	mov    QWORD PTR [rsp+0x10],rcx
ffffffff80007b07:	48 89 54 24 08       	mov    QWORD PTR [rsp+0x8],rdx
ffffffff80007b0c:	4c 89 0c 24          	mov    QWORD PTR [rsp],r9
ffffffff80007b10:	e8 7b df ff ff       	call   ffffffff80005a90 <__ubsan_handle_type_mismatch_v1>
ffffffff80007b15:	4c 8b 44 24 18       	mov    r8,QWORD PTR [rsp+0x18]
ffffffff80007b1a:	48 8b 4c 24 10       	mov    rcx,QWORD PTR [rsp+0x10]
ffffffff80007b1f:	48 8b 54 24 08       	mov    rdx,QWORD PTR [rsp+0x8]
ffffffff80007b24:	4c 8b 0c 24          	mov    r9,QWORD PTR [rsp]
ffffffff80007b28:	e9 32 fe ff ff       	jmp    ffffffff8000795f <idt_init+0x1ef>
ffffffff80007b2d:	0f 1f 00             	nop    DWORD PTR [rax]
ffffffff80007b30:	48 89 ee             	mov    rsi,rbp
ffffffff80007b33:	48 c7 c7 20 10 01 80 	mov    rdi,0xffffffff80011020
ffffffff80007b3a:	4c 89 44 24 10       	mov    QWORD PTR [rsp+0x10],r8
ffffffff80007b3f:	48 89 4c 24 08       	mov    QWORD PTR [rsp+0x8],rcx
ffffffff80007b44:	4c 89 0c 24          	mov    QWORD PTR [rsp],r9
ffffffff80007b48:	e8 33 e8 ff ff       	call   ffffffff80006380 <__ubsan_handle_out_of_bounds>
ffffffff80007b4d:	4c 8b 44 24 10       	mov    r8,QWORD PTR [rsp+0x10]
ffffffff80007b52:	48 8b 4c 24 08       	mov    rcx,QWORD PTR [rsp+0x8]
ffffffff80007b57:	4c 8b 0c 24          	mov    r9,QWORD PTR [rsp]
ffffffff80007b5b:	e9 e4 fd ff ff       	jmp    ffffffff80007944 <idt_init+0x1d4>
ffffffff80007b60:	4c 89 ea             	mov    rdx,r13
ffffffff80007b63:	48 c7 c6 00 26 01 80 	mov    rsi,0xffffffff80012600
ffffffff80007b6a:	4c 89 44 24 10       	mov    QWORD PTR [rsp+0x10],r8
ffffffff80007b6f:	48 c7 c7 40 10 01 80 	mov    rdi,0xffffffff80011040
ffffffff80007b76:	48 89 4c 24 08       	mov    QWORD PTR [rsp+0x8],rcx
ffffffff80007b7b:	4c 89 0c 24          	mov    QWORD PTR [rsp],r9
ffffffff80007b7f:	e8 5c e7 ff ff       	call   ffffffff800062e0 <__ubsan_handle_pointer_overflow>
ffffffff80007b84:	4c 8b 44 24 10       	mov    r8,QWORD PTR [rsp+0x10]
ffffffff80007b89:	48 8b 4c 24 08       	mov    rcx,QWORD PTR [rsp+0x8]
ffffffff80007b8e:	4c 8b 0c 24          	mov    r9,QWORD PTR [rsp]
ffffffff80007b92:	e9 9c fd ff ff       	jmp    ffffffff80007933 <idt_init+0x1c3>
ffffffff80007b97:	49 01 ca             	add    r10,rcx
ffffffff80007b9a:	0f 82 86 fd ff ff    	jb     ffffffff80007926 <idt_init+0x1b6>
ffffffff80007ba0:	48 89 ce             	mov    rsi,rcx
ffffffff80007ba3:	48 c7 c7 60 10 01 80 	mov    rdi,0xffffffff80011060
ffffffff80007baa:	4c 89 44 24 10       	mov    QWORD PTR [rsp+0x10],r8
ffffffff80007baf:	4c 89 4c 24 08       	mov    QWORD PTR [rsp+0x8],r9
ffffffff80007bb4:	48 89 0c 24          	mov    QWORD PTR [rsp],rcx
ffffffff80007bb8:	e8 d3 de ff ff       	call   ffffffff80005a90 <__ubsan_handle_type_mismatch_v1>
ffffffff80007bbd:	4c 8b 44 24 10       	mov    r8,QWORD PTR [rsp+0x10]
ffffffff80007bc2:	4c 8b 4c 24 08       	mov    r9,QWORD PTR [rsp+0x8]
ffffffff80007bc7:	48 8b 0c 24          	mov    rcx,QWORD PTR [rsp]
ffffffff80007bcb:	e9 56 fd ff ff       	jmp    ffffffff80007926 <idt_init+0x1b6>
ffffffff80007bd0:	48 89 ee             	mov    rsi,rbp
ffffffff80007bd3:	48 c7 c7 80 10 01 80 	mov    rdi,0xffffffff80011080
ffffffff80007bda:	4c 89 44 24 18       	mov    QWORD PTR [rsp+0x18],r8
ffffffff80007bdf:	48 89 4c 24 10       	mov    QWORD PTR [rsp+0x10],rcx
ffffffff80007be4:	4c 89 54 24 08       	mov    QWORD PTR [rsp+0x8],r10
ffffffff80007be9:	4c 89 0c 24          	mov    QWORD PTR [rsp],r9
ffffffff80007bed:	e8 8e e7 ff ff       	call   ffffffff80006380 <__ubsan_handle_out_of_bounds>
ffffffff80007bf2:	4c 8b 44 24 18       	mov    r8,QWORD PTR [rsp+0x18]
ffffffff80007bf7:	48 8b 4c 24 10       	mov    rcx,QWORD PTR [rsp+0x10]
ffffffff80007bfc:	4c 8b 54 24 08       	mov    r10,QWORD PTR [rsp+0x8]
ffffffff80007c01:	4c 8b 0c 24          	mov    r9,QWORD PTR [rsp]
ffffffff80007c05:	e9 0f fd ff ff       	jmp    ffffffff80007919 <idt_init+0x1a9>
ffffffff80007c0a:	4c 89 f2             	mov    rdx,r14
ffffffff80007c0d:	48 c7 c6 c0 30 01 80 	mov    rsi,0xffffffff800130c0
ffffffff80007c14:	4c 89 44 24 20       	mov    QWORD PTR [rsp+0x20],r8
ffffffff80007c19:	48 c7 c7 a0 10 01 80 	mov    rdi,0xffffffff800110a0
ffffffff80007c20:	48 89 4c 24 18       	mov    QWORD PTR [rsp+0x18],rcx
ffffffff80007c25:	4c 89 54 24 10       	mov    QWORD PTR [rsp+0x10],r10
ffffffff80007c2a:	48 89 44 24 08       	mov    QWORD PTR [rsp+0x8],rax
ffffffff80007c2f:	4c 89 0c 24          	mov    QWORD PTR [rsp],r9
ffffffff80007c33:	e8 a8 e6 ff ff       	call   ffffffff800062e0 <__ubsan_handle_pointer_overflow>
ffffffff80007c38:	4c 8b 44 24 20       	mov    r8,QWORD PTR [rsp+0x20]
ffffffff80007c3d:	48 8b 4c 24 18       	mov    rcx,QWORD PTR [rsp+0x18]
ffffffff80007c42:	4c 8b 54 24 10       	mov    r10,QWORD PTR [rsp+0x10]
ffffffff80007c47:	48 8b 44 24 08       	mov    rax,QWORD PTR [rsp+0x8]
ffffffff80007c4c:	4c 8b 0c 24          	mov    r9,QWORD PTR [rsp]
ffffffff80007c50:	e9 b3 fc ff ff       	jmp    ffffffff80007908 <idt_init+0x198>
ffffffff80007c55:	48 01 f2             	add    rdx,rsi
ffffffff80007c58:	0f 82 9d fc ff ff    	jb     ffffffff800078fb <idt_init+0x18b>
ffffffff80007c5e:	48 c7 c7 c0 10 01 80 	mov    rdi,0xffffffff800110c0
ffffffff80007c65:	4c 89 44 24 20       	mov    QWORD PTR [rsp+0x20],r8
ffffffff80007c6a:	48 89 4c 24 18       	mov    QWORD PTR [rsp+0x18],rcx
ffffffff80007c6f:	4c 89 54 24 10       	mov    QWORD PTR [rsp+0x10],r10
ffffffff80007c74:	48 89 44 24 08       	mov    QWORD PTR [rsp+0x8],rax
ffffffff80007c79:	4c 89 0c 24          	mov    QWORD PTR [rsp],r9
ffffffff80007c7d:	e8 0e de ff ff       	call   ffffffff80005a90 <__ubsan_handle_type_mismatch_v1>
ffffffff80007c82:	4c 8b 44 24 20       	mov    r8,QWORD PTR [rsp+0x20]
ffffffff80007c87:	48 8b 4c 24 18       	mov    rcx,QWORD PTR [rsp+0x18]
ffffffff80007c8c:	4c 8b 54 24 10       	mov    r10,QWORD PTR [rsp+0x10]
ffffffff80007c91:	48 8b 44 24 08       	mov    rax,QWORD PTR [rsp+0x8]
ffffffff80007c96:	4c 8b 0c 24          	mov    r9,QWORD PTR [rsp]
ffffffff80007c9a:	e9 5c fc ff ff       	jmp    ffffffff800078fb <idt_init+0x18b>
ffffffff80007c9f:	90                   	nop
ffffffff80007ca0:	48 89 ee             	mov    rsi,rbp
ffffffff80007ca3:	48 c7 c7 e0 10 01 80 	mov    rdi,0xffffffff800110e0
ffffffff80007caa:	4c 89 44 24 20       	mov    QWORD PTR [rsp+0x20],r8
ffffffff80007caf:	48 89 4c 24 18       	mov    QWORD PTR [rsp+0x18],rcx
ffffffff80007cb4:	4c 89 54 24 10       	mov    QWORD PTR [rsp+0x10],r10
ffffffff80007cb9:	48 89 44 24 08       	mov    QWORD PTR [rsp+0x8],rax
ffffffff80007cbe:	4c 89 0c 24          	mov    QWORD PTR [rsp],r9
ffffffff80007cc2:	e8 b9 e6 ff ff       	call   ffffffff80006380 <__ubsan_handle_out_of_bounds>
ffffffff80007cc7:	4c 8b 44 24 20       	mov    r8,QWORD PTR [rsp+0x20]
ffffffff80007ccc:	48 8b 4c 24 18       	mov    rcx,QWORD PTR [rsp+0x18]
ffffffff80007cd1:	4c 8b 54 24 10       	mov    r10,QWORD PTR [rsp+0x10]
ffffffff80007cd6:	48 8b 44 24 08       	mov    rax,QWORD PTR [rsp+0x8]
ffffffff80007cdb:	4c 8b 0c 24          	mov    r9,QWORD PTR [rsp]
ffffffff80007cdf:	e9 02 fc ff ff       	jmp    ffffffff800078e6 <idt_init+0x176>
ffffffff80007ce4:	4c 89 ea             	mov    rdx,r13
ffffffff80007ce7:	48 c7 c6 00 26 01 80 	mov    rsi,0xffffffff80012600
ffffffff80007cee:	4c 89 44 24 18       	mov    QWORD PTR [rsp+0x18],r8
ffffffff80007cf3:	48 c7 c7 00 11 01 80 	mov    rdi,0xffffffff80011100
ffffffff80007cfa:	48 89 4c 24 10       	mov    QWORD PTR [rsp+0x10],rcx
ffffffff80007cff:	4c 89 54 24 08       	mov    QWORD PTR [rsp+0x8],r10
ffffffff80007d04:	4c 89 0c 24          	mov    QWORD PTR [rsp],r9
ffffffff80007d08:	e8 d3 e5 ff ff       	call   ffffffff800062e0 <__ubsan_handle_pointer_overflow>
ffffffff80007d0d:	4c 8b 44 24 18       	mov    r8,QWORD PTR [rsp+0x18]
ffffffff80007d12:	48 8b 4c 24 10       	mov    rcx,QWORD PTR [rsp+0x10]
ffffffff80007d17:	4c 8b 54 24 08       	mov    r10,QWORD PTR [rsp+0x8]
ffffffff80007d1c:	4c 8b 0c 24          	mov    r9,QWORD PTR [rsp]
ffffffff80007d20:	e9 ad fb ff ff       	jmp    ffffffff800078d2 <idt_init+0x162>
ffffffff80007d25:	48 89 c8             	mov    rax,rcx
ffffffff80007d28:	4c 01 d0             	add    rax,r10
ffffffff80007d2b:	0f 82 94 fb ff ff    	jb     ffffffff800078c5 <idt_init+0x155>
ffffffff80007d31:	48 89 ce             	mov    rsi,rcx
ffffffff80007d34:	48 c7 c7 20 11 01 80 	mov    rdi,0xffffffff80011120
ffffffff80007d3b:	4c 89 44 24 18       	mov    QWORD PTR [rsp+0x18],r8
ffffffff80007d40:	4c 89 54 24 10       	mov    QWORD PTR [rsp+0x10],r10
ffffffff80007d45:	4c 89 4c 24 08       	mov    QWORD PTR [rsp+0x8],r9
ffffffff80007d4a:	48 89 0c 24          	mov    QWORD PTR [rsp],rcx
ffffffff80007d4e:	e8 3d dd ff ff       	call   ffffffff80005a90 <__ubsan_handle_type_mismatch_v1>
ffffffff80007d53:	4c 8b 44 24 18       	mov    r8,QWORD PTR [rsp+0x18]
ffffffff80007d58:	4c 8b 54 24 10       	mov    r10,QWORD PTR [rsp+0x10]
ffffffff80007d5d:	4c 8b 4c 24 08       	mov    r9,QWORD PTR [rsp+0x8]
ffffffff80007d62:	48 8b 0c 24          	mov    rcx,QWORD PTR [rsp]
ffffffff80007d66:	e9 5a fb ff ff       	jmp    ffffffff800078c5 <idt_init+0x155>
ffffffff80007d6b:	0f 1f 44 00 00       	nop    DWORD PTR [rax+rax*1+0x0]
ffffffff80007d70:	48 89 ee             	mov    rsi,rbp
ffffffff80007d73:	48 c7 c7 40 11 01 80 	mov    rdi,0xffffffff80011140
ffffffff80007d7a:	4c 89 44 24 18       	mov    QWORD PTR [rsp+0x18],r8
ffffffff80007d7f:	48 89 4c 24 10       	mov    QWORD PTR [rsp+0x10],rcx
ffffffff80007d84:	4c 89 54 24 08       	mov    QWORD PTR [rsp+0x8],r10
ffffffff80007d89:	4c 89 0c 24          	mov    QWORD PTR [rsp],r9
ffffffff80007d8d:	e8 ee e5 ff ff       	call   ffffffff80006380 <__ubsan_handle_out_of_bounds>
ffffffff80007d92:	4c 8b 44 24 18       	mov    r8,QWORD PTR [rsp+0x18]
ffffffff80007d97:	48 8b 4c 24 10       	mov    rcx,QWORD PTR [rsp+0x10]
ffffffff80007d9c:	4c 8b 54 24 08       	mov    r10,QWORD PTR [rsp+0x8]
ffffffff80007da1:	4c 8b 0c 24          	mov    r9,QWORD PTR [rsp]
ffffffff80007da5:	e9 0e fb ff ff       	jmp    ffffffff800078b8 <idt_init+0x148>
ffffffff80007daa:	48 89 c2             	mov    rdx,rax
ffffffff80007dad:	48 c7 c6 c0 30 01 80 	mov    rsi,0xffffffff800130c0
ffffffff80007db4:	4c 89 44 24 18       	mov    QWORD PTR [rsp+0x18],r8
ffffffff80007db9:	48 c7 c7 60 11 01 80 	mov    rdi,0xffffffff80011160
ffffffff80007dc0:	48 89 4c 24 10       	mov    QWORD PTR [rsp+0x10],rcx
ffffffff80007dc5:	4c 89 54 24 08       	mov    QWORD PTR [rsp+0x8],r10
ffffffff80007dca:	4c 89 0c 24          	mov    QWORD PTR [rsp],r9
ffffffff80007dce:	e8 0d e5 ff ff       	call   ffffffff800062e0 <__ubsan_handle_pointer_overflow>
ffffffff80007dd3:	4c 8b 44 24 18       	mov    r8,QWORD PTR [rsp+0x18]
ffffffff80007dd8:	48 8b 4c 24 10       	mov    rcx,QWORD PTR [rsp+0x10]
ffffffff80007ddd:	4c 8b 54 24 08       	mov    r10,QWORD PTR [rsp+0x8]
ffffffff80007de2:	4c 8b 0c 24          	mov    r9,QWORD PTR [rsp]
ffffffff80007de6:	e9 bc fa ff ff       	jmp    ffffffff800078a7 <idt_init+0x137>
ffffffff80007deb:	48 89 f7             	mov    rdi,rsi
ffffffff80007dee:	4c 01 f7             	add    rdi,r14
ffffffff80007df1:	0f 82 a4 fa ff ff    	jb     ffffffff8000789b <idt_init+0x12b>
ffffffff80007df7:	48 c7 c7 80 11 01 80 	mov    rdi,0xffffffff80011180
ffffffff80007dfe:	4c 89 44 24 20       	mov    QWORD PTR [rsp+0x20],r8
ffffffff80007e03:	48 89 4c 24 18       	mov    QWORD PTR [rsp+0x18],rcx
ffffffff80007e08:	48 89 44 24 10       	mov    QWORD PTR [rsp+0x10],rax
ffffffff80007e0d:	4c 89 54 24 08       	mov    QWORD PTR [rsp+0x8],r10
ffffffff80007e12:	4c 89 0c 24          	mov    QWORD PTR [rsp],r9
ffffffff80007e16:	e8 75 dc ff ff       	call   ffffffff80005a90 <__ubsan_handle_type_mismatch_v1>
ffffffff80007e1b:	4c 8b 44 24 20       	mov    r8,QWORD PTR [rsp+0x20]
ffffffff80007e20:	48 8b 4c 24 18       	mov    rcx,QWORD PTR [rsp+0x18]
ffffffff80007e25:	48 8b 44 24 10       	mov    rax,QWORD PTR [rsp+0x10]
ffffffff80007e2a:	4c 8b 54 24 08       	mov    r10,QWORD PTR [rsp+0x8]
ffffffff80007e2f:	4c 8b 0c 24          	mov    r9,QWORD PTR [rsp]
ffffffff80007e33:	e9 63 fa ff ff       	jmp    ffffffff8000789b <idt_init+0x12b>
ffffffff80007e38:	0f 1f 84 00 00 00 00 	nop    DWORD PTR [rax+rax*1+0x0]
ffffffff80007e3f:	00 
ffffffff80007e40:	48 89 ee             	mov    rsi,rbp
ffffffff80007e43:	48 c7 c7 a0 11 01 80 	mov    rdi,0xffffffff800111a0
ffffffff80007e4a:	4c 89 44 24 20       	mov    QWORD PTR [rsp+0x20],r8
ffffffff80007e4f:	48 89 4c 24 18       	mov    QWORD PTR [rsp+0x18],rcx
ffffffff80007e54:	48 89 44 24 10       	mov    QWORD PTR [rsp+0x10],rax
ffffffff80007e59:	4c 89 54 24 08       	mov    QWORD PTR [rsp+0x8],r10
ffffffff80007e5e:	4c 89 0c 24          	mov    QWORD PTR [rsp],r9
ffffffff80007e62:	e8 19 e5 ff ff       	call   ffffffff80006380 <__ubsan_handle_out_of_bounds>
ffffffff80007e67:	4c 8b 44 24 20       	mov    r8,QWORD PTR [rsp+0x20]
ffffffff80007e6c:	48 8b 4c 24 18       	mov    rcx,QWORD PTR [rsp+0x18]
ffffffff80007e71:	48 8b 44 24 10       	mov    rax,QWORD PTR [rsp+0x10]
ffffffff80007e76:	4c 8b 54 24 08       	mov    r10,QWORD PTR [rsp+0x8]
ffffffff80007e7b:	4c 8b 0c 24          	mov    r9,QWORD PTR [rsp]
ffffffff80007e7f:	e9 01 fa ff ff       	jmp    ffffffff80007885 <idt_init+0x115>
ffffffff80007e84:	48 c7 c6 c0 30 01 80 	mov    rsi,0xffffffff800130c0
ffffffff80007e8b:	48 c7 c7 c0 11 01 80 	mov    rdi,0xffffffff800111c0
ffffffff80007e92:	4c 89 44 24 20       	mov    QWORD PTR [rsp+0x20],r8
ffffffff80007e97:	48 89 4c 24 18       	mov    QWORD PTR [rsp+0x18],rcx
ffffffff80007e9c:	48 89 44 24 10       	mov    QWORD PTR [rsp+0x10],rax
ffffffff80007ea1:	4c 89 54 24 08       	mov    QWORD PTR [rsp+0x8],r10
ffffffff80007ea6:	4c 89 0c 24          	mov    QWORD PTR [rsp],r9
ffffffff80007eaa:	e8 31 e4 ff ff       	call   ffffffff800062e0 <__ubsan_handle_pointer_overflow>
ffffffff80007eaf:	4c 8b 44 24 20       	mov    r8,QWORD PTR [rsp+0x20]
ffffffff80007eb4:	48 8b 4c 24 18       	mov    rcx,QWORD PTR [rsp+0x18]
ffffffff80007eb9:	48 8b 44 24 10       	mov    rax,QWORD PTR [rsp+0x10]
ffffffff80007ebe:	4c 8b 54 24 08       	mov    r10,QWORD PTR [rsp+0x8]
ffffffff80007ec3:	4c 8b 0c 24          	mov    r9,QWORD PTR [rsp]
ffffffff80007ec7:	e9 a8 f9 ff ff       	jmp    ffffffff80007874 <idt_init+0x104>
ffffffff80007ecc:	48 89 f7             	mov    rdi,rsi
ffffffff80007ecf:	48 01 c7             	add    rdi,rax
ffffffff80007ed2:	0f 82 8f f9 ff ff    	jb     ffffffff80007867 <idt_init+0xf7>
ffffffff80007ed8:	48 c7 c7 e0 11 01 80 	mov    rdi,0xffffffff800111e0
ffffffff80007edf:	4c 89 44 24 28       	mov    QWORD PTR [rsp+0x28],r8
ffffffff80007ee4:	48 89 4c 24 20       	mov    QWORD PTR [rsp+0x20],rcx
ffffffff80007ee9:	48 89 54 24 18       	mov    QWORD PTR [rsp+0x18],rdx
ffffffff80007eee:	48 89 44 24 10       	mov    QWORD PTR [rsp+0x10],rax
ffffffff80007ef3:	4c 89 54 24 08       	mov    QWORD PTR [rsp+0x8],r10
ffffffff80007ef8:	4c 89 0c 24          	mov    QWORD PTR [rsp],r9
ffffffff80007efc:	e8 8f db ff ff       	call   ffffffff80005a90 <__ubsan_handle_type_mismatch_v1>
ffffffff80007f01:	4c 8b 44 24 28       	mov    r8,QWORD PTR [rsp+0x28]
ffffffff80007f06:	48 8b 4c 24 20       	mov    rcx,QWORD PTR [rsp+0x20]
ffffffff80007f0b:	48 8b 54 24 18       	mov    rdx,QWORD PTR [rsp+0x18]
ffffffff80007f10:	48 8b 44 24 10       	mov    rax,QWORD PTR [rsp+0x10]
ffffffff80007f15:	4c 8b 54 24 08       	mov    r10,QWORD PTR [rsp+0x8]
ffffffff80007f1a:	4c 8b 0c 24          	mov    r9,QWORD PTR [rsp]
ffffffff80007f1e:	e9 44 f9 ff ff       	jmp    ffffffff80007867 <idt_init+0xf7>
ffffffff80007f23:	0f 1f 44 00 00       	nop    DWORD PTR [rax+rax*1+0x0]
ffffffff80007f28:	48 89 ee             	mov    rsi,rbp
ffffffff80007f2b:	48 c7 c7 20 12 01 80 	mov    rdi,0xffffffff80011220
ffffffff80007f32:	4c 89 44 24 18       	mov    QWORD PTR [rsp+0x18],r8
ffffffff80007f37:	48 89 4c 24 10       	mov    QWORD PTR [rsp+0x10],rcx
ffffffff80007f3c:	4c 89 54 24 08       	mov    QWORD PTR [rsp+0x8],r10
ffffffff80007f41:	4c 89 0c 24          	mov    QWORD PTR [rsp],r9
ffffffff80007f45:	e8 36 e4 ff ff       	call   ffffffff80006380 <__ubsan_handle_out_of_bounds>
ffffffff80007f4a:	4c 8b 44 24 18       	mov    r8,QWORD PTR [rsp+0x18]
ffffffff80007f4f:	48 8b 4c 24 10       	mov    rcx,QWORD PTR [rsp+0x10]
ffffffff80007f54:	4c 8b 54 24 08       	mov    r10,QWORD PTR [rsp+0x8]
ffffffff80007f59:	4c 8b 0c 24          	mov    r9,QWORD PTR [rsp]
ffffffff80007f5d:	e9 eb f8 ff ff       	jmp    ffffffff8000784d <idt_init+0xdd>
ffffffff80007f62:	48 c7 c6 c0 30 01 80 	mov    rsi,0xffffffff800130c0
ffffffff80007f69:	48 c7 c7 40 12 01 80 	mov    rdi,0xffffffff80011240
ffffffff80007f70:	4c 89 44 24 18       	mov    QWORD PTR [rsp+0x18],r8
ffffffff80007f75:	48 89 4c 24 10       	mov    QWORD PTR [rsp+0x10],rcx
ffffffff80007f7a:	4c 89 54 24 08       	mov    QWORD PTR [rsp+0x8],r10
ffffffff80007f7f:	4c 89 0c 24          	mov    QWORD PTR [rsp],r9
ffffffff80007f83:	e8 58 e3 ff ff       	call   ffffffff800062e0 <__ubsan_handle_pointer_overflow>
ffffffff80007f88:	4c 8b 44 24 18       	mov    r8,QWORD PTR [rsp+0x18]
ffffffff80007f8d:	48 8b 4c 24 10       	mov    rcx,QWORD PTR [rsp+0x10]
ffffffff80007f92:	4c 8b 54 24 08       	mov    r10,QWORD PTR [rsp+0x8]
ffffffff80007f97:	4c 8b 0c 24          	mov    r9,QWORD PTR [rsp]
ffffffff80007f9b:	e9 97 f8 ff ff       	jmp    ffffffff80007837 <idt_init+0xc7>
ffffffff80007fa0:	48 01 f0             	add    rax,rsi
ffffffff80007fa3:	0f 82 81 f8 ff ff    	jb     ffffffff8000782a <idt_init+0xba>
ffffffff80007fa9:	48 c7 c7 60 12 01 80 	mov    rdi,0xffffffff80011260
ffffffff80007fb0:	4c 89 44 24 20       	mov    QWORD PTR [rsp+0x20],r8
ffffffff80007fb5:	48 89 4c 24 18       	mov    QWORD PTR [rsp+0x18],rcx
ffffffff80007fba:	4c 89 54 24 10       	mov    QWORD PTR [rsp+0x10],r10
ffffffff80007fbf:	48 89 54 24 08       	mov    QWORD PTR [rsp+0x8],rdx
ffffffff80007fc4:	4c 89 0c 24          	mov    QWORD PTR [rsp],r9
ffffffff80007fc8:	e8 c3 da ff ff       	call   ffffffff80005a90 <__ubsan_handle_type_mismatch_v1>
ffffffff80007fcd:	4c 8b 44 24 20       	mov    r8,QWORD PTR [rsp+0x20]
ffffffff80007fd2:	48 8b 4c 24 18       	mov    rcx,QWORD PTR [rsp+0x18]
ffffffff80007fd7:	4c 8b 54 24 10       	mov    r10,QWORD PTR [rsp+0x10]
ffffffff80007fdc:	48 8b 54 24 08       	mov    rdx,QWORD PTR [rsp+0x8]
ffffffff80007fe1:	4c 8b 0c 24          	mov    r9,QWORD PTR [rsp]
ffffffff80007fe5:	e9 40 f8 ff ff       	jmp    ffffffff8000782a <idt_init+0xba>
ffffffff80007fea:	66 0f 1f 44 00 00    	nop    WORD PTR [rax+rax*1+0x0]
ffffffff80007ff0:	48 89 ee             	mov    rsi,rbp
ffffffff80007ff3:	48 c7 c7 80 12 01 80 	mov    rdi,0xffffffff80011280
ffffffff80007ffa:	4c 89 44 24 18       	mov    QWORD PTR [rsp+0x18],r8
ffffffff80007fff:	48 89 4c 24 10       	mov    QWORD PTR [rsp+0x10],rcx
ffffffff80008004:	4c 89 54 24 08       	mov    QWORD PTR [rsp+0x8],r10
ffffffff80008009:	4c 89 0c 24          	mov    QWORD PTR [rsp],r9
ffffffff8000800d:	e8 6e e3 ff ff       	call   ffffffff80006380 <__ubsan_handle_out_of_bounds>
ffffffff80008012:	4c 8b 44 24 18       	mov    r8,QWORD PTR [rsp+0x18]
ffffffff80008017:	48 8b 4c 24 10       	mov    rcx,QWORD PTR [rsp+0x10]
ffffffff8000801c:	4c 8b 54 24 08       	mov    r10,QWORD PTR [rsp+0x8]
ffffffff80008021:	4c 8b 0c 24          	mov    r9,QWORD PTR [rsp]
ffffffff80008025:	e9 e7 f7 ff ff       	jmp    ffffffff80007811 <idt_init+0xa1>
ffffffff8000802a:	48 c7 c6 c0 30 01 80 	mov    rsi,0xffffffff800130c0
ffffffff80008031:	48 c7 c7 a0 12 01 80 	mov    rdi,0xffffffff800112a0
ffffffff80008038:	4c 89 44 24 18       	mov    QWORD PTR [rsp+0x18],r8
ffffffff8000803d:	48 89 4c 24 10       	mov    QWORD PTR [rsp+0x10],rcx
ffffffff80008042:	4c 89 54 24 08       	mov    QWORD PTR [rsp+0x8],r10
ffffffff80008047:	4c 89 0c 24          	mov    QWORD PTR [rsp],r9
ffffffff8000804b:	e8 90 e2 ff ff       	call   ffffffff800062e0 <__ubsan_handle_pointer_overflow>
ffffffff80008050:	4c 8b 44 24 18       	mov    r8,QWORD PTR [rsp+0x18]
ffffffff80008055:	48 8b 4c 24 10       	mov    rcx,QWORD PTR [rsp+0x10]
ffffffff8000805a:	4c 8b 54 24 08       	mov    r10,QWORD PTR [rsp+0x8]
ffffffff8000805f:	4c 8b 0c 24          	mov    r9,QWORD PTR [rsp]
ffffffff80008063:	e9 98 f7 ff ff       	jmp    ffffffff80007800 <idt_init+0x90>
ffffffff80008068:	48 89 d8             	mov    rax,rbx
ffffffff8000806b:	4c 01 f8             	add    rax,r15
ffffffff8000806e:	0f 82 7c f7 ff ff    	jb     ffffffff800077f0 <idt_init+0x80>
ffffffff80008074:	48 89 de             	mov    rsi,rbx
ffffffff80008077:	48 c7 c7 c0 12 01 80 	mov    rdi,0xffffffff800112c0
ffffffff8000807e:	4c 89 44 24 18       	mov    QWORD PTR [rsp+0x18],r8
ffffffff80008083:	48 89 4c 24 10       	mov    QWORD PTR [rsp+0x10],rcx
ffffffff80008088:	4c 89 54 24 08       	mov    QWORD PTR [rsp+0x8],r10
ffffffff8000808d:	4c 89 0c 24          	mov    QWORD PTR [rsp],r9
ffffffff80008091:	e8 fa d9 ff ff       	call   ffffffff80005a90 <__ubsan_handle_type_mismatch_v1>
ffffffff80008096:	4c 8b 44 24 18       	mov    r8,QWORD PTR [rsp+0x18]
ffffffff8000809b:	48 8b 4c 24 10       	mov    rcx,QWORD PTR [rsp+0x10]
ffffffff800080a0:	4c 8b 54 24 08       	mov    r10,QWORD PTR [rsp+0x8]
ffffffff800080a5:	4c 8b 0c 24          	mov    r9,QWORD PTR [rsp]
ffffffff800080a9:	e9 42 f7 ff ff       	jmp    ffffffff800077f0 <idt_init+0x80>
ffffffff800080ae:	66 90                	xchg   ax,ax
ffffffff800080b0:	48 89 ee             	mov    rsi,rbp
ffffffff800080b3:	48 c7 c7 00 13 01 80 	mov    rdi,0xffffffff80011300
ffffffff800080ba:	4c 89 44 24 18       	mov    QWORD PTR [rsp+0x18],r8
ffffffff800080bf:	48 89 4c 24 10       	mov    QWORD PTR [rsp+0x10],rcx
ffffffff800080c4:	4c 89 54 24 08       	mov    QWORD PTR [rsp+0x8],r10
ffffffff800080c9:	4c 89 0c 24          	mov    QWORD PTR [rsp],r9
ffffffff800080cd:	e8 ae e2 ff ff       	call   ffffffff80006380 <__ubsan_handle_out_of_bounds>
ffffffff800080d2:	4c 8b 44 24 18       	mov    r8,QWORD PTR [rsp+0x18]
ffffffff800080d7:	48 8b 4c 24 10       	mov    rcx,QWORD PTR [rsp+0x10]
ffffffff800080dc:	4c 8b 54 24 08       	mov    r10,QWORD PTR [rsp+0x8]
ffffffff800080e1:	4c 8b 0c 24          	mov    r9,QWORD PTR [rsp]
ffffffff800080e5:	e9 f9 f6 ff ff       	jmp    ffffffff800077e3 <idt_init+0x73>
ffffffff800080ea:	4c 89 ea             	mov    rdx,r13
ffffffff800080ed:	48 c7 c6 00 26 01 80 	mov    rsi,0xffffffff80012600
ffffffff800080f4:	4c 89 44 24 10       	mov    QWORD PTR [rsp+0x10],r8
ffffffff800080f9:	48 c7 c7 40 13 01 80 	mov    rdi,0xffffffff80011340
ffffffff80008100:	48 89 4c 24 08       	mov    QWORD PTR [rsp+0x8],rcx
ffffffff80008105:	4c 89 14 24          	mov    QWORD PTR [rsp],r10
ffffffff80008109:	e8 d2 e1 ff ff       	call   ffffffff800062e0 <__ubsan_handle_pointer_overflow>
ffffffff8000810e:	4c 8b 44 24 10       	mov    r8,QWORD PTR [rsp+0x10]
ffffffff80008113:	48 8b 4c 24 08       	mov    rcx,QWORD PTR [rsp+0x8]
ffffffff80008118:	4c 8b 14 24          	mov    r10,QWORD PTR [rsp]
ffffffff8000811c:	e9 b2 f6 ff ff       	jmp    ffffffff800077d3 <idt_init+0x63>
ffffffff80008121:	48 89 c8             	mov    rax,rcx
ffffffff80008124:	4c 01 d0             	add    rax,r10
ffffffff80008127:	0f 82 99 f6 ff ff    	jb     ffffffff800077c6 <idt_init+0x56>
ffffffff8000812d:	48 89 ce             	mov    rsi,rcx
ffffffff80008130:	48 c7 c7 60 13 01 80 	mov    rdi,0xffffffff80011360
ffffffff80008137:	4c 89 44 24 10       	mov    QWORD PTR [rsp+0x10],r8
ffffffff8000813c:	4c 89 54 24 08       	mov    QWORD PTR [rsp+0x8],r10
ffffffff80008141:	48 89 0c 24          	mov    QWORD PTR [rsp],rcx
ffffffff80008145:	e8 46 d9 ff ff       	call   ffffffff80005a90 <__ubsan_handle_type_mismatch_v1>
ffffffff8000814a:	4c 8b 44 24 10       	mov    r8,QWORD PTR [rsp+0x10]
ffffffff8000814f:	4c 8b 54 24 08       	mov    r10,QWORD PTR [rsp+0x8]
ffffffff80008154:	48 8b 0c 24          	mov    rcx,QWORD PTR [rsp]
ffffffff80008158:	e9 69 f6 ff ff       	jmp    ffffffff800077c6 <idt_init+0x56>
ffffffff8000815d:	0f 1f 00             	nop    DWORD PTR [rax]

ffffffff80008160 <irq_init>:
ffffffff80008160:	48 c7 c1 70 c4 00 80 	mov    rcx,0xffffffff8000c470
ffffffff80008167:	ba 09 00 00 00       	mov    edx,0x9
ffffffff8000816c:	48 c7 c6 f8 cd 00 80 	mov    rsi,0xffffffff8000cdf8
ffffffff80008173:	31 c0                	xor    eax,eax
ffffffff80008175:	48 c7 c7 81 c4 00 80 	mov    rdi,0xffffffff8000c481
ffffffff8000817c:	e9 df a6 ff ff       	jmp    ffffffff80002860 <log>
ffffffff80008181:	66 2e 0f 1f 84 00 00 	cs nop WORD PTR [rax+rax*1+0x0]
ffffffff80008188:	00 00 00 
ffffffff8000818b:	0f 1f 44 00 00       	nop    DWORD PTR [rax+rax*1+0x0]

ffffffff80008190 <irq_register_handler>:
ffffffff80008190:	48 83 ec 28          	sub    rsp,0x28
ffffffff80008194:	49 89 f1             	mov    r9,rsi
ffffffff80008197:	44 0f b6 c7          	movzx  r8d,dil
ffffffff8000819b:	40 80 ff 1f          	cmp    dil,0x1f
ffffffff8000819f:	0f 86 8b 00 00 00    	jbe    ffffffff80008230 <irq_register_handler+0xa0>
ffffffff800081a5:	41 83 e8 20          	sub    r8d,0x20
ffffffff800081a9:	4d 63 c0             	movsxd r8,r8d
ffffffff800081ac:	49 81 f8 f4 00 00 00 	cmp    r8,0xf4
ffffffff800081b3:	0f 83 f7 00 00 00    	jae    ffffffff800082b0 <irq_register_handler+0x120>
ffffffff800081b9:	4a 8d 04 c5 00 00 00 	lea    rax,[r8*8+0x0]
ffffffff800081c0:	00 
ffffffff800081c1:	48 8d 48 08          	lea    rcx,[rax+0x8]
ffffffff800081c5:	48 8d 90 c0 40 01 80 	lea    rdx,[rax-0x7ffebf40]
ffffffff800081cc:	48 81 f9 a0 07 00 00 	cmp    rcx,0x7a0
ffffffff800081d3:	0f 87 94 00 00 00    	ja     ffffffff8000826d <irq_register_handler+0xdd>
ffffffff800081d9:	48 85 c0             	test   rax,rax
ffffffff800081dc:	78 1a                	js     ffffffff800081f8 <irq_register_handler+0x68>
ffffffff800081de:	48 81 fa c0 40 01 80 	cmp    rdx,0xffffffff800140c0
ffffffff800081e5:	72 1d                	jb     ffffffff80008204 <irq_register_handler+0x74>
ffffffff800081e7:	4e 89 0c c5 c0 40 01 	mov    QWORD PTR [r8*8-0x7ffebf40],r9
ffffffff800081ee:	80 
ffffffff800081ef:	48 83 c4 28          	add    rsp,0x28
ffffffff800081f3:	c3                   	ret
ffffffff800081f4:	0f 1f 40 00          	nop    DWORD PTR [rax+0x0]
ffffffff800081f8:	48 c7 c0 c0 40 01 80 	mov    rax,0xffffffff800140c0
ffffffff800081ff:	48 39 d0             	cmp    rax,rdx
ffffffff80008202:	73 e3                	jae    ffffffff800081e7 <irq_register_handler+0x57>
ffffffff80008204:	48 c7 c6 c0 40 01 80 	mov    rsi,0xffffffff800140c0
ffffffff8000820b:	48 c7 c7 a0 15 01 80 	mov    rdi,0xffffffff800115a0
ffffffff80008212:	4c 89 4c 24 08       	mov    QWORD PTR [rsp+0x8],r9
ffffffff80008217:	4c 89 04 24          	mov    QWORD PTR [rsp],r8
ffffffff8000821b:	e8 c0 e0 ff ff       	call   ffffffff800062e0 <__ubsan_handle_pointer_overflow>
ffffffff80008220:	4c 8b 04 24          	mov    r8,QWORD PTR [rsp]
ffffffff80008224:	4c 8b 4c 24 08       	mov    r9,QWORD PTR [rsp+0x8]
ffffffff80008229:	eb bc                	jmp    ffffffff800081e7 <irq_register_handler+0x57>
ffffffff8000822b:	0f 1f 44 00 00       	nop    DWORD PTR [rax+rax*1+0x0]
ffffffff80008230:	48 89 74 24 08       	mov    QWORD PTR [rsp+0x8],rsi
ffffffff80008235:	48 c7 c1 48 cb 00 80 	mov    rcx,0xffffffff8000cb48
ffffffff8000823c:	ba 0e 00 00 00       	mov    edx,0xe
ffffffff80008241:	31 c0                	xor    eax,eax
ffffffff80008243:	48 c7 c6 e0 cd 00 80 	mov    rsi,0xffffffff8000cde0
ffffffff8000824a:	48 c7 c7 81 c4 00 80 	mov    rdi,0xffffffff8000c481
ffffffff80008251:	44 89 04 24          	mov    DWORD PTR [rsp],r8d
ffffffff80008255:	e8 06 a6 ff ff       	call   ffffffff80002860 <log>
ffffffff8000825a:	e8 61 a5 ff ff       	call   ffffffff800027c0 <hcf>
ffffffff8000825f:	4c 8b 4c 24 08       	mov    r9,QWORD PTR [rsp+0x8]
ffffffff80008264:	44 8b 04 24          	mov    r8d,DWORD PTR [rsp]
ffffffff80008268:	e9 38 ff ff ff       	jmp    ffffffff800081a5 <irq_register_handler+0x15>
ffffffff8000826d:	48 01 d1             	add    rcx,rdx
ffffffff80008270:	0f 82 63 ff ff ff    	jb     ffffffff800081d9 <irq_register_handler+0x49>
ffffffff80008276:	48 89 d6             	mov    rsi,rdx
ffffffff80008279:	48 c7 c7 c0 15 01 80 	mov    rdi,0xffffffff800115c0
ffffffff80008280:	4c 89 4c 24 18       	mov    QWORD PTR [rsp+0x18],r9
ffffffff80008285:	4c 89 44 24 10       	mov    QWORD PTR [rsp+0x10],r8
ffffffff8000828a:	48 89 44 24 08       	mov    QWORD PTR [rsp+0x8],rax
ffffffff8000828f:	48 89 14 24          	mov    QWORD PTR [rsp],rdx
ffffffff80008293:	e8 f8 d7 ff ff       	call   ffffffff80005a90 <__ubsan_handle_type_mismatch_v1>
ffffffff80008298:	4c 8b 4c 24 18       	mov    r9,QWORD PTR [rsp+0x18]
ffffffff8000829d:	4c 8b 44 24 10       	mov    r8,QWORD PTR [rsp+0x10]
ffffffff800082a2:	48 8b 44 24 08       	mov    rax,QWORD PTR [rsp+0x8]
ffffffff800082a7:	48 8b 14 24          	mov    rdx,QWORD PTR [rsp]
ffffffff800082ab:	e9 29 ff ff ff       	jmp    ffffffff800081d9 <irq_register_handler+0x49>
ffffffff800082b0:	4c 89 c6             	mov    rsi,r8
ffffffff800082b3:	48 c7 c7 00 16 01 80 	mov    rdi,0xffffffff80011600
ffffffff800082ba:	4c 89 4c 24 08       	mov    QWORD PTR [rsp+0x8],r9
ffffffff800082bf:	4c 89 04 24          	mov    QWORD PTR [rsp],r8
ffffffff800082c3:	e8 b8 e0 ff ff       	call   ffffffff80006380 <__ubsan_handle_out_of_bounds>
ffffffff800082c8:	4c 8b 4c 24 08       	mov    r9,QWORD PTR [rsp+0x8]
ffffffff800082cd:	4c 8b 04 24          	mov    r8,QWORD PTR [rsp]
ffffffff800082d1:	e9 e3 fe ff ff       	jmp    ffffffff800081b9 <irq_register_handler+0x29>
ffffffff800082d6:	66 2e 0f 1f 84 00 00 	cs nop WORD PTR [rax+rax*1+0x0]
ffffffff800082dd:	00 00 00 

ffffffff800082e0 <irq_handler>:
ffffffff800082e0:	53                   	push   rbx
ffffffff800082e1:	48 89 f9             	mov    rcx,rdi
ffffffff800082e4:	48 83 ec 30          	sub    rsp,0x30
ffffffff800082e8:	48 85 ff             	test   rdi,rdi
ffffffff800082eb:	0f 84 cb 01 00 00    	je     ffffffff800084bc <irq_handler+0x1dc>
ffffffff800082f1:	40 f6 c7 07          	test   dil,0x7
ffffffff800082f5:	0f 85 c1 01 00 00    	jne    ffffffff800084bc <irq_handler+0x1dc>
ffffffff800082fb:	48 8d 51 78          	lea    rdx,[rcx+0x78]
ffffffff800082ff:	48 83 f9 88          	cmp    rcx,0xffffffffffffff88
ffffffff80008303:	0f 83 cf 01 00 00    	jae    ffffffff800084d8 <irq_handler+0x1f8>
ffffffff80008309:	48 8b 59 78          	mov    rbx,QWORD PTR [rcx+0x78]
ffffffff8000830d:	48 8d 43 e0          	lea    rax,[rbx-0x20]
ffffffff80008311:	48 3d f4 00 00 00    	cmp    rax,0xf4
ffffffff80008317:	0f 83 79 01 00 00    	jae    ffffffff80008496 <irq_handler+0x1b6>
ffffffff8000831d:	4c 8d 04 c5 00 00 00 	lea    r8,[rax*8+0x0]
ffffffff80008324:	00 
ffffffff80008325:	4d 8d 48 08          	lea    r9,[r8+0x8]
ffffffff80008329:	49 8d 90 c0 40 01 80 	lea    rdx,[r8-0x7ffebf40]
ffffffff80008330:	49 81 f9 a0 07 00 00 	cmp    r9,0x7a0
ffffffff80008337:	0f 87 b7 01 00 00    	ja     ffffffff800084f4 <irq_handler+0x214>
ffffffff8000833d:	49 c7 c3 c0 40 01 80 	mov    r11,0xffffffff800140c0
ffffffff80008344:	4d 85 c0             	test   r8,r8
ffffffff80008347:	78 5f                	js     ffffffff800083a8 <irq_handler+0xc8>
ffffffff80008349:	4c 39 da             	cmp    rdx,r11
ffffffff8000834c:	72 5f                	jb     ffffffff800083ad <irq_handler+0xcd>
ffffffff8000834e:	4c 8b 14 c5 c0 40 01 	mov    r10,QWORD PTR [rax*8-0x7ffebf40]
ffffffff80008355:	80 
ffffffff80008356:	4d 85 d2             	test   r10,r10
ffffffff80008359:	0f 84 d9 00 00 00    	je     ffffffff80008438 <irq_handler+0x158>
ffffffff8000835f:	48 85 c9             	test   rcx,rcx
ffffffff80008362:	0f 84 27 02 00 00    	je     ffffffff8000858f <irq_handler+0x2af>
ffffffff80008368:	f6 c1 07             	test   cl,0x7
ffffffff8000836b:	0f 85 1e 02 00 00    	jne    ffffffff8000858f <irq_handler+0x2af>
ffffffff80008371:	48 3d f4 00 00 00    	cmp    rax,0xf4
ffffffff80008377:	0f 83 c7 01 00 00    	jae    ffffffff80008544 <irq_handler+0x264>
ffffffff8000837d:	49 81 f9 a0 07 00 00 	cmp    r9,0x7a0
ffffffff80008384:	0f 87 5a 02 00 00    	ja     ffffffff800085e4 <irq_handler+0x304>
ffffffff8000838a:	4d 85 c0             	test   r8,r8
ffffffff8000838d:	79 71                	jns    ffffffff80008400 <irq_handler+0x120>
ffffffff8000838f:	49 39 d3             	cmp    r11,rdx
ffffffff80008392:	72 75                	jb     ffffffff80008409 <irq_handler+0x129>
ffffffff80008394:	48 89 cf             	mov    rdi,rcx
ffffffff80008397:	41 ff d2             	call   r10
ffffffff8000839a:	48 83 c4 30          	add    rsp,0x30
ffffffff8000839e:	5b                   	pop    rbx
ffffffff8000839f:	e9 dc 03 00 00       	jmp    ffffffff80008780 <lapic_eoi>
ffffffff800083a4:	0f 1f 40 00          	nop    DWORD PTR [rax+0x0]
ffffffff800083a8:	49 39 d3             	cmp    r11,rdx
ffffffff800083ab:	73 a1                	jae    ffffffff8000834e <irq_handler+0x6e>
ffffffff800083ad:	48 c7 c6 c0 40 01 80 	mov    rsi,0xffffffff800140c0
ffffffff800083b4:	48 c7 c7 c0 14 01 80 	mov    rdi,0xffffffff800114c0
ffffffff800083bb:	48 89 4c 24 20       	mov    QWORD PTR [rsp+0x20],rcx
ffffffff800083c0:	4c 89 4c 24 18       	mov    QWORD PTR [rsp+0x18],r9
ffffffff800083c5:	4c 89 44 24 10       	mov    QWORD PTR [rsp+0x10],r8
ffffffff800083ca:	48 89 44 24 08       	mov    QWORD PTR [rsp+0x8],rax
ffffffff800083cf:	48 89 14 24          	mov    QWORD PTR [rsp],rdx
ffffffff800083d3:	e8 08 df ff ff       	call   ffffffff800062e0 <__ubsan_handle_pointer_overflow>
ffffffff800083d8:	48 8b 14 24          	mov    rdx,QWORD PTR [rsp]
ffffffff800083dc:	48 8b 44 24 08       	mov    rax,QWORD PTR [rsp+0x8]
ffffffff800083e1:	49 c7 c3 c0 40 01 80 	mov    r11,0xffffffff800140c0
ffffffff800083e8:	4c 8b 44 24 10       	mov    r8,QWORD PTR [rsp+0x10]
ffffffff800083ed:	4c 8b 4c 24 18       	mov    r9,QWORD PTR [rsp+0x18]
ffffffff800083f2:	48 8b 4c 24 20       	mov    rcx,QWORD PTR [rsp+0x20]
ffffffff800083f7:	e9 52 ff ff ff       	jmp    ffffffff8000834e <irq_handler+0x6e>
ffffffff800083fc:	0f 1f 40 00          	nop    DWORD PTR [rax+0x0]
ffffffff80008400:	48 81 fa c0 40 01 80 	cmp    rdx,0xffffffff800140c0
ffffffff80008407:	73 8b                	jae    ffffffff80008394 <irq_handler+0xb4>
ffffffff80008409:	48 c7 c6 c0 40 01 80 	mov    rsi,0xffffffff800140c0
ffffffff80008410:	48 c7 c7 40 14 01 80 	mov    rdi,0xffffffff80011440
ffffffff80008417:	48 89 4c 24 08       	mov    QWORD PTR [rsp+0x8],rcx
ffffffff8000841c:	4c 89 14 24          	mov    QWORD PTR [rsp],r10
ffffffff80008420:	e8 bb de ff ff       	call   ffffffff800062e0 <__ubsan_handle_pointer_overflow>
ffffffff80008425:	4c 8b 14 24          	mov    r10,QWORD PTR [rsp]
ffffffff80008429:	48 8b 4c 24 08       	mov    rcx,QWORD PTR [rsp+0x8]
ffffffff8000842e:	e9 61 ff ff ff       	jmp    ffffffff80008394 <irq_handler+0xb4>
ffffffff80008433:	0f 1f 44 00 00       	nop    DWORD PTR [rax+rax*1+0x0]
ffffffff80008438:	48 85 c9             	test   rcx,rcx
ffffffff8000843b:	0f 84 ed 01 00 00    	je     ffffffff8000862e <irq_handler+0x34e>
ffffffff80008441:	f6 c1 07             	test   cl,0x7
ffffffff80008444:	0f 85 e4 01 00 00    	jne    ffffffff8000862e <irq_handler+0x34e>
ffffffff8000844a:	48 89 de             	mov    rsi,rbx
ffffffff8000844d:	48 c7 c7 8f c4 00 80 	mov    rdi,0xffffffff8000c48f
ffffffff80008454:	31 c0                	xor    eax,eax
ffffffff80008456:	48 89 0c 24          	mov    QWORD PTR [rsp],rcx
ffffffff8000845a:	e8 11 9e ff ff       	call   ffffffff80002270 <printf>
ffffffff8000845f:	48 8b 0c 24          	mov    rcx,QWORD PTR [rsp]
ffffffff80008463:	48 85 c9             	test   rcx,rcx
ffffffff80008466:	0f 84 de 01 00 00    	je     ffffffff8000864a <irq_handler+0x36a>
ffffffff8000846c:	f6 c1 07             	test   cl,0x7
ffffffff8000846f:	0f 85 d5 01 00 00    	jne    ffffffff8000864a <irq_handler+0x36a>
ffffffff80008475:	48 8b 71 78          	mov    rsi,QWORD PTR [rcx+0x78]
ffffffff80008479:	48 c7 c7 8f c4 00 80 	mov    rdi,0xffffffff8000c48f
ffffffff80008480:	31 c0                	xor    eax,eax
ffffffff80008482:	e8 29 8c ff ff       	call   ffffffff800010b0 <serial_printf>
ffffffff80008487:	e8 34 a3 ff ff       	call   ffffffff800027c0 <hcf>
ffffffff8000848c:	48 83 c4 30          	add    rsp,0x30
ffffffff80008490:	5b                   	pop    rbx
ffffffff80008491:	e9 ea 02 00 00       	jmp    ffffffff80008780 <lapic_eoi>
ffffffff80008496:	48 89 c6             	mov    rsi,rax
ffffffff80008499:	48 c7 c7 00 15 01 80 	mov    rdi,0xffffffff80011500
ffffffff800084a0:	48 89 4c 24 08       	mov    QWORD PTR [rsp+0x8],rcx
ffffffff800084a5:	48 89 04 24          	mov    QWORD PTR [rsp],rax
ffffffff800084a9:	e8 d2 de ff ff       	call   ffffffff80006380 <__ubsan_handle_out_of_bounds>
ffffffff800084ae:	48 8b 4c 24 08       	mov    rcx,QWORD PTR [rsp+0x8]
ffffffff800084b3:	48 8b 04 24          	mov    rax,QWORD PTR [rsp]
ffffffff800084b7:	e9 61 fe ff ff       	jmp    ffffffff8000831d <irq_handler+0x3d>
ffffffff800084bc:	48 89 ce             	mov    rsi,rcx
ffffffff800084bf:	48 c7 c7 60 15 01 80 	mov    rdi,0xffffffff80011560
ffffffff800084c6:	48 89 0c 24          	mov    QWORD PTR [rsp],rcx
ffffffff800084ca:	e8 c1 d5 ff ff       	call   ffffffff80005a90 <__ubsan_handle_type_mismatch_v1>
ffffffff800084cf:	48 8b 0c 24          	mov    rcx,QWORD PTR [rsp]
ffffffff800084d3:	e9 23 fe ff ff       	jmp    ffffffff800082fb <irq_handler+0x1b>
ffffffff800084d8:	48 89 ce             	mov    rsi,rcx
ffffffff800084db:	48 c7 c7 40 15 01 80 	mov    rdi,0xffffffff80011540
ffffffff800084e2:	48 89 0c 24          	mov    QWORD PTR [rsp],rcx
ffffffff800084e6:	e8 f5 dd ff ff       	call   ffffffff800062e0 <__ubsan_handle_pointer_overflow>
ffffffff800084eb:	48 8b 0c 24          	mov    rcx,QWORD PTR [rsp]
ffffffff800084ef:	e9 15 fe ff ff       	jmp    ffffffff80008309 <irq_handler+0x29>
ffffffff800084f4:	48 89 d6             	mov    rsi,rdx
ffffffff800084f7:	4c 01 ce             	add    rsi,r9
ffffffff800084fa:	0f 82 3d fe ff ff    	jb     ffffffff8000833d <irq_handler+0x5d>
ffffffff80008500:	48 89 d6             	mov    rsi,rdx
ffffffff80008503:	48 c7 c7 e0 14 01 80 	mov    rdi,0xffffffff800114e0
ffffffff8000850a:	48 89 4c 24 20       	mov    QWORD PTR [rsp+0x20],rcx
ffffffff8000850f:	4c 89 4c 24 18       	mov    QWORD PTR [rsp+0x18],r9
ffffffff80008514:	4c 89 44 24 10       	mov    QWORD PTR [rsp+0x10],r8
ffffffff80008519:	48 89 44 24 08       	mov    QWORD PTR [rsp+0x8],rax
ffffffff8000851e:	48 89 14 24          	mov    QWORD PTR [rsp],rdx
ffffffff80008522:	e8 69 d5 ff ff       	call   ffffffff80005a90 <__ubsan_handle_type_mismatch_v1>
ffffffff80008527:	48 8b 4c 24 20       	mov    rcx,QWORD PTR [rsp+0x20]
ffffffff8000852c:	4c 8b 4c 24 18       	mov    r9,QWORD PTR [rsp+0x18]
ffffffff80008531:	4c 8b 44 24 10       	mov    r8,QWORD PTR [rsp+0x10]
ffffffff80008536:	48 8b 44 24 08       	mov    rax,QWORD PTR [rsp+0x8]
ffffffff8000853b:	48 8b 14 24          	mov    rdx,QWORD PTR [rsp]
ffffffff8000853f:	e9 f9 fd ff ff       	jmp    ffffffff8000833d <irq_handler+0x5d>
ffffffff80008544:	48 89 c6             	mov    rsi,rax
ffffffff80008547:	48 c7 c7 80 14 01 80 	mov    rdi,0xffffffff80011480
ffffffff8000854e:	48 89 4c 24 20       	mov    QWORD PTR [rsp+0x20],rcx
ffffffff80008553:	48 89 54 24 18       	mov    QWORD PTR [rsp+0x18],rdx
ffffffff80008558:	4c 89 4c 24 10       	mov    QWORD PTR [rsp+0x10],r9
ffffffff8000855d:	4c 89 44 24 08       	mov    QWORD PTR [rsp+0x8],r8
ffffffff80008562:	4c 89 14 24          	mov    QWORD PTR [rsp],r10
ffffffff80008566:	e8 15 de ff ff       	call   ffffffff80006380 <__ubsan_handle_out_of_bounds>
ffffffff8000856b:	48 8b 4c 24 20       	mov    rcx,QWORD PTR [rsp+0x20]
ffffffff80008570:	48 8b 54 24 18       	mov    rdx,QWORD PTR [rsp+0x18]
ffffffff80008575:	49 c7 c3 c0 40 01 80 	mov    r11,0xffffffff800140c0
ffffffff8000857c:	4c 8b 4c 24 10       	mov    r9,QWORD PTR [rsp+0x10]
ffffffff80008581:	4c 8b 44 24 08       	mov    r8,QWORD PTR [rsp+0x8]
ffffffff80008586:	4c 8b 14 24          	mov    r10,QWORD PTR [rsp]
ffffffff8000858a:	e9 ee fd ff ff       	jmp    ffffffff8000837d <irq_handler+0x9d>
ffffffff8000858f:	48 89 ce             	mov    rsi,rcx
ffffffff80008592:	48 c7 c7 a0 14 01 80 	mov    rdi,0xffffffff800114a0
ffffffff80008599:	48 89 54 24 28       	mov    QWORD PTR [rsp+0x28],rdx
ffffffff8000859e:	4c 89 4c 24 20       	mov    QWORD PTR [rsp+0x20],r9
ffffffff800085a3:	4c 89 44 24 18       	mov    QWORD PTR [rsp+0x18],r8
ffffffff800085a8:	48 89 44 24 10       	mov    QWORD PTR [rsp+0x10],rax
ffffffff800085ad:	4c 89 54 24 08       	mov    QWORD PTR [rsp+0x8],r10
ffffffff800085b2:	48 89 0c 24          	mov    QWORD PTR [rsp],rcx
ffffffff800085b6:	e8 d5 d4 ff ff       	call   ffffffff80005a90 <__ubsan_handle_type_mismatch_v1>
ffffffff800085bb:	48 8b 54 24 28       	mov    rdx,QWORD PTR [rsp+0x28]
ffffffff800085c0:	4c 8b 4c 24 20       	mov    r9,QWORD PTR [rsp+0x20]
ffffffff800085c5:	49 c7 c3 c0 40 01 80 	mov    r11,0xffffffff800140c0
ffffffff800085cc:	4c 8b 44 24 18       	mov    r8,QWORD PTR [rsp+0x18]
ffffffff800085d1:	48 8b 44 24 10       	mov    rax,QWORD PTR [rsp+0x10]
ffffffff800085d6:	4c 8b 54 24 08       	mov    r10,QWORD PTR [rsp+0x8]
ffffffff800085db:	48 8b 0c 24          	mov    rcx,QWORD PTR [rsp]
ffffffff800085df:	e9 8d fd ff ff       	jmp    ffffffff80008371 <irq_handler+0x91>
ffffffff800085e4:	49 01 d1             	add    r9,rdx
ffffffff800085e7:	0f 82 9d fd ff ff    	jb     ffffffff8000838a <irq_handler+0xaa>
ffffffff800085ed:	48 89 d6             	mov    rsi,rdx
ffffffff800085f0:	48 c7 c7 60 14 01 80 	mov    rdi,0xffffffff80011460
ffffffff800085f7:	48 89 4c 24 18       	mov    QWORD PTR [rsp+0x18],rcx
ffffffff800085fc:	4c 89 44 24 10       	mov    QWORD PTR [rsp+0x10],r8
ffffffff80008601:	4c 89 54 24 08       	mov    QWORD PTR [rsp+0x8],r10
ffffffff80008606:	48 89 14 24          	mov    QWORD PTR [rsp],rdx
ffffffff8000860a:	e8 81 d4 ff ff       	call   ffffffff80005a90 <__ubsan_handle_type_mismatch_v1>
ffffffff8000860f:	48 8b 4c 24 18       	mov    rcx,QWORD PTR [rsp+0x18]
ffffffff80008614:	4c 8b 44 24 10       	mov    r8,QWORD PTR [rsp+0x10]
ffffffff80008619:	49 c7 c3 c0 40 01 80 	mov    r11,0xffffffff800140c0
ffffffff80008620:	4c 8b 54 24 08       	mov    r10,QWORD PTR [rsp+0x8]
ffffffff80008625:	48 8b 14 24          	mov    rdx,QWORD PTR [rsp]
ffffffff80008629:	e9 5c fd ff ff       	jmp    ffffffff8000838a <irq_handler+0xaa>
ffffffff8000862e:	48 89 ce             	mov    rsi,rcx
ffffffff80008631:	48 c7 c7 20 14 01 80 	mov    rdi,0xffffffff80011420
ffffffff80008638:	48 89 0c 24          	mov    QWORD PTR [rsp],rcx
ffffffff8000863c:	e8 4f d4 ff ff       	call   ffffffff80005a90 <__ubsan_handle_type_mismatch_v1>
ffffffff80008641:	48 8b 0c 24          	mov    rcx,QWORD PTR [rsp]
ffffffff80008645:	e9 00 fe ff ff       	jmp    ffffffff8000844a <irq_handler+0x16a>
ffffffff8000864a:	48 89 ce             	mov    rsi,rcx
ffffffff8000864d:	48 c7 c7 00 14 01 80 	mov    rdi,0xffffffff80011400
ffffffff80008654:	48 89 0c 24          	mov    QWORD PTR [rsp],rcx
ffffffff80008658:	e8 33 d4 ff ff       	call   ffffffff80005a90 <__ubsan_handle_type_mismatch_v1>
ffffffff8000865d:	48 8b 0c 24          	mov    rcx,QWORD PTR [rsp]
ffffffff80008661:	e9 0f fe ff ff       	jmp    ffffffff80008475 <irq_handler+0x195>
ffffffff80008666:	66 2e 0f 1f 84 00 00 	cs nop WORD PTR [rax+rax*1+0x0]
ffffffff8000866d:	00 00 00 

ffffffff80008670 <lapic_write>:
ffffffff80008670:	48 83 ec 18          	sub    rsp,0x18
ffffffff80008674:	41 89 d0             	mov    r8d,edx
ffffffff80008677:	eb 09                	jmp    ffffffff80008682 <lapic_write+0x12>
ffffffff80008679:	0f 1f 80 00 00 00 00 	nop    DWORD PTR [rax+0x0]
ffffffff80008680:	f3 90                	pause
ffffffff80008682:	b8 01 00 00 00       	mov    eax,0x1
ffffffff80008687:	86 05 d3 c1 00 00    	xchg   BYTE PTR [rip+0xc1d3],al        # ffffffff80014860 <lapic_lock>
ffffffff8000868d:	84 c0                	test   al,al
ffffffff8000868f:	75 ef                	jne    ffffffff80008680 <lapic_write+0x10>
ffffffff80008691:	fa                   	cli
ffffffff80008692:	0f b7 c6             	movzx  eax,si
ffffffff80008695:	48 01 f8             	add    rax,rdi
ffffffff80008698:	72 19                	jb     ffffffff800086b3 <lapic_write+0x43>
ffffffff8000869a:	48 85 c0             	test   rax,rax
ffffffff8000869d:	74 3a                	je     ffffffff800086d9 <lapic_write+0x69>
ffffffff8000869f:	a8 03                	test   al,0x3
ffffffff800086a1:	75 36                	jne    ffffffff800086d9 <lapic_write+0x69>
ffffffff800086a3:	44 89 00             	mov    DWORD PTR [rax],r8d
ffffffff800086a6:	c6 05 b3 c1 00 00 00 	mov    BYTE PTR [rip+0xc1b3],0x0        # ffffffff80014860 <lapic_lock>
ffffffff800086ad:	fb                   	sti
ffffffff800086ae:	48 83 c4 18          	add    rsp,0x18
ffffffff800086b2:	c3                   	ret
ffffffff800086b3:	48 89 c2             	mov    rdx,rax
ffffffff800086b6:	48 89 fe             	mov    rsi,rdi
ffffffff800086b9:	48 c7 c7 c0 17 01 80 	mov    rdi,0xffffffff800117c0
ffffffff800086c0:	48 89 04 24          	mov    QWORD PTR [rsp],rax
ffffffff800086c4:	44 89 44 24 0c       	mov    DWORD PTR [rsp+0xc],r8d
ffffffff800086c9:	e8 12 dc ff ff       	call   ffffffff800062e0 <__ubsan_handle_pointer_overflow>
ffffffff800086ce:	44 8b 44 24 0c       	mov    r8d,DWORD PTR [rsp+0xc]
ffffffff800086d3:	48 8b 04 24          	mov    rax,QWORD PTR [rsp]
ffffffff800086d7:	eb c1                	jmp    ffffffff8000869a <lapic_write+0x2a>
ffffffff800086d9:	48 89 c6             	mov    rsi,rax
ffffffff800086dc:	48 c7 c7 80 17 01 80 	mov    rdi,0xffffffff80011780
ffffffff800086e3:	44 89 44 24 0c       	mov    DWORD PTR [rsp+0xc],r8d
ffffffff800086e8:	48 89 04 24          	mov    QWORD PTR [rsp],rax
ffffffff800086ec:	e8 9f d3 ff ff       	call   ffffffff80005a90 <__ubsan_handle_type_mismatch_v1>
ffffffff800086f1:	44 8b 44 24 0c       	mov    r8d,DWORD PTR [rsp+0xc]
ffffffff800086f6:	48 8b 04 24          	mov    rax,QWORD PTR [rsp]
ffffffff800086fa:	eb a7                	jmp    ffffffff800086a3 <lapic_write+0x33>
ffffffff800086fc:	0f 1f 40 00          	nop    DWORD PTR [rax+0x0]

ffffffff80008700 <lapic_read>:
ffffffff80008700:	48 83 ec 18          	sub    rsp,0x18
ffffffff80008704:	eb 0c                	jmp    ffffffff80008712 <lapic_read+0x12>
ffffffff80008706:	66 2e 0f 1f 84 00 00 	cs nop WORD PTR [rax+rax*1+0x0]
ffffffff8000870d:	00 00 00 
ffffffff80008710:	f3 90                	pause
ffffffff80008712:	b8 01 00 00 00       	mov    eax,0x1
ffffffff80008717:	86 05 43 c1 00 00    	xchg   BYTE PTR [rip+0xc143],al        # ffffffff80014860 <lapic_lock>
ffffffff8000871d:	84 c0                	test   al,al
ffffffff8000871f:	75 ef                	jne    ffffffff80008710 <lapic_read+0x10>
ffffffff80008721:	fa                   	cli
ffffffff80008722:	0f b7 c6             	movzx  eax,si
ffffffff80008725:	48 01 f8             	add    rax,rdi
ffffffff80008728:	72 18                	jb     ffffffff80008742 <lapic_read+0x42>
ffffffff8000872a:	48 85 c0             	test   rax,rax
ffffffff8000872d:	74 31                	je     ffffffff80008760 <lapic_read+0x60>
ffffffff8000872f:	a8 03                	test   al,0x3
ffffffff80008731:	75 2d                	jne    ffffffff80008760 <lapic_read+0x60>
ffffffff80008733:	8b 00                	mov    eax,DWORD PTR [rax]
ffffffff80008735:	c6 05 24 c1 00 00 00 	mov    BYTE PTR [rip+0xc124],0x0        # ffffffff80014860 <lapic_lock>
ffffffff8000873c:	fb                   	sti
ffffffff8000873d:	48 83 c4 18          	add    rsp,0x18
ffffffff80008741:	c3                   	ret
ffffffff80008742:	48 89 c2             	mov    rdx,rax
ffffffff80008745:	48 89 fe             	mov    rsi,rdi
ffffffff80008748:	48 c7 c7 60 17 01 80 	mov    rdi,0xffffffff80011760
ffffffff8000874f:	48 89 44 24 08       	mov    QWORD PTR [rsp+0x8],rax
ffffffff80008754:	e8 87 db ff ff       	call   ffffffff800062e0 <__ubsan_handle_pointer_overflow>
ffffffff80008759:	48 8b 44 24 08       	mov    rax,QWORD PTR [rsp+0x8]
ffffffff8000875e:	eb ca                	jmp    ffffffff8000872a <lapic_read+0x2a>
ffffffff80008760:	48 89 c6             	mov    rsi,rax
ffffffff80008763:	48 c7 c7 40 17 01 80 	mov    rdi,0xffffffff80011740
ffffffff8000876a:	48 89 44 24 08       	mov    QWORD PTR [rsp+0x8],rax
ffffffff8000876f:	e8 1c d3 ff ff       	call   ffffffff80005a90 <__ubsan_handle_type_mismatch_v1>
ffffffff80008774:	48 8b 44 24 08       	mov    rax,QWORD PTR [rsp+0x8]
ffffffff80008779:	eb b8                	jmp    ffffffff80008733 <lapic_read+0x33>
ffffffff8000877b:	0f 1f 44 00 00       	nop    DWORD PTR [rax+rax*1+0x0]

ffffffff80008780 <lapic_eoi>:
ffffffff80008780:	48 8b 3d e1 c0 00 00 	mov    rdi,QWORD PTR [rip+0xc0e1]        # ffffffff80014868 <lapic>
ffffffff80008787:	31 d2                	xor    edx,edx
ffffffff80008789:	be b0 00 00 00       	mov    esi,0xb0
ffffffff8000878e:	e9 dd fe ff ff       	jmp    ffffffff80008670 <lapic_write>
ffffffff80008793:	66 2e 0f 1f 84 00 00 	cs nop WORD PTR [rax+rax*1+0x0]
ffffffff8000879a:	00 00 00 
ffffffff8000879d:	0f 1f 00             	nop    DWORD PTR [rax]

ffffffff800087a0 <lapic_core>:
ffffffff800087a0:	55                   	push   rbp
ffffffff800087a1:	48 c7 c0 b0 48 01 80 	mov    rax,0xffffffff800148b0
ffffffff800087a8:	53                   	push   rbx
ffffffff800087a9:	48 83 ec 08          	sub    rsp,0x8
ffffffff800087ad:	48 83 f8 f0          	cmp    rax,0xfffffffffffffff0
ffffffff800087b1:	0f 83 6f 01 00 00    	jae    ffffffff80008926 <lapic_core+0x186>
ffffffff800087b7:	48 83 3d 01 c1 00 00 	cmp    QWORD PTR [rip+0xc101],0x0        # ffffffff800148c0 <lapic_nmis+0x10>
ffffffff800087be:	00 
ffffffff800087bf:	0f 84 a4 00 00 00    	je     ffffffff80008869 <lapic_core+0xc9>
ffffffff800087c5:	31 ed                	xor    ebp,ebp
ffffffff800087c7:	eb 30                	jmp    ffffffff800087f9 <lapic_core+0x59>
ffffffff800087c9:	0f 1f 80 00 00 00 00 	nop    DWORD PTR [rax+0x0]
ffffffff800087d0:	48 8b 3d 91 c0 00 00 	mov    rdi,QWORD PTR [rip+0xc091]        # ffffffff80014868 <lapic>
ffffffff800087d7:	be 20 00 00 00       	mov    esi,0x20
ffffffff800087dc:	e8 1f ff ff ff       	call   ffffffff80008700 <lapic_read>
ffffffff800087e1:	0f b6 53 02          	movzx  edx,BYTE PTR [rbx+0x2]
ffffffff800087e5:	c1 e8 18             	shr    eax,0x18
ffffffff800087e8:	39 c2                	cmp    edx,eax
ffffffff800087ea:	74 3c                	je     ffffffff80008828 <lapic_core+0x88>
ffffffff800087ec:	48 83 c5 01          	add    rbp,0x1
ffffffff800087f0:	48 3b 2d c9 c0 00 00 	cmp    rbp,QWORD PTR [rip+0xc0c9]        # ffffffff800148c0 <lapic_nmis+0x10>
ffffffff800087f7:	73 70                	jae    ffffffff80008869 <lapic_core+0xc9>
ffffffff800087f9:	48 89 ee             	mov    rsi,rbp
ffffffff800087fc:	48 c7 c7 b0 48 01 80 	mov    rdi,0xffffffff800148b0
ffffffff80008803:	e8 f8 9a ff ff       	call   ffffffff80002300 <vec_at>
ffffffff80008808:	48 89 c3             	mov    rbx,rax
ffffffff8000880b:	48 85 c0             	test   rax,rax
ffffffff8000880e:	0f 84 d7 00 00 00    	je     ffffffff800088eb <lapic_core+0x14b>
ffffffff80008814:	48 8d 53 02          	lea    rdx,[rbx+0x2]
ffffffff80008818:	48 83 fb fe          	cmp    rbx,0xfffffffffffffffe
ffffffff8000881c:	0f 83 dc 00 00 00    	jae    ffffffff800088fe <lapic_core+0x15e>
ffffffff80008822:	80 7b 02 ff          	cmp    BYTE PTR [rbx+0x2],0xff
ffffffff80008826:	75 a8                	jne    ffffffff800087d0 <lapic_core+0x30>
ffffffff80008828:	48 8d 53 05          	lea    rdx,[rbx+0x5]
ffffffff8000882c:	48 83 fb fb          	cmp    rbx,0xfffffffffffffffb
ffffffff80008830:	0f 83 dc 00 00 00    	jae    ffffffff80008912 <lapic_core+0x172>
ffffffff80008836:	0f b6 43 05          	movzx  eax,BYTE PTR [rbx+0x5]
ffffffff8000883a:	84 c0                	test   al,al
ffffffff8000883c:	0f 84 8e 00 00 00    	je     ffffffff800088d0 <lapic_core+0x130>
ffffffff80008842:	3c 01                	cmp    al,0x1
ffffffff80008844:	75 a6                	jne    ffffffff800087ec <lapic_core+0x4c>
ffffffff80008846:	48 8b 3d 1b c0 00 00 	mov    rdi,QWORD PTR [rip+0xc01b]        # ffffffff80014868 <lapic>
ffffffff8000884d:	ba 02 04 00 00       	mov    edx,0x402
ffffffff80008852:	be 60 03 00 00       	mov    esi,0x360
ffffffff80008857:	48 83 c5 01          	add    rbp,0x1
ffffffff8000885b:	e8 10 fe ff ff       	call   ffffffff80008670 <lapic_write>
ffffffff80008860:	48 3b 2d 59 c0 00 00 	cmp    rbp,QWORD PTR [rip+0xc059]        # ffffffff800148c0 <lapic_nmis+0x10>
ffffffff80008867:	72 90                	jb     ffffffff800087f9 <lapic_core+0x59>
ffffffff80008869:	48 8b 3d f8 bf 00 00 	mov    rdi,QWORD PTR [rip+0xbff8]        # ffffffff80014868 <lapic>
ffffffff80008870:	ba ff 01 00 00       	mov    edx,0x1ff
ffffffff80008875:	be f0 00 00 00       	mov    esi,0xf0
ffffffff8000887a:	e8 f1 fd ff ff       	call   ffffffff80008670 <lapic_write>
ffffffff8000887f:	ba 20 00 02 00       	mov    edx,0x20020
ffffffff80008884:	be 20 03 00 00       	mov    esi,0x320
ffffffff80008889:	48 8b 3d d8 bf 00 00 	mov    rdi,QWORD PTR [rip+0xbfd8]        # ffffffff80014868 <lapic>
ffffffff80008890:	e8 db fd ff ff       	call   ffffffff80008670 <lapic_write>
ffffffff80008895:	ba 40 42 0f 00       	mov    edx,0xf4240
ffffffff8000889a:	be 80 03 00 00       	mov    esi,0x380
ffffffff8000889f:	48 8b 3d c2 bf 00 00 	mov    rdi,QWORD PTR [rip+0xbfc2]        # ffffffff80014868 <lapic>
ffffffff800088a6:	e8 c5 fd ff ff       	call   ffffffff80008670 <lapic_write>
ffffffff800088ab:	ba 10 00 00 00       	mov    edx,0x10
ffffffff800088b0:	be e0 03 00 00       	mov    esi,0x3e0
ffffffff800088b5:	48 8b 3d ac bf 00 00 	mov    rdi,QWORD PTR [rip+0xbfac]        # ffffffff80014868 <lapic>
ffffffff800088bc:	48 83 c4 08          	add    rsp,0x8
ffffffff800088c0:	5b                   	pop    rbx
ffffffff800088c1:	5d                   	pop    rbp
ffffffff800088c2:	e9 a9 fd ff ff       	jmp    ffffffff80008670 <lapic_write>
ffffffff800088c7:	66 0f 1f 84 00 00 00 	nop    WORD PTR [rax+rax*1+0x0]
ffffffff800088ce:	00 00 
ffffffff800088d0:	48 8b 3d 91 bf 00 00 	mov    rdi,QWORD PTR [rip+0xbf91]        # ffffffff80014868 <lapic>
ffffffff800088d7:	ba 02 04 00 00       	mov    edx,0x402
ffffffff800088dc:	be 50 03 00 00       	mov    esi,0x350
ffffffff800088e1:	e8 8a fd ff ff       	call   ffffffff80008670 <lapic_write>
ffffffff800088e6:	e9 01 ff ff ff       	jmp    ffffffff800087ec <lapic_core+0x4c>
ffffffff800088eb:	31 f6                	xor    esi,esi
ffffffff800088ed:	48 c7 c7 e0 16 01 80 	mov    rdi,0xffffffff800116e0
ffffffff800088f4:	e8 97 d1 ff ff       	call   ffffffff80005a90 <__ubsan_handle_type_mismatch_v1>
ffffffff800088f9:	e9 16 ff ff ff       	jmp    ffffffff80008814 <lapic_core+0x74>
ffffffff800088fe:	48 89 de             	mov    rsi,rbx
ffffffff80008901:	48 c7 c7 d0 16 01 80 	mov    rdi,0xffffffff800116d0
ffffffff80008908:	e8 d3 d9 ff ff       	call   ffffffff800062e0 <__ubsan_handle_pointer_overflow>
ffffffff8000890d:	e9 10 ff ff ff       	jmp    ffffffff80008822 <lapic_core+0x82>
ffffffff80008912:	48 89 de             	mov    rsi,rbx
ffffffff80008915:	48 c7 c7 c0 16 01 80 	mov    rdi,0xffffffff800116c0
ffffffff8000891c:	e8 bf d9 ff ff       	call   ffffffff800062e0 <__ubsan_handle_pointer_overflow>
ffffffff80008921:	e9 10 ff ff ff       	jmp    ffffffff80008836 <lapic_core+0x96>
ffffffff80008926:	48 c7 c2 c0 48 01 80 	mov    rdx,0xffffffff800148c0
ffffffff8000892d:	48 89 c6             	mov    rsi,rax
ffffffff80008930:	48 c7 c7 20 17 01 80 	mov    rdi,0xffffffff80011720
ffffffff80008937:	e8 a4 d9 ff ff       	call   ffffffff800062e0 <__ubsan_handle_pointer_overflow>
ffffffff8000893c:	e9 76 fe ff ff       	jmp    ffffffff800087b7 <lapic_core+0x17>
ffffffff80008941:	66 2e 0f 1f 84 00 00 	cs nop WORD PTR [rax+rax*1+0x0]
ffffffff80008948:	00 00 00 
ffffffff8000894b:	0f 1f 44 00 00       	nop    DWORD PTR [rax+rax*1+0x0]

ffffffff80008950 <lapic_init>:
ffffffff80008950:	53                   	push   rbx
ffffffff80008951:	b9 1b 00 00 00       	mov    ecx,0x1b
ffffffff80008956:	48 83 ec 10          	sub    rsp,0x10
ffffffff8000895a:	0f 32                	rdmsr
ffffffff8000895c:	48 c7 c2 c0 00 00 80 	mov    rdx,0xffffffff800000c0
ffffffff80008963:	25 00 f0 ff ff       	and    eax,0xfffff000
ffffffff80008968:	48 83 fa d8          	cmp    rdx,0xffffffffffffffd8
ffffffff8000896c:	73 51                	jae    ffffffff800089bf <lapic_init+0x6f>
ffffffff8000896e:	48 8b 1d 73 77 ff ff 	mov    rbx,QWORD PTR [rip+0xffffffffffff7773]        # ffffffff800000e8 <hhdm_request+0x28>
ffffffff80008975:	48 85 db             	test   rbx,rbx
ffffffff80008978:	0f 84 82 00 00 00    	je     ffffffff80008a00 <lapic_init+0xb0>
ffffffff8000897e:	f6 c3 07             	test   bl,0x7
ffffffff80008981:	75 7d                	jne    ffffffff80008a00 <lapic_init+0xb0>
ffffffff80008983:	48 8d 53 08          	lea    rdx,[rbx+0x8]
ffffffff80008987:	48 83 fb f8          	cmp    rbx,0xfffffffffffffff8
ffffffff8000898b:	73 58                	jae    ffffffff800089e5 <lapic_init+0x95>
ffffffff8000898d:	48 8b 73 08          	mov    rsi,QWORD PTR [rbx+0x8]
ffffffff80008991:	b9 03 00 00 00       	mov    ecx,0x3
ffffffff80008996:	48 c7 c7 78 2f 01 80 	mov    rdi,0xffffffff80012f78
ffffffff8000899d:	48 01 c6             	add    rsi,rax
ffffffff800089a0:	48 89 f3             	mov    rbx,rsi
ffffffff800089a3:	48 89 f2             	mov    rdx,rsi
ffffffff800089a6:	48 89 c6             	mov    rsi,rax
ffffffff800089a9:	e8 02 c3 ff ff       	call   ffffffff80004cb0 <vmm_map>
ffffffff800089ae:	48 89 1d b3 be 00 00 	mov    QWORD PTR [rip+0xbeb3],rbx        # ffffffff80014868 <lapic>
ffffffff800089b5:	48 83 c4 10          	add    rsp,0x10
ffffffff800089b9:	5b                   	pop    rbx
ffffffff800089ba:	e9 e1 fd ff ff       	jmp    ffffffff800087a0 <lapic_core>
ffffffff800089bf:	48 c7 c2 e8 00 00 80 	mov    rdx,0xffffffff800000e8
ffffffff800089c6:	48 c7 c6 c0 00 00 80 	mov    rsi,0xffffffff800000c0
ffffffff800089cd:	48 89 44 24 08       	mov    QWORD PTR [rsp+0x8],rax
ffffffff800089d2:	48 c7 c7 b0 16 01 80 	mov    rdi,0xffffffff800116b0
ffffffff800089d9:	e8 02 d9 ff ff       	call   ffffffff800062e0 <__ubsan_handle_pointer_overflow>
ffffffff800089de:	48 8b 44 24 08       	mov    rax,QWORD PTR [rsp+0x8]
ffffffff800089e3:	eb 89                	jmp    ffffffff8000896e <lapic_init+0x1e>
ffffffff800089e5:	48 89 de             	mov    rsi,rbx
ffffffff800089e8:	48 c7 c7 50 16 01 80 	mov    rdi,0xffffffff80011650
ffffffff800089ef:	48 89 44 24 08       	mov    QWORD PTR [rsp+0x8],rax
ffffffff800089f4:	e8 e7 d8 ff ff       	call   ffffffff800062e0 <__ubsan_handle_pointer_overflow>
ffffffff800089f9:	48 8b 44 24 08       	mov    rax,QWORD PTR [rsp+0x8]
ffffffff800089fe:	eb 8d                	jmp    ffffffff8000898d <lapic_init+0x3d>
ffffffff80008a00:	48 89 de             	mov    rsi,rbx
ffffffff80008a03:	48 c7 c7 60 16 01 80 	mov    rdi,0xffffffff80011660
ffffffff80008a0a:	48 89 44 24 08       	mov    QWORD PTR [rsp+0x8],rax
ffffffff80008a0f:	e8 7c d0 ff ff       	call   ffffffff80005a90 <__ubsan_handle_type_mismatch_v1>
ffffffff80008a14:	48 8b 44 24 08       	mov    rax,QWORD PTR [rsp+0x8]
ffffffff80008a19:	e9 65 ff ff ff       	jmp    ffffffff80008983 <lapic_init+0x33>
ffffffff80008a1e:	66 90                	xchg   ax,ax

ffffffff80008a20 <madt_init>:
ffffffff80008a20:	41 54                	push   r12
ffffffff80008a22:	48 c7 c7 b3 c4 00 80 	mov    rdi,0xffffffff8000c4b3
ffffffff80008a29:	55                   	push   rbp
ffffffff80008a2a:	53                   	push   rbx
ffffffff80008a2b:	48 83 ec 30          	sub    rsp,0x30
ffffffff80008a2f:	e8 dc e1 ff ff       	call   ffffffff80006c10 <acpi_get_entry>
ffffffff80008a34:	48 89 c5             	mov    rbp,rax
ffffffff80008a37:	48 85 c0             	test   rax,rax
ffffffff80008a3a:	0f 84 b0 04 00 00    	je     ffffffff80008ef0 <madt_init+0x4d0>
ffffffff80008a40:	48 8d 7c 24 10       	lea    rdi,[rsp+0x10]
ffffffff80008a45:	e8 86 98 ff ff       	call   ffffffff800022d0 <vec_new>
ffffffff80008a4a:	48 8b 44 24 10       	mov    rax,QWORD PTR [rsp+0x10]
ffffffff80008a4f:	48 8d 7c 24 10       	lea    rdi,[rsp+0x10]
ffffffff80008a54:	48 89 05 d5 be 00 00 	mov    QWORD PTR [rip+0xbed5],rax        # ffffffff80014930 <lapics>
ffffffff80008a5b:	48 8b 44 24 18       	mov    rax,QWORD PTR [rsp+0x18]
ffffffff80008a60:	48 89 05 d1 be 00 00 	mov    QWORD PTR [rip+0xbed1],rax        # ffffffff80014938 <lapics+0x8>
ffffffff80008a67:	48 8b 44 24 20       	mov    rax,QWORD PTR [rsp+0x20]
ffffffff80008a6c:	48 89 05 cd be 00 00 	mov    QWORD PTR [rip+0xbecd],rax        # ffffffff80014940 <lapics+0x10>
ffffffff80008a73:	e8 58 98 ff ff       	call   ffffffff800022d0 <vec_new>
ffffffff80008a78:	48 8b 44 24 10       	mov    rax,QWORD PTR [rsp+0x10]
ffffffff80008a7d:	48 8d 7c 24 10       	lea    rdi,[rsp+0x10]
ffffffff80008a82:	48 89 05 87 be 00 00 	mov    QWORD PTR [rip+0xbe87],rax        # ffffffff80014910 <ioapics>
ffffffff80008a89:	48 8b 44 24 18       	mov    rax,QWORD PTR [rsp+0x18]
ffffffff80008a8e:	48 89 05 83 be 00 00 	mov    QWORD PTR [rip+0xbe83],rax        # ffffffff80014918 <ioapics+0x8>
ffffffff80008a95:	48 8b 44 24 20       	mov    rax,QWORD PTR [rsp+0x20]
ffffffff80008a9a:	48 89 05 7f be 00 00 	mov    QWORD PTR [rip+0xbe7f],rax        # ffffffff80014920 <ioapics+0x10>
ffffffff80008aa1:	e8 2a 98 ff ff       	call   ffffffff800022d0 <vec_new>
ffffffff80008aa6:	48 8b 44 24 10       	mov    rax,QWORD PTR [rsp+0x10]
ffffffff80008aab:	48 8d 7c 24 10       	lea    rdi,[rsp+0x10]
ffffffff80008ab0:	48 89 05 39 be 00 00 	mov    QWORD PTR [rip+0xbe39],rax        # ffffffff800148f0 <ioapic_overrides>
ffffffff80008ab7:	48 8b 44 24 18       	mov    rax,QWORD PTR [rsp+0x18]
ffffffff80008abc:	48 89 05 35 be 00 00 	mov    QWORD PTR [rip+0xbe35],rax        # ffffffff800148f8 <ioapic_overrides+0x8>
ffffffff80008ac3:	48 8b 44 24 20       	mov    rax,QWORD PTR [rsp+0x20]
ffffffff80008ac8:	48 89 05 31 be 00 00 	mov    QWORD PTR [rip+0xbe31],rax        # ffffffff80014900 <ioapic_overrides+0x10>
ffffffff80008acf:	e8 fc 97 ff ff       	call   ffffffff800022d0 <vec_new>
ffffffff80008ad4:	48 8b 44 24 10       	mov    rax,QWORD PTR [rsp+0x10]
ffffffff80008ad9:	48 8d 7c 24 10       	lea    rdi,[rsp+0x10]
ffffffff80008ade:	48 89 05 eb bd 00 00 	mov    QWORD PTR [rip+0xbdeb],rax        # ffffffff800148d0 <ioapic_nmis>
ffffffff80008ae5:	48 8b 44 24 18       	mov    rax,QWORD PTR [rsp+0x18]
ffffffff80008aea:	48 89 05 e7 bd 00 00 	mov    QWORD PTR [rip+0xbde7],rax        # ffffffff800148d8 <ioapic_nmis+0x8>
ffffffff80008af1:	48 8b 44 24 20       	mov    rax,QWORD PTR [rsp+0x20]
ffffffff80008af6:	48 89 05 e3 bd 00 00 	mov    QWORD PTR [rip+0xbde3],rax        # ffffffff800148e0 <ioapic_nmis+0x10>
ffffffff80008afd:	e8 ce 97 ff ff       	call   ffffffff800022d0 <vec_new>
ffffffff80008b02:	48 8b 44 24 10       	mov    rax,QWORD PTR [rsp+0x10]
ffffffff80008b07:	48 8d 7c 24 10       	lea    rdi,[rsp+0x10]
ffffffff80008b0c:	48 89 05 9d bd 00 00 	mov    QWORD PTR [rip+0xbd9d],rax        # ffffffff800148b0 <lapic_nmis>
ffffffff80008b13:	48 8b 44 24 18       	mov    rax,QWORD PTR [rsp+0x18]
ffffffff80008b18:	48 89 05 99 bd 00 00 	mov    QWORD PTR [rip+0xbd99],rax        # ffffffff800148b8 <lapic_nmis+0x8>
ffffffff80008b1f:	48 8b 44 24 20       	mov    rax,QWORD PTR [rsp+0x20]
ffffffff80008b24:	48 89 05 95 bd 00 00 	mov    QWORD PTR [rip+0xbd95],rax        # ffffffff800148c0 <lapic_nmis+0x10>
ffffffff80008b2b:	e8 a0 97 ff ff       	call   ffffffff800022d0 <vec_new>
ffffffff80008b30:	48 8b 44 24 10       	mov    rax,QWORD PTR [rsp+0x10]
ffffffff80008b35:	48 8d 7c 24 10       	lea    rdi,[rsp+0x10]
ffffffff80008b3a:	48 89 05 4f bd 00 00 	mov    QWORD PTR [rip+0xbd4f],rax        # ffffffff80014890 <lapic_overrides>
ffffffff80008b41:	48 8b 44 24 18       	mov    rax,QWORD PTR [rsp+0x18]
ffffffff80008b46:	48 89 05 4b bd 00 00 	mov    QWORD PTR [rip+0xbd4b],rax        # ffffffff80014898 <lapic_overrides+0x8>
ffffffff80008b4d:	48 8b 44 24 20       	mov    rax,QWORD PTR [rsp+0x20]
ffffffff80008b52:	48 89 05 47 bd 00 00 	mov    QWORD PTR [rip+0xbd47],rax        # ffffffff800148a0 <lapic_overrides+0x10>
ffffffff80008b59:	e8 72 97 ff ff       	call   ffffffff800022d0 <vec_new>
ffffffff80008b5e:	48 8b 44 24 10       	mov    rax,QWORD PTR [rsp+0x10]
ffffffff80008b63:	48 89 05 06 bd 00 00 	mov    QWORD PTR [rip+0xbd06],rax        # ffffffff80014870 <x2apics>
ffffffff80008b6a:	48 8b 44 24 18       	mov    rax,QWORD PTR [rsp+0x18]
ffffffff80008b6f:	48 89 05 02 bd 00 00 	mov    QWORD PTR [rip+0xbd02],rax        # ffffffff80014878 <x2apics+0x8>
ffffffff80008b76:	48 8b 44 24 20       	mov    rax,QWORD PTR [rsp+0x20]
ffffffff80008b7b:	48 89 05 fe bc 00 00 	mov    QWORD PTR [rip+0xbcfe],rax        # ffffffff80014880 <x2apics+0x10>
ffffffff80008b82:	48 85 ed             	test   rbp,rbp
ffffffff80008b85:	0f 84 6c 04 00 00    	je     ffffffff80008ff7 <madt_init+0x5d7>
ffffffff80008b8b:	48 8d 55 04          	lea    rdx,[rbp+0x4]
ffffffff80008b8f:	48 83 fd fc          	cmp    rbp,0xfffffffffffffffc
ffffffff80008b93:	0f 83 cc 04 00 00    	jae    ffffffff80009065 <madt_init+0x645>
ffffffff80008b99:	8b 45 04             	mov    eax,DWORD PTR [rbp+0x4]
ffffffff80008b9c:	48 8d 5d 2c          	lea    rbx,[rbp+0x2c]
ffffffff80008ba0:	44 8d 60 d4          	lea    r12d,[rax-0x2c]
ffffffff80008ba4:	48 83 fd d4          	cmp    rbp,0xffffffffffffffd4
ffffffff80008ba8:	0f 83 5c 04 00 00    	jae    ffffffff8000900a <madt_init+0x5ea>
ffffffff80008bae:	45 85 e4             	test   r12d,r12d
ffffffff80008bb1:	0f 84 81 00 00 00    	je     ffffffff80008c38 <madt_init+0x218>
ffffffff80008bb7:	66 0f 1f 84 00 00 00 	nop    WORD PTR [rax+rax*1+0x0]
ffffffff80008bbe:	00 00 
ffffffff80008bc0:	48 85 db             	test   rbx,rbx
ffffffff80008bc3:	0f 84 52 03 00 00    	je     ffffffff80008f1b <madt_init+0x4fb>
ffffffff80008bc9:	48 8d 53 01          	lea    rdx,[rbx+0x1]
ffffffff80008bcd:	48 83 fb ff          	cmp    rbx,0xffffffffffffffff
ffffffff80008bd1:	0f 83 6e 03 00 00    	jae    ffffffff80008f45 <madt_init+0x525>
ffffffff80008bd7:	44 0f b6 03          	movzx  r8d,BYTE PTR [rbx]
ffffffff80008bdb:	0f b6 6b 01          	movzx  ebp,BYTE PTR [rbx+0x1]
ffffffff80008bdf:	41 80 f8 09          	cmp    r8b,0x9
ffffffff80008be3:	77 0b                	ja     ffffffff80008bf0 <madt_init+0x1d0>
ffffffff80008be5:	41 0f b6 c0          	movzx  eax,r8b
ffffffff80008be9:	ff 24 c5 08 ce 00 80 	jmp    QWORD PTR [rax*8-0x7fff31f8]
ffffffff80008bf0:	48 c7 c1 d6 c4 00 80 	mov    rcx,0xffffffff8000c4d6
ffffffff80008bf7:	ba 54 00 00 00       	mov    edx,0x54
ffffffff80008bfc:	48 c7 c6 58 ce 00 80 	mov    rsi,0xffffffff8000ce58
ffffffff80008c03:	31 c0                	xor    eax,eax
ffffffff80008c05:	48 c7 c7 c7 c4 00 80 	mov    rdi,0xffffffff8000c4c7
ffffffff80008c0c:	e8 4f 9c ff ff       	call   ffffffff80002860 <log>
ffffffff80008c11:	e8 aa 9b ff ff       	call   ffffffff800027c0 <hcf>
ffffffff80008c16:	66 2e 0f 1f 84 00 00 	cs nop WORD PTR [rax+rax*1+0x0]
ffffffff80008c1d:	00 00 00 
ffffffff80008c20:	40 0f b6 c5          	movzx  eax,bpl
ffffffff80008c24:	41 29 c4             	sub    r12d,eax
ffffffff80008c27:	48 01 dd             	add    rbp,rbx
ffffffff80008c2a:	0f 82 fe 02 00 00    	jb     ffffffff80008f2e <madt_init+0x50e>
ffffffff80008c30:	48 89 eb             	mov    rbx,rbp
ffffffff80008c33:	45 85 e4             	test   r12d,r12d
ffffffff80008c36:	75 88                	jne    ffffffff80008bc0 <madt_init+0x1a0>
ffffffff80008c38:	48 83 c4 30          	add    rsp,0x30
ffffffff80008c3c:	5b                   	pop    rbx
ffffffff80008c3d:	5d                   	pop    rbp
ffffffff80008c3e:	41 5c                	pop    r12
ffffffff80008c40:	c3                   	ret
ffffffff80008c41:	0f 1f 80 00 00 00 00 	nop    DWORD PTR [rax+0x0]
ffffffff80008c48:	48 8d 53 08          	lea    rdx,[rbx+0x8]
ffffffff80008c4c:	48 83 fb f8          	cmp    rbx,0xfffffffffffffff8
ffffffff80008c50:	0f 83 fb 03 00 00    	jae    ffffffff80009051 <madt_init+0x631>
ffffffff80008c56:	8b 43 08             	mov    eax,DWORD PTR [rbx+0x8]
ffffffff80008c59:	48 8d 53 0c          	lea    rdx,[rbx+0xc]
ffffffff80008c5d:	48 83 fb f4          	cmp    rbx,0xfffffffffffffff4
ffffffff80008c61:	0f 83 ce 03 00 00    	jae    ffffffff80009035 <madt_init+0x615>
ffffffff80008c67:	48 83 ec 08          	sub    rsp,0x8
ffffffff80008c6b:	44 8b 4b 0c          	mov    r9d,DWORD PTR [rbx+0xc]
ffffffff80008c6f:	44 8b 43 04          	mov    r8d,DWORD PTR [rbx+0x4]
ffffffff80008c73:	ba 4e 00 00 00       	mov    edx,0x4e
ffffffff80008c78:	50                   	push   rax
ffffffff80008c79:	48 c7 c1 a0 cc 00 80 	mov    rcx,0xffffffff8000cca0
ffffffff80008c80:	31 c0                	xor    eax,eax
ffffffff80008c82:	48 c7 c6 58 ce 00 80 	mov    rsi,0xffffffff8000ce58
ffffffff80008c89:	48 c7 c7 c7 c4 00 80 	mov    rdi,0xffffffff8000c4c7
ffffffff80008c90:	e8 cb 9b ff ff       	call   ffffffff80002860 <log>
ffffffff80008c95:	48 89 de             	mov    rsi,rbx
ffffffff80008c98:	48 c7 c7 70 48 01 80 	mov    rdi,0xffffffff80014870
ffffffff80008c9f:	e8 2c 98 ff ff       	call   ffffffff800024d0 <vec_push>
ffffffff80008ca4:	58                   	pop    rax
ffffffff80008ca5:	5a                   	pop    rdx
ffffffff80008ca6:	e9 75 ff ff ff       	jmp    ffffffff80008c20 <madt_init+0x200>
ffffffff80008cab:	0f 1f 44 00 00       	nop    DWORD PTR [rax+rax*1+0x0]
ffffffff80008cb0:	48 8d 53 04          	lea    rdx,[rbx+0x4]
ffffffff80008cb4:	48 83 fb fc          	cmp    rbx,0xfffffffffffffffc
ffffffff80008cb8:	0f 83 63 03 00 00    	jae    ffffffff80009021 <madt_init+0x601>
ffffffff80008cbe:	4c 8b 43 04          	mov    r8,QWORD PTR [rbx+0x4]
ffffffff80008cc2:	48 c7 c1 78 cc 00 80 	mov    rcx,0xffffffff8000cc78
ffffffff80008cc9:	31 c0                	xor    eax,eax
ffffffff80008ccb:	ba 48 00 00 00       	mov    edx,0x48
ffffffff80008cd0:	48 c7 c6 58 ce 00 80 	mov    rsi,0xffffffff8000ce58
ffffffff80008cd7:	48 c7 c7 c7 c4 00 80 	mov    rdi,0xffffffff8000c4c7
ffffffff80008cde:	e8 7d 9b ff ff       	call   ffffffff80002860 <log>
ffffffff80008ce3:	48 89 de             	mov    rsi,rbx
ffffffff80008ce6:	48 c7 c7 90 48 01 80 	mov    rdi,0xffffffff80014890
ffffffff80008ced:	e8 de 97 ff ff       	call   ffffffff800024d0 <vec_push>
ffffffff80008cf2:	e9 29 ff ff ff       	jmp    ffffffff80008c20 <madt_init+0x200>
ffffffff80008cf7:	66 0f 1f 84 00 00 00 	nop    WORD PTR [rax+rax*1+0x0]
ffffffff80008cfe:	00 00 
ffffffff80008d00:	48 8d 53 03          	lea    rdx,[rbx+0x3]
ffffffff80008d04:	48 83 fb fd          	cmp    rbx,0xfffffffffffffffd
ffffffff80008d08:	0f 83 ad 02 00 00    	jae    ffffffff80008fbb <madt_init+0x59b>
ffffffff80008d0e:	0f b7 43 03          	movzx  eax,WORD PTR [rbx+0x3]
ffffffff80008d12:	48 8d 53 05          	lea    rdx,[rbx+0x5]
ffffffff80008d16:	48 83 fb fb          	cmp    rbx,0xfffffffffffffffb
ffffffff80008d1a:	0f 83 7f 02 00 00    	jae    ffffffff80008f9f <madt_init+0x57f>
ffffffff80008d20:	48 83 ec 08          	sub    rsp,0x8
ffffffff80008d24:	44 0f b6 4b 05       	movzx  r9d,BYTE PTR [rbx+0x5]
ffffffff80008d29:	44 0f b6 43 02       	movzx  r8d,BYTE PTR [rbx+0x2]
ffffffff80008d2e:	48 c7 c1 40 cc 00 80 	mov    rcx,0xffffffff8000cc40
ffffffff80008d35:	50                   	push   rax
ffffffff80008d36:	ba 42 00 00 00       	mov    edx,0x42
ffffffff80008d3b:	48 c7 c6 58 ce 00 80 	mov    rsi,0xffffffff8000ce58
ffffffff80008d42:	31 c0                	xor    eax,eax
ffffffff80008d44:	48 c7 c7 c7 c4 00 80 	mov    rdi,0xffffffff8000c4c7
ffffffff80008d4b:	e8 10 9b ff ff       	call   ffffffff80002860 <log>
ffffffff80008d50:	48 89 de             	mov    rsi,rbx
ffffffff80008d53:	48 c7 c7 b0 48 01 80 	mov    rdi,0xffffffff800148b0
ffffffff80008d5a:	e8 71 97 ff ff       	call   ffffffff800024d0 <vec_push>
ffffffff80008d5f:	59                   	pop    rcx
ffffffff80008d60:	5e                   	pop    rsi
ffffffff80008d61:	e9 ba fe ff ff       	jmp    ffffffff80008c20 <madt_init+0x200>
ffffffff80008d66:	66 2e 0f 1f 84 00 00 	cs nop WORD PTR [rax+rax*1+0x0]
ffffffff80008d6d:	00 00 00 
ffffffff80008d70:	48 8d 53 02          	lea    rdx,[rbx+0x2]
ffffffff80008d74:	48 83 fb fe          	cmp    rbx,0xfffffffffffffffe
ffffffff80008d78:	0f 83 0d 02 00 00    	jae    ffffffff80008f8b <madt_init+0x56b>
ffffffff80008d7e:	44 0f b7 4b 02       	movzx  r9d,WORD PTR [rbx+0x2]
ffffffff80008d83:	48 8d 53 04          	lea    rdx,[rbx+0x4]
ffffffff80008d87:	48 83 fb fc          	cmp    rbx,0xfffffffffffffffc
ffffffff80008d8b:	0f 83 dc 01 00 00    	jae    ffffffff80008f6d <madt_init+0x54d>
ffffffff80008d91:	44 8b 43 04          	mov    r8d,DWORD PTR [rbx+0x4]
ffffffff80008d95:	48 c7 c1 18 cc 00 80 	mov    rcx,0xffffffff8000cc18
ffffffff80008d9c:	31 c0                	xor    eax,eax
ffffffff80008d9e:	ba 3c 00 00 00       	mov    edx,0x3c
ffffffff80008da3:	48 c7 c6 58 ce 00 80 	mov    rsi,0xffffffff8000ce58
ffffffff80008daa:	48 c7 c7 c7 c4 00 80 	mov    rdi,0xffffffff8000c4c7
ffffffff80008db1:	e8 aa 9a ff ff       	call   ffffffff80002860 <log>
ffffffff80008db6:	48 89 de             	mov    rsi,rbx
ffffffff80008db9:	48 c7 c7 d0 48 01 80 	mov    rdi,0xffffffff800148d0
ffffffff80008dc0:	e8 0b 97 ff ff       	call   ffffffff800024d0 <vec_push>
ffffffff80008dc5:	e9 56 fe ff ff       	jmp    ffffffff80008c20 <madt_init+0x200>
ffffffff80008dca:	66 0f 1f 44 00 00    	nop    WORD PTR [rax+rax*1+0x0]
ffffffff80008dd0:	48 8d 53 08          	lea    rdx,[rbx+0x8]
ffffffff80008dd4:	48 83 fb f8          	cmp    rbx,0xfffffffffffffff8
ffffffff80008dd8:	0f 83 05 02 00 00    	jae    ffffffff80008fe3 <madt_init+0x5c3>
ffffffff80008dde:	0f b7 43 08          	movzx  eax,WORD PTR [rbx+0x8]
ffffffff80008de2:	44 0f b6 43 02       	movzx  r8d,BYTE PTR [rbx+0x2]
ffffffff80008de7:	48 c7 c1 d0 cb 00 80 	mov    rcx,0xffffffff8000cbd0
ffffffff80008dee:	ba 35 00 00 00       	mov    edx,0x35
ffffffff80008df3:	44 0f b6 4b 03       	movzx  r9d,BYTE PTR [rbx+0x3]
ffffffff80008df8:	48 c7 c6 58 ce 00 80 	mov    rsi,0xffffffff8000ce58
ffffffff80008dff:	48 c7 c7 c7 c4 00 80 	mov    rdi,0xffffffff8000c4c7
ffffffff80008e06:	50                   	push   rax
ffffffff80008e07:	8b 43 04             	mov    eax,DWORD PTR [rbx+0x4]
ffffffff80008e0a:	50                   	push   rax
ffffffff80008e0b:	31 c0                	xor    eax,eax
ffffffff80008e0d:	e8 4e 9a ff ff       	call   ffffffff80002860 <log>
ffffffff80008e12:	48 c7 c7 f0 48 01 80 	mov    rdi,0xffffffff800148f0
ffffffff80008e19:	48 89 de             	mov    rsi,rbx
ffffffff80008e1c:	e8 af 96 ff ff       	call   ffffffff800024d0 <vec_push>
ffffffff80008e21:	5f                   	pop    rdi
ffffffff80008e22:	41 58                	pop    r8
ffffffff80008e24:	e9 f7 fd ff ff       	jmp    ffffffff80008c20 <madt_init+0x200>
ffffffff80008e29:	0f 1f 80 00 00 00 00 	nop    DWORD PTR [rax+0x0]
ffffffff80008e30:	48 8d 53 08          	lea    rdx,[rbx+0x8]
ffffffff80008e34:	48 83 fb f8          	cmp    rbx,0xfffffffffffffff8
ffffffff80008e38:	0f 83 91 01 00 00    	jae    ffffffff80008fcf <madt_init+0x5af>
ffffffff80008e3e:	8b 43 08             	mov    eax,DWORD PTR [rbx+0x8]
ffffffff80008e41:	48 83 ec 08          	sub    rsp,0x8
ffffffff80008e45:	44 8b 4b 04          	mov    r9d,DWORD PTR [rbx+0x4]
ffffffff80008e49:	ba 2f 00 00 00       	mov    edx,0x2f
ffffffff80008e4e:	44 0f b6 43 02       	movzx  r8d,BYTE PTR [rbx+0x2]
ffffffff80008e53:	48 c7 c1 a0 cb 00 80 	mov    rcx,0xffffffff8000cba0
ffffffff80008e5a:	48 c7 c6 58 ce 00 80 	mov    rsi,0xffffffff8000ce58
ffffffff80008e61:	48 c7 c7 c7 c4 00 80 	mov    rdi,0xffffffff8000c4c7
ffffffff80008e68:	50                   	push   rax
ffffffff80008e69:	31 c0                	xor    eax,eax
ffffffff80008e6b:	e8 f0 99 ff ff       	call   ffffffff80002860 <log>
ffffffff80008e70:	48 89 de             	mov    rsi,rbx
ffffffff80008e73:	48 c7 c7 10 49 01 80 	mov    rdi,0xffffffff80014910
ffffffff80008e7a:	e8 51 96 ff ff       	call   ffffffff800024d0 <vec_push>
ffffffff80008e7f:	41 59                	pop    r9
ffffffff80008e81:	41 5a                	pop    r10
ffffffff80008e83:	e9 98 fd ff ff       	jmp    ffffffff80008c20 <madt_init+0x200>
ffffffff80008e88:	0f 1f 84 00 00 00 00 	nop    DWORD PTR [rax+rax*1+0x0]
ffffffff80008e8f:	00 
ffffffff80008e90:	48 8d 53 04          	lea    rdx,[rbx+0x4]
ffffffff80008e94:	48 83 fb fc          	cmp    rbx,0xfffffffffffffffc
ffffffff80008e98:	0f 83 bb 00 00 00    	jae    ffffffff80008f59 <madt_init+0x539>
ffffffff80008e9e:	8b 43 04             	mov    eax,DWORD PTR [rbx+0x4]
ffffffff80008ea1:	48 83 ec 08          	sub    rsp,0x8
ffffffff80008ea5:	44 0f b6 4b 03       	movzx  r9d,BYTE PTR [rbx+0x3]
ffffffff80008eaa:	48 c7 c1 68 cb 00 80 	mov    rcx,0xffffffff8000cb68
ffffffff80008eb1:	44 0f b6 43 02       	movzx  r8d,BYTE PTR [rbx+0x2]
ffffffff80008eb6:	ba 29 00 00 00       	mov    edx,0x29
ffffffff80008ebb:	48 c7 c6 58 ce 00 80 	mov    rsi,0xffffffff8000ce58
ffffffff80008ec2:	48 c7 c7 c7 c4 00 80 	mov    rdi,0xffffffff8000c4c7
ffffffff80008ec9:	50                   	push   rax
ffffffff80008eca:	31 c0                	xor    eax,eax
ffffffff80008ecc:	e8 8f 99 ff ff       	call   ffffffff80002860 <log>
ffffffff80008ed1:	48 89 de             	mov    rsi,rbx
ffffffff80008ed4:	48 c7 c7 30 49 01 80 	mov    rdi,0xffffffff80014930
ffffffff80008edb:	e8 f0 95 ff ff       	call   ffffffff800024d0 <vec_push>
ffffffff80008ee0:	41 5b                	pop    r11
ffffffff80008ee2:	58                   	pop    rax
ffffffff80008ee3:	e9 38 fd ff ff       	jmp    ffffffff80008c20 <madt_init+0x200>
ffffffff80008ee8:	0f 1f 84 00 00 00 00 	nop    DWORD PTR [rax+rax*1+0x0]
ffffffff80008eef:	00 
ffffffff80008ef0:	48 c7 c1 b8 c4 00 80 	mov    rcx,0xffffffff8000c4b8
ffffffff80008ef7:	ba 11 00 00 00       	mov    edx,0x11
ffffffff80008efc:	48 c7 c6 58 ce 00 80 	mov    rsi,0xffffffff8000ce58
ffffffff80008f03:	31 c0                	xor    eax,eax
ffffffff80008f05:	48 c7 c7 c7 c4 00 80 	mov    rdi,0xffffffff8000c4c7
ffffffff80008f0c:	e8 4f 99 ff ff       	call   ffffffff80002860 <log>
ffffffff80008f11:	e8 aa 98 ff ff       	call   ffffffff800027c0 <hcf>
ffffffff80008f16:	e9 25 fb ff ff       	jmp    ffffffff80008a40 <madt_init+0x20>
ffffffff80008f1b:	31 f6                	xor    esi,esi
ffffffff80008f1d:	48 c7 c7 a0 18 01 80 	mov    rdi,0xffffffff800118a0
ffffffff80008f24:	e8 67 cb ff ff       	call   ffffffff80005a90 <__ubsan_handle_type_mismatch_v1>
ffffffff80008f29:	e9 9b fc ff ff       	jmp    ffffffff80008bc9 <madt_init+0x1a9>
ffffffff80008f2e:	48 89 ea             	mov    rdx,rbp
ffffffff80008f31:	48 89 de             	mov    rsi,rbx
ffffffff80008f34:	48 c7 c7 d0 17 01 80 	mov    rdi,0xffffffff800117d0
ffffffff80008f3b:	e8 a0 d3 ff ff       	call   ffffffff800062e0 <__ubsan_handle_pointer_overflow>
ffffffff80008f40:	e9 eb fc ff ff       	jmp    ffffffff80008c30 <madt_init+0x210>
ffffffff80008f45:	48 89 de             	mov    rsi,rbx
ffffffff80008f48:	48 c7 c7 80 18 01 80 	mov    rdi,0xffffffff80011880
ffffffff80008f4f:	e8 8c d3 ff ff       	call   ffffffff800062e0 <__ubsan_handle_pointer_overflow>
ffffffff80008f54:	e9 7e fc ff ff       	jmp    ffffffff80008bd7 <madt_init+0x1b7>
ffffffff80008f59:	48 89 de             	mov    rsi,rbx
ffffffff80008f5c:	48 c7 c7 70 18 01 80 	mov    rdi,0xffffffff80011870
ffffffff80008f63:	e8 78 d3 ff ff       	call   ffffffff800062e0 <__ubsan_handle_pointer_overflow>
ffffffff80008f68:	e9 31 ff ff ff       	jmp    ffffffff80008e9e <madt_init+0x47e>
ffffffff80008f6d:	48 89 de             	mov    rsi,rbx
ffffffff80008f70:	48 c7 c7 30 18 01 80 	mov    rdi,0xffffffff80011830
ffffffff80008f77:	44 89 4c 24 0c       	mov    DWORD PTR [rsp+0xc],r9d
ffffffff80008f7c:	e8 5f d3 ff ff       	call   ffffffff800062e0 <__ubsan_handle_pointer_overflow>
ffffffff80008f81:	44 8b 4c 24 0c       	mov    r9d,DWORD PTR [rsp+0xc]
ffffffff80008f86:	e9 06 fe ff ff       	jmp    ffffffff80008d91 <madt_init+0x371>
ffffffff80008f8b:	48 89 de             	mov    rsi,rbx
ffffffff80008f8e:	48 c7 c7 40 18 01 80 	mov    rdi,0xffffffff80011840
ffffffff80008f95:	e8 46 d3 ff ff       	call   ffffffff800062e0 <__ubsan_handle_pointer_overflow>
ffffffff80008f9a:	e9 df fd ff ff       	jmp    ffffffff80008d7e <madt_init+0x35e>
ffffffff80008f9f:	48 89 de             	mov    rsi,rbx
ffffffff80008fa2:	48 c7 c7 10 18 01 80 	mov    rdi,0xffffffff80011810
ffffffff80008fa9:	89 44 24 0c          	mov    DWORD PTR [rsp+0xc],eax
ffffffff80008fad:	e8 2e d3 ff ff       	call   ffffffff800062e0 <__ubsan_handle_pointer_overflow>
ffffffff80008fb2:	8b 44 24 0c          	mov    eax,DWORD PTR [rsp+0xc]
ffffffff80008fb6:	e9 65 fd ff ff       	jmp    ffffffff80008d20 <madt_init+0x300>
ffffffff80008fbb:	48 89 de             	mov    rsi,rbx
ffffffff80008fbe:	48 c7 c7 20 18 01 80 	mov    rdi,0xffffffff80011820
ffffffff80008fc5:	e8 16 d3 ff ff       	call   ffffffff800062e0 <__ubsan_handle_pointer_overflow>
ffffffff80008fca:	e9 3f fd ff ff       	jmp    ffffffff80008d0e <madt_init+0x2ee>
ffffffff80008fcf:	48 89 de             	mov    rsi,rbx
ffffffff80008fd2:	48 c7 c7 60 18 01 80 	mov    rdi,0xffffffff80011860
ffffffff80008fd9:	e8 02 d3 ff ff       	call   ffffffff800062e0 <__ubsan_handle_pointer_overflow>
ffffffff80008fde:	e9 5b fe ff ff       	jmp    ffffffff80008e3e <madt_init+0x41e>
ffffffff80008fe3:	48 89 de             	mov    rsi,rbx
ffffffff80008fe6:	48 c7 c7 50 18 01 80 	mov    rdi,0xffffffff80011850
ffffffff80008fed:	e8 ee d2 ff ff       	call   ffffffff800062e0 <__ubsan_handle_pointer_overflow>
ffffffff80008ff2:	e9 e7 fd ff ff       	jmp    ffffffff80008dde <madt_init+0x3be>
ffffffff80008ff7:	31 f6                	xor    esi,esi
ffffffff80008ff9:	48 c7 c7 00 19 01 80 	mov    rdi,0xffffffff80011900
ffffffff80009000:	e8 8b ca ff ff       	call   ffffffff80005a90 <__ubsan_handle_type_mismatch_v1>
ffffffff80009005:	e9 81 fb ff ff       	jmp    ffffffff80008b8b <madt_init+0x16b>
ffffffff8000900a:	48 89 da             	mov    rdx,rbx
ffffffff8000900d:	48 89 ee             	mov    rsi,rbp
ffffffff80009010:	48 c7 c7 e0 18 01 80 	mov    rdi,0xffffffff800118e0
ffffffff80009017:	e8 c4 d2 ff ff       	call   ffffffff800062e0 <__ubsan_handle_pointer_overflow>
ffffffff8000901c:	e9 8d fb ff ff       	jmp    ffffffff80008bae <madt_init+0x18e>
ffffffff80009021:	48 89 de             	mov    rsi,rbx
ffffffff80009024:	48 c7 c7 00 18 01 80 	mov    rdi,0xffffffff80011800
ffffffff8000902b:	e8 b0 d2 ff ff       	call   ffffffff800062e0 <__ubsan_handle_pointer_overflow>
ffffffff80009030:	e9 89 fc ff ff       	jmp    ffffffff80008cbe <madt_init+0x29e>
ffffffff80009035:	48 89 de             	mov    rsi,rbx
ffffffff80009038:	48 c7 c7 e0 17 01 80 	mov    rdi,0xffffffff800117e0
ffffffff8000903f:	89 44 24 0c          	mov    DWORD PTR [rsp+0xc],eax
ffffffff80009043:	e8 98 d2 ff ff       	call   ffffffff800062e0 <__ubsan_handle_pointer_overflow>
ffffffff80009048:	8b 44 24 0c          	mov    eax,DWORD PTR [rsp+0xc]
ffffffff8000904c:	e9 16 fc ff ff       	jmp    ffffffff80008c67 <madt_init+0x247>
ffffffff80009051:	48 89 de             	mov    rsi,rbx
ffffffff80009054:	48 c7 c7 f0 17 01 80 	mov    rdi,0xffffffff800117f0
ffffffff8000905b:	e8 80 d2 ff ff       	call   ffffffff800062e0 <__ubsan_handle_pointer_overflow>
ffffffff80009060:	e9 f1 fb ff ff       	jmp    ffffffff80008c56 <madt_init+0x236>
ffffffff80009065:	48 89 ee             	mov    rsi,rbp
ffffffff80009068:	48 c7 c7 f0 18 01 80 	mov    rdi,0xffffffff800118f0
ffffffff8000906f:	e8 6c d2 ff ff       	call   ffffffff800062e0 <__ubsan_handle_pointer_overflow>
ffffffff80009074:	e9 20 fb ff ff       	jmp    ffffffff80008b99 <madt_init+0x179>
ffffffff80009079:	0f 1f 80 00 00 00 00 	nop    DWORD PTR [rax+0x0]

ffffffff80009080 <proc_enqueue>:
ffffffff80009080:	53                   	push   rbx
ffffffff80009081:	48 89 fb             	mov    rbx,rdi
ffffffff80009084:	bf 01 00 00 00       	mov    edi,0x1
ffffffff80009089:	48 83 ec 30          	sub    rsp,0x30
ffffffff8000908d:	e8 0e b9 ff ff       	call   ffffffff800049a0 <pmm_alloc>
ffffffff80009092:	48 c7 c2 c0 00 00 80 	mov    rdx,0xffffffff800000c0
ffffffff80009099:	48 83 fa d8          	cmp    rdx,0xffffffffffffffd8
ffffffff8000909d:	0f 83 79 02 00 00    	jae    ffffffff8000931c <proc_enqueue+0x29c>
ffffffff800090a3:	48 8b 0d 3e 70 ff ff 	mov    rcx,QWORD PTR [rip+0xffffffffffff703e]        # ffffffff800000e8 <hhdm_request+0x28>
ffffffff800090aa:	48 85 c9             	test   rcx,rcx
ffffffff800090ad:	0f 84 41 02 00 00    	je     ffffffff800092f4 <proc_enqueue+0x274>
ffffffff800090b3:	f6 c1 07             	test   cl,0x7
ffffffff800090b6:	0f 85 38 02 00 00    	jne    ffffffff800092f4 <proc_enqueue+0x274>
ffffffff800090bc:	48 8d 51 08          	lea    rdx,[rcx+0x8]
ffffffff800090c0:	48 83 f9 f8          	cmp    rcx,0xfffffffffffffff8
ffffffff800090c4:	0f 83 02 02 00 00    	jae    ffffffff800092cc <proc_enqueue+0x24c>
ffffffff800090ca:	48 8b 51 08          	mov    rdx,QWORD PTR [rcx+0x8]
ffffffff800090ce:	48 8b 0d 13 70 ff ff 	mov    rcx,QWORD PTR [rip+0xffffffffffff7013]        # ffffffff800000e8 <hhdm_request+0x28>
ffffffff800090d5:	4c 8d 8c 10 ff 0f 00 	lea    r9,[rax+rdx*1+0xfff]
ffffffff800090dc:	00 
ffffffff800090dd:	48 85 c9             	test   rcx,rcx
ffffffff800090e0:	0f 84 b4 01 00 00    	je     ffffffff8000929a <proc_enqueue+0x21a>
ffffffff800090e6:	f6 c1 07             	test   cl,0x7
ffffffff800090e9:	0f 85 ab 01 00 00    	jne    ffffffff8000929a <proc_enqueue+0x21a>
ffffffff800090ef:	48 8d 51 08          	lea    rdx,[rcx+0x8]
ffffffff800090f3:	48 83 f9 f8          	cmp    rcx,0xfffffffffffffff8
ffffffff800090f7:	0f 83 6b 01 00 00    	jae    ffffffff80009268 <proc_enqueue+0x1e8>
ffffffff800090fd:	48 03 41 08          	add    rax,QWORD PTR [rcx+0x8]
ffffffff80009101:	48 8b 0d 48 b8 00 00 	mov    rcx,QWORD PTR [rip+0xb848]        # ffffffff80014950 <proc_len>
ffffffff80009108:	48 83 f9 08          	cmp    rcx,0x8
ffffffff8000910c:	0f 83 24 01 00 00    	jae    ffffffff80009236 <proc_enqueue+0x1b6>
ffffffff80009112:	48 69 d1 b8 00 00 00 	imul   rdx,rcx,0xb8
ffffffff80009119:	48 8d b2 b8 00 00 00 	lea    rsi,[rdx+0xb8]
ffffffff80009120:	4c 8d 82 60 49 01 80 	lea    r8,[rdx-0x7ffeb6a0]
ffffffff80009127:	48 81 fe c0 05 00 00 	cmp    rsi,0x5c0
ffffffff8000912e:	0f 87 b3 00 00 00    	ja     ffffffff800091e7 <proc_enqueue+0x167>
ffffffff80009134:	48 85 d2             	test   rdx,rdx
ffffffff80009137:	78 5f                	js     ffffffff80009198 <proc_enqueue+0x118>
ffffffff80009139:	49 81 f8 60 49 01 80 	cmp    r8,0xffffffff80014960
ffffffff80009140:	72 62                	jb     ffffffff800091a4 <proc_enqueue+0x124>
ffffffff80009142:	48 69 d1 b8 00 00 00 	imul   rdx,rcx,0xb8
ffffffff80009149:	48 83 c1 01          	add    rcx,0x1
ffffffff8000914d:	48 89 0d fc b7 00 00 	mov    QWORD PTR [rip+0xb7fc],rcx        # ffffffff80014950 <proc_len>
ffffffff80009154:	48 89 9a 60 49 01 80 	mov    QWORD PTR [rdx-0x7ffeb6a0],rbx
ffffffff8000915b:	4d 89 48 48          	mov    QWORD PTR [r8+0x48],r9
ffffffff8000915f:	48 89 9a f0 49 01 80 	mov    QWORD PTR [rdx-0x7ffeb610],rbx
ffffffff80009166:	48 c7 82 f8 49 01 80 	mov    QWORD PTR [rdx-0x7ffeb608],0x28
ffffffff8000916d:	28 00 00 00 
ffffffff80009171:	48 c7 82 00 4a 01 80 	mov    QWORD PTR [rdx-0x7ffeb600],0x282
ffffffff80009178:	82 02 00 00 
ffffffff8000917c:	48 89 82 08 4a 01 80 	mov    QWORD PTR [rdx-0x7ffeb5f8],rax
ffffffff80009183:	48 c7 82 10 4a 01 80 	mov    QWORD PTR [rdx-0x7ffeb5f0],0x30
ffffffff8000918a:	30 00 00 00 
ffffffff8000918e:	48 83 c4 30          	add    rsp,0x30
ffffffff80009192:	5b                   	pop    rbx
ffffffff80009193:	c3                   	ret
ffffffff80009194:	0f 1f 40 00          	nop    DWORD PTR [rax+0x0]
ffffffff80009198:	48 c7 c2 60 49 01 80 	mov    rdx,0xffffffff80014960
ffffffff8000919f:	4c 39 c2             	cmp    rdx,r8
ffffffff800091a2:	73 9e                	jae    ffffffff80009142 <proc_enqueue+0xc2>
ffffffff800091a4:	4c 89 c2             	mov    rdx,r8
ffffffff800091a7:	48 c7 c6 60 49 01 80 	mov    rsi,0xffffffff80014960
ffffffff800091ae:	48 89 4c 24 20       	mov    QWORD PTR [rsp+0x20],rcx
ffffffff800091b3:	48 c7 c7 00 1b 01 80 	mov    rdi,0xffffffff80011b00
ffffffff800091ba:	48 89 44 24 18       	mov    QWORD PTR [rsp+0x18],rax
ffffffff800091bf:	4c 89 4c 24 10       	mov    QWORD PTR [rsp+0x10],r9
ffffffff800091c4:	4c 89 44 24 08       	mov    QWORD PTR [rsp+0x8],r8
ffffffff800091c9:	e8 12 d1 ff ff       	call   ffffffff800062e0 <__ubsan_handle_pointer_overflow>
ffffffff800091ce:	4c 8b 44 24 08       	mov    r8,QWORD PTR [rsp+0x8]
ffffffff800091d3:	4c 8b 4c 24 10       	mov    r9,QWORD PTR [rsp+0x10]
ffffffff800091d8:	48 8b 44 24 18       	mov    rax,QWORD PTR [rsp+0x18]
ffffffff800091dd:	48 8b 4c 24 20       	mov    rcx,QWORD PTR [rsp+0x20]
ffffffff800091e2:	e9 5b ff ff ff       	jmp    ffffffff80009142 <proc_enqueue+0xc2>
ffffffff800091e7:	4c 01 c6             	add    rsi,r8
ffffffff800091ea:	0f 82 44 ff ff ff    	jb     ffffffff80009134 <proc_enqueue+0xb4>
ffffffff800091f0:	4c 89 c6             	mov    rsi,r8
ffffffff800091f3:	48 c7 c7 20 1b 01 80 	mov    rdi,0xffffffff80011b20
ffffffff800091fa:	48 89 54 24 28       	mov    QWORD PTR [rsp+0x28],rdx
ffffffff800091ff:	48 89 4c 24 20       	mov    QWORD PTR [rsp+0x20],rcx
ffffffff80009204:	48 89 44 24 18       	mov    QWORD PTR [rsp+0x18],rax
ffffffff80009209:	4c 89 4c 24 10       	mov    QWORD PTR [rsp+0x10],r9
ffffffff8000920e:	4c 89 44 24 08       	mov    QWORD PTR [rsp+0x8],r8
ffffffff80009213:	e8 78 c8 ff ff       	call   ffffffff80005a90 <__ubsan_handle_type_mismatch_v1>
ffffffff80009218:	48 8b 54 24 28       	mov    rdx,QWORD PTR [rsp+0x28]
ffffffff8000921d:	48 8b 4c 24 20       	mov    rcx,QWORD PTR [rsp+0x20]
ffffffff80009222:	48 8b 44 24 18       	mov    rax,QWORD PTR [rsp+0x18]
ffffffff80009227:	4c 8b 4c 24 10       	mov    r9,QWORD PTR [rsp+0x10]
ffffffff8000922c:	4c 8b 44 24 08       	mov    r8,QWORD PTR [rsp+0x8]
ffffffff80009231:	e9 fe fe ff ff       	jmp    ffffffff80009134 <proc_enqueue+0xb4>
ffffffff80009236:	48 89 ce             	mov    rsi,rcx
ffffffff80009239:	48 c7 c7 60 1b 01 80 	mov    rdi,0xffffffff80011b60
ffffffff80009240:	48 89 44 24 18       	mov    QWORD PTR [rsp+0x18],rax
ffffffff80009245:	4c 89 4c 24 10       	mov    QWORD PTR [rsp+0x10],r9
ffffffff8000924a:	48 89 4c 24 08       	mov    QWORD PTR [rsp+0x8],rcx
ffffffff8000924f:	e8 2c d1 ff ff       	call   ffffffff80006380 <__ubsan_handle_out_of_bounds>
ffffffff80009254:	48 8b 44 24 18       	mov    rax,QWORD PTR [rsp+0x18]
ffffffff80009259:	4c 8b 4c 24 10       	mov    r9,QWORD PTR [rsp+0x10]
ffffffff8000925e:	48 8b 4c 24 08       	mov    rcx,QWORD PTR [rsp+0x8]
ffffffff80009263:	e9 aa fe ff ff       	jmp    ffffffff80009112 <proc_enqueue+0x92>
ffffffff80009268:	48 89 ce             	mov    rsi,rcx
ffffffff8000926b:	48 c7 c7 90 1b 01 80 	mov    rdi,0xffffffff80011b90
ffffffff80009272:	48 89 44 24 18       	mov    QWORD PTR [rsp+0x18],rax
ffffffff80009277:	4c 89 4c 24 10       	mov    QWORD PTR [rsp+0x10],r9
ffffffff8000927c:	48 89 4c 24 08       	mov    QWORD PTR [rsp+0x8],rcx
ffffffff80009281:	e8 5a d0 ff ff       	call   ffffffff800062e0 <__ubsan_handle_pointer_overflow>
ffffffff80009286:	48 8b 44 24 18       	mov    rax,QWORD PTR [rsp+0x18]
ffffffff8000928b:	4c 8b 4c 24 10       	mov    r9,QWORD PTR [rsp+0x10]
ffffffff80009290:	48 8b 4c 24 08       	mov    rcx,QWORD PTR [rsp+0x8]
ffffffff80009295:	e9 63 fe ff ff       	jmp    ffffffff800090fd <proc_enqueue+0x7d>
ffffffff8000929a:	48 89 ce             	mov    rsi,rcx
ffffffff8000929d:	48 c7 c7 a0 1b 01 80 	mov    rdi,0xffffffff80011ba0
ffffffff800092a4:	48 89 44 24 18       	mov    QWORD PTR [rsp+0x18],rax
ffffffff800092a9:	4c 89 4c 24 10       	mov    QWORD PTR [rsp+0x10],r9
ffffffff800092ae:	48 89 4c 24 08       	mov    QWORD PTR [rsp+0x8],rcx
ffffffff800092b3:	e8 d8 c7 ff ff       	call   ffffffff80005a90 <__ubsan_handle_type_mismatch_v1>
ffffffff800092b8:	48 8b 44 24 18       	mov    rax,QWORD PTR [rsp+0x18]
ffffffff800092bd:	4c 8b 4c 24 10       	mov    r9,QWORD PTR [rsp+0x10]
ffffffff800092c2:	48 8b 4c 24 08       	mov    rcx,QWORD PTR [rsp+0x8]
ffffffff800092c7:	e9 23 fe ff ff       	jmp    ffffffff800090ef <proc_enqueue+0x6f>
ffffffff800092cc:	48 89 ce             	mov    rsi,rcx
ffffffff800092cf:	48 c7 c7 c0 1b 01 80 	mov    rdi,0xffffffff80011bc0
ffffffff800092d6:	48 89 44 24 10       	mov    QWORD PTR [rsp+0x10],rax
ffffffff800092db:	48 89 4c 24 08       	mov    QWORD PTR [rsp+0x8],rcx
ffffffff800092e0:	e8 fb cf ff ff       	call   ffffffff800062e0 <__ubsan_handle_pointer_overflow>
ffffffff800092e5:	48 8b 44 24 10       	mov    rax,QWORD PTR [rsp+0x10]
ffffffff800092ea:	48 8b 4c 24 08       	mov    rcx,QWORD PTR [rsp+0x8]
ffffffff800092ef:	e9 d6 fd ff ff       	jmp    ffffffff800090ca <proc_enqueue+0x4a>
ffffffff800092f4:	48 89 ce             	mov    rsi,rcx
ffffffff800092f7:	48 c7 c7 e0 1b 01 80 	mov    rdi,0xffffffff80011be0
ffffffff800092fe:	48 89 44 24 10       	mov    QWORD PTR [rsp+0x10],rax
ffffffff80009303:	48 89 4c 24 08       	mov    QWORD PTR [rsp+0x8],rcx
ffffffff80009308:	e8 83 c7 ff ff       	call   ffffffff80005a90 <__ubsan_handle_type_mismatch_v1>
ffffffff8000930d:	48 8b 44 24 10       	mov    rax,QWORD PTR [rsp+0x10]
ffffffff80009312:	48 8b 4c 24 08       	mov    rcx,QWORD PTR [rsp+0x8]
ffffffff80009317:	e9 a0 fd ff ff       	jmp    ffffffff800090bc <proc_enqueue+0x3c>
ffffffff8000931c:	48 c7 c2 e8 00 00 80 	mov    rdx,0xffffffff800000e8
ffffffff80009323:	48 c7 c6 c0 00 00 80 	mov    rsi,0xffffffff800000c0
ffffffff8000932a:	48 89 44 24 08       	mov    QWORD PTR [rsp+0x8],rax
ffffffff8000932f:	48 c7 c7 30 1c 01 80 	mov    rdi,0xffffffff80011c30
ffffffff80009336:	e8 a5 cf ff ff       	call   ffffffff800062e0 <__ubsan_handle_pointer_overflow>
ffffffff8000933b:	48 8b 44 24 08       	mov    rax,QWORD PTR [rsp+0x8]
ffffffff80009340:	e9 5e fd ff ff       	jmp    ffffffff800090a3 <proc_enqueue+0x23>

ffffffff80009345 <proc_switch.cold>:
ffffffff80009345:	48 89 c6             	mov    rsi,rax
ffffffff80009348:	31 d2                	xor    edx,edx
ffffffff8000934a:	4c 89 54 24 10       	mov    QWORD PTR [rsp+0x10],r10
ffffffff8000934f:	48 c7 c7 90 1c 01 80 	mov    rdi,0xffffffff80011c90
ffffffff80009356:	48 89 44 24 08       	mov    QWORD PTR [rsp+0x8],rax
ffffffff8000935b:	e8 f0 cd ff ff       	call   ffffffff80006150 <__ubsan_handle_divrem_overflow>
ffffffff80009360:	48 8b 44 24 08       	mov    rax,QWORD PTR [rsp+0x8]
ffffffff80009365:	4c 8b 54 24 10       	mov    r10,QWORD PTR [rsp+0x10]
ffffffff8000936a:	e9 38 01 00 00       	jmp    ffffffff800094a7 <proc_switch+0xd7>
ffffffff8000936f:	48 89 7c 24 10       	mov    QWORD PTR [rsp+0x10],rdi
ffffffff80009374:	0f b6 f2             	movzx  esi,dl
ffffffff80009377:	48 c7 c7 40 1c 01 80 	mov    rdi,0xffffffff80011c40
ffffffff8000937e:	88 54 24 08          	mov    BYTE PTR [rsp+0x8],dl
ffffffff80009382:	e8 39 d2 ff ff       	call   ffffffff800065c0 <__ubsan_handle_load_invalid_value>
ffffffff80009387:	0f b6 54 24 08       	movzx  edx,BYTE PTR [rsp+0x8]
ffffffff8000938c:	4c 8b 44 24 10       	mov    r8,QWORD PTR [rsp+0x10]
ffffffff80009391:	e9 51 00 00 00       	jmp    ffffffff800093e7 <proc_switch+0x17>
ffffffff80009396:	48 89 c6             	mov    rsi,rax
ffffffff80009399:	31 d2                	xor    edx,edx
ffffffff8000939b:	4c 89 44 24 18       	mov    QWORD PTR [rsp+0x18],r8
ffffffff800093a0:	48 c7 c7 70 1c 01 80 	mov    rdi,0xffffffff80011c70
ffffffff800093a7:	4c 89 54 24 10       	mov    QWORD PTR [rsp+0x10],r10
ffffffff800093ac:	48 89 44 24 08       	mov    QWORD PTR [rsp+0x8],rax
ffffffff800093b1:	e8 9a cd ff ff       	call   ffffffff80006150 <__ubsan_handle_divrem_overflow>
ffffffff800093b6:	48 8b 44 24 08       	mov    rax,QWORD PTR [rsp+0x8]
ffffffff800093bb:	4c 8b 54 24 10       	mov    r10,QWORD PTR [rsp+0x10]
ffffffff800093c0:	4c 8b 44 24 18       	mov    r8,QWORD PTR [rsp+0x18]
ffffffff800093c5:	e9 4e 01 00 00       	jmp    ffffffff80009518 <proc_switch+0x148>
ffffffff800093ca:	66 0f 1f 44 00 00    	nop    WORD PTR [rax+rax*1+0x0]

ffffffff800093d0 <proc_switch>:
ffffffff800093d0:	48 83 ec 48          	sub    rsp,0x48
ffffffff800093d4:	0f b6 15 e5 88 00 00 	movzx  edx,BYTE PTR [rip+0x88e5]        # ffffffff80011cc0 <first>
ffffffff800093db:	49 89 f8             	mov    r8,rdi
ffffffff800093de:	80 fa 01             	cmp    dl,0x1
ffffffff800093e1:	0f 87 88 ff ff ff    	ja     ffffffff8000936f <proc_switch.cold+0x2a>
ffffffff800093e7:	48 8b 0d 5a b5 00 00 	mov    rcx,QWORD PTR [rip+0xb55a]        # ffffffff80014948 <proc_index>
ffffffff800093ee:	83 e2 01             	and    edx,0x1
ffffffff800093f1:	4c 8b 15 58 b5 00 00 	mov    r10,QWORD PTR [rip+0xb558]        # ffffffff80014950 <proc_len>
ffffffff800093f8:	48 8d 41 01          	lea    rax,[rcx+0x1]
ffffffff800093fc:	0f 84 be 00 00 00    	je     ffffffff800094c0 <proc_switch+0xf0>
ffffffff80009402:	48 83 f9 09          	cmp    rcx,0x9
ffffffff80009406:	0f 83 90 02 00 00    	jae    ffffffff8000969c <proc_switch+0x2cc>
ffffffff8000940c:	4c 69 c9 b8 00 00 00 	imul   r9,rcx,0xb8
ffffffff80009413:	4d 8d 99 60 49 01 80 	lea    r11,[r9-0x7ffeb6a0]
ffffffff8000941a:	4d 85 c9             	test   r9,r9
ffffffff8000941d:	0f 89 ed 01 00 00    	jns    ffffffff80009610 <proc_switch+0x240>
ffffffff80009423:	48 c7 c2 60 49 01 80 	mov    rdx,0xffffffff80014960
ffffffff8000942a:	4c 39 da             	cmp    rdx,r11
ffffffff8000942d:	0f 82 ea 01 00 00    	jb     ffffffff8000961d <proc_switch+0x24d>
ffffffff80009433:	ba c0 05 00 00       	mov    edx,0x5c0
ffffffff80009438:	4c 89 1d 19 b5 00 00 	mov    QWORD PTR [rip+0xb519],r11        # ffffffff80014958 <proc_current>
ffffffff8000943f:	49 39 d1             	cmp    r9,rdx
ffffffff80009442:	49 0f 43 d1          	cmovae rdx,r9
ffffffff80009446:	4c 29 ca             	sub    rdx,r9
ffffffff80009449:	4d 85 c0             	test   r8,r8
ffffffff8000944c:	0f 84 5c 04 00 00    	je     ffffffff800098ae <proc_switch+0x4de>
ffffffff80009452:	41 f6 c0 07          	test   r8b,0x7
ffffffff80009456:	0f 85 52 04 00 00    	jne    ffffffff800098ae <proc_switch+0x4de>
ffffffff8000945c:	49 81 c1 68 49 01 80 	add    r9,0xffffffff80014968
ffffffff80009463:	48 81 fa b8 00 00 00 	cmp    rdx,0xb8
ffffffff8000946a:	0f 82 f8 03 00 00    	jb     ffffffff80009868 <proc_switch+0x498>
ffffffff80009470:	49 8d 53 08          	lea    rdx,[r11+0x8]
ffffffff80009474:	49 83 fb f8          	cmp    r11,0xfffffffffffffff8
ffffffff80009478:	0f 83 ae 03 00 00    	jae    ffffffff8000982c <proc_switch+0x45c>
ffffffff8000947e:	48 69 f1 b8 00 00 00 	imul   rsi,rcx,0xb8
ffffffff80009485:	4c 89 c7             	mov    rdi,r8
ffffffff80009488:	b9 16 00 00 00       	mov    ecx,0x16
ffffffff8000948d:	48 89 05 b4 b4 00 00 	mov    QWORD PTR [rip+0xb4b4],rax        # ffffffff80014948 <proc_index>
ffffffff80009494:	48 81 c6 68 49 01 80 	add    rsi,0xffffffff80014968
ffffffff8000949b:	f3 48 a5             	rep movs QWORD PTR es:[rdi],QWORD PTR ds:[rsi]
ffffffff8000949e:	4d 85 d2             	test   r10,r10
ffffffff800094a1:	0f 84 9e fe ff ff    	je     ffffffff80009345 <proc_switch.cold>
ffffffff800094a7:	31 d2                	xor    edx,edx
ffffffff800094a9:	c6 05 10 88 00 00 00 	mov    BYTE PTR [rip+0x8810],0x0        # ffffffff80011cc0 <first>
ffffffff800094b0:	49 f7 f2             	div    r10
ffffffff800094b3:	48 89 15 8e b4 00 00 	mov    QWORD PTR [rip+0xb48e],rdx        # ffffffff80014948 <proc_index>
ffffffff800094ba:	48 83 c4 48          	add    rsp,0x48
ffffffff800094be:	c3                   	ret
ffffffff800094bf:	90                   	nop
ffffffff800094c0:	48 8b 0d 91 b4 00 00 	mov    rcx,QWORD PTR [rip+0xb491]        # ffffffff80014958 <proc_current>
ffffffff800094c7:	48 85 c9             	test   rcx,rcx
ffffffff800094ca:	0f 84 20 03 00 00    	je     ffffffff800097f0 <proc_switch+0x420>
ffffffff800094d0:	f6 c1 07             	test   cl,0x7
ffffffff800094d3:	0f 85 17 03 00 00    	jne    ffffffff800097f0 <proc_switch+0x420>
ffffffff800094d9:	4d 85 c0             	test   r8,r8
ffffffff800094dc:	0f 84 d2 02 00 00    	je     ffffffff800097b4 <proc_switch+0x3e4>
ffffffff800094e2:	41 f6 c0 07          	test   r8b,0x7
ffffffff800094e6:	0f 85 c8 02 00 00    	jne    ffffffff800097b4 <proc_switch+0x3e4>
ffffffff800094ec:	48 8d 51 08          	lea    rdx,[rcx+0x8]
ffffffff800094f0:	48 83 f9 f8          	cmp    rcx,0xfffffffffffffff8
ffffffff800094f4:	0f 83 7e 02 00 00    	jae    ffffffff80009778 <proc_switch+0x3a8>
ffffffff800094fa:	b9 16 00 00 00       	mov    ecx,0x16
ffffffff800094ff:	48 89 d7             	mov    rdi,rdx
ffffffff80009502:	4c 89 c6             	mov    rsi,r8
ffffffff80009505:	48 89 05 3c b4 00 00 	mov    QWORD PTR [rip+0xb43c],rax        # ffffffff80014948 <proc_index>
ffffffff8000950c:	f3 48 a5             	rep movs QWORD PTR es:[rdi],QWORD PTR ds:[rsi]
ffffffff8000950f:	4d 85 d2             	test   r10,r10
ffffffff80009512:	0f 84 7e fe ff ff    	je     ffffffff80009396 <proc_switch.cold+0x51>
ffffffff80009518:	31 d2                	xor    edx,edx
ffffffff8000951a:	49 f7 f2             	div    r10
ffffffff8000951d:	48 89 15 24 b4 00 00 	mov    QWORD PTR [rip+0xb424],rdx        # ffffffff80014948 <proc_index>
ffffffff80009524:	48 89 d1             	mov    rcx,rdx
ffffffff80009527:	48 83 fa 09          	cmp    rdx,0x9
ffffffff8000952b:	0f 83 43 01 00 00    	jae    ffffffff80009674 <proc_switch+0x2a4>
ffffffff80009531:	48 69 c1 b8 00 00 00 	imul   rax,rcx,0xb8
ffffffff80009538:	4c 8d 88 60 49 01 80 	lea    r9,[rax-0x7ffeb6a0]
ffffffff8000953f:	48 85 c0             	test   rax,rax
ffffffff80009542:	79 7c                	jns    ffffffff800095c0 <proc_switch+0x1f0>
ffffffff80009544:	48 c7 c2 60 49 01 80 	mov    rdx,0xffffffff80014960
ffffffff8000954b:	4c 39 ca             	cmp    rdx,r9
ffffffff8000954e:	72 79                	jb     ffffffff800095c9 <proc_switch+0x1f9>
ffffffff80009550:	ba c0 05 00 00       	mov    edx,0x5c0
ffffffff80009555:	4c 89 0d fc b3 00 00 	mov    QWORD PTR [rip+0xb3fc],r9        # ffffffff80014958 <proc_current>
ffffffff8000955c:	48 39 d0             	cmp    rax,rdx
ffffffff8000955f:	48 0f 43 d0          	cmovae rdx,rax
ffffffff80009563:	48 29 c2             	sub    rdx,rax
ffffffff80009566:	4d 85 c0             	test   r8,r8
ffffffff80009569:	0f 84 c3 01 00 00    	je     ffffffff80009732 <proc_switch+0x362>
ffffffff8000956f:	41 f6 c0 07          	test   r8b,0x7
ffffffff80009573:	0f 85 b9 01 00 00    	jne    ffffffff80009732 <proc_switch+0x362>
ffffffff80009579:	48 05 68 49 01 80    	add    rax,0xffffffff80014968
ffffffff8000957f:	48 81 fa b8 00 00 00 	cmp    rdx,0xb8
ffffffff80009586:	0f 82 74 01 00 00    	jb     ffffffff80009700 <proc_switch+0x330>
ffffffff8000958c:	49 8d 51 08          	lea    rdx,[r9+0x8]
ffffffff80009590:	49 83 f9 f8          	cmp    r9,0xfffffffffffffff8
ffffffff80009594:	0f 83 3e 01 00 00    	jae    ffffffff800096d8 <proc_switch+0x308>
ffffffff8000959a:	48 69 f1 b8 00 00 00 	imul   rsi,rcx,0xb8
ffffffff800095a1:	4c 89 c7             	mov    rdi,r8
ffffffff800095a4:	b9 16 00 00 00       	mov    ecx,0x16
ffffffff800095a9:	48 81 c6 68 49 01 80 	add    rsi,0xffffffff80014968
ffffffff800095b0:	f3 48 a5             	rep movs QWORD PTR es:[rdi],QWORD PTR ds:[rsi]
ffffffff800095b3:	48 83 c4 48          	add    rsp,0x48
ffffffff800095b7:	c3                   	ret
ffffffff800095b8:	0f 1f 84 00 00 00 00 	nop    DWORD PTR [rax+rax*1+0x0]
ffffffff800095bf:	00 
ffffffff800095c0:	49 81 f9 60 49 01 80 	cmp    r9,0xffffffff80014960
ffffffff800095c7:	73 87                	jae    ffffffff80009550 <proc_switch+0x180>
ffffffff800095c9:	4c 89 ca             	mov    rdx,r9
ffffffff800095cc:	48 c7 c6 60 49 01 80 	mov    rsi,0xffffffff80014960
ffffffff800095d3:	48 89 4c 24 20       	mov    QWORD PTR [rsp+0x20],rcx
ffffffff800095d8:	48 c7 c7 a0 19 01 80 	mov    rdi,0xffffffff800119a0
ffffffff800095df:	4c 89 44 24 18       	mov    QWORD PTR [rsp+0x18],r8
ffffffff800095e4:	48 89 44 24 10       	mov    QWORD PTR [rsp+0x10],rax
ffffffff800095e9:	4c 89 4c 24 08       	mov    QWORD PTR [rsp+0x8],r9
ffffffff800095ee:	e8 ed cc ff ff       	call   ffffffff800062e0 <__ubsan_handle_pointer_overflow>
ffffffff800095f3:	4c 8b 4c 24 08       	mov    r9,QWORD PTR [rsp+0x8]
ffffffff800095f8:	48 8b 44 24 10       	mov    rax,QWORD PTR [rsp+0x10]
ffffffff800095fd:	4c 8b 44 24 18       	mov    r8,QWORD PTR [rsp+0x18]
ffffffff80009602:	48 8b 4c 24 20       	mov    rcx,QWORD PTR [rsp+0x20]
ffffffff80009607:	e9 44 ff ff ff       	jmp    ffffffff80009550 <proc_switch+0x180>
ffffffff8000960c:	0f 1f 40 00          	nop    DWORD PTR [rax+0x0]
ffffffff80009610:	49 81 fb 60 49 01 80 	cmp    r11,0xffffffff80014960
ffffffff80009617:	0f 83 16 fe ff ff    	jae    ffffffff80009433 <proc_switch+0x63>
ffffffff8000961d:	4c 89 da             	mov    rdx,r11
ffffffff80009620:	48 c7 c6 60 49 01 80 	mov    rsi,0xffffffff80014960
ffffffff80009627:	4c 89 44 24 30       	mov    QWORD PTR [rsp+0x30],r8
ffffffff8000962c:	48 c7 c7 c0 1a 01 80 	mov    rdi,0xffffffff80011ac0
ffffffff80009633:	48 89 4c 24 28       	mov    QWORD PTR [rsp+0x28],rcx
ffffffff80009638:	48 89 44 24 20       	mov    QWORD PTR [rsp+0x20],rax
ffffffff8000963d:	4c 89 54 24 18       	mov    QWORD PTR [rsp+0x18],r10
ffffffff80009642:	4c 89 4c 24 10       	mov    QWORD PTR [rsp+0x10],r9
ffffffff80009647:	4c 89 5c 24 08       	mov    QWORD PTR [rsp+0x8],r11
ffffffff8000964c:	e8 8f cc ff ff       	call   ffffffff800062e0 <__ubsan_handle_pointer_overflow>
ffffffff80009651:	4c 8b 5c 24 08       	mov    r11,QWORD PTR [rsp+0x8]
ffffffff80009656:	4c 8b 4c 24 10       	mov    r9,QWORD PTR [rsp+0x10]
ffffffff8000965b:	4c 8b 54 24 18       	mov    r10,QWORD PTR [rsp+0x18]
ffffffff80009660:	48 8b 44 24 20       	mov    rax,QWORD PTR [rsp+0x20]
ffffffff80009665:	48 8b 4c 24 28       	mov    rcx,QWORD PTR [rsp+0x28]
ffffffff8000966a:	4c 8b 44 24 30       	mov    r8,QWORD PTR [rsp+0x30]
ffffffff8000966f:	e9 bf fd ff ff       	jmp    ffffffff80009433 <proc_switch+0x63>
ffffffff80009674:	48 89 d6             	mov    rsi,rdx
ffffffff80009677:	48 c7 c7 c0 19 01 80 	mov    rdi,0xffffffff800119c0
ffffffff8000967e:	4c 89 44 24 10       	mov    QWORD PTR [rsp+0x10],r8
ffffffff80009683:	48 89 54 24 08       	mov    QWORD PTR [rsp+0x8],rdx
ffffffff80009688:	e8 f3 cc ff ff       	call   ffffffff80006380 <__ubsan_handle_out_of_bounds>
ffffffff8000968d:	4c 8b 44 24 10       	mov    r8,QWORD PTR [rsp+0x10]
ffffffff80009692:	48 8b 4c 24 08       	mov    rcx,QWORD PTR [rsp+0x8]
ffffffff80009697:	e9 95 fe ff ff       	jmp    ffffffff80009531 <proc_switch+0x161>
ffffffff8000969c:	48 89 ce             	mov    rsi,rcx
ffffffff8000969f:	48 c7 c7 e0 1a 01 80 	mov    rdi,0xffffffff80011ae0
ffffffff800096a6:	4c 89 44 24 20       	mov    QWORD PTR [rsp+0x20],r8
ffffffff800096ab:	48 89 44 24 18       	mov    QWORD PTR [rsp+0x18],rax
ffffffff800096b0:	4c 89 54 24 10       	mov    QWORD PTR [rsp+0x10],r10
ffffffff800096b5:	48 89 4c 24 08       	mov    QWORD PTR [rsp+0x8],rcx
ffffffff800096ba:	e8 c1 cc ff ff       	call   ffffffff80006380 <__ubsan_handle_out_of_bounds>
ffffffff800096bf:	4c 8b 44 24 20       	mov    r8,QWORD PTR [rsp+0x20]
ffffffff800096c4:	48 8b 44 24 18       	mov    rax,QWORD PTR [rsp+0x18]
ffffffff800096c9:	4c 8b 54 24 10       	mov    r10,QWORD PTR [rsp+0x10]
ffffffff800096ce:	48 8b 4c 24 08       	mov    rcx,QWORD PTR [rsp+0x8]
ffffffff800096d3:	e9 34 fd ff ff       	jmp    ffffffff8000940c <proc_switch+0x3c>
ffffffff800096d8:	4c 89 ce             	mov    rsi,r9
ffffffff800096db:	48 c7 c7 40 19 01 80 	mov    rdi,0xffffffff80011940
ffffffff800096e2:	48 89 4c 24 10       	mov    QWORD PTR [rsp+0x10],rcx
ffffffff800096e7:	4c 89 44 24 08       	mov    QWORD PTR [rsp+0x8],r8
ffffffff800096ec:	e8 ef cb ff ff       	call   ffffffff800062e0 <__ubsan_handle_pointer_overflow>
ffffffff800096f1:	48 8b 4c 24 10       	mov    rcx,QWORD PTR [rsp+0x10]
ffffffff800096f6:	4c 8b 44 24 08       	mov    r8,QWORD PTR [rsp+0x8]
ffffffff800096fb:	e9 9a fe ff ff       	jmp    ffffffff8000959a <proc_switch+0x1ca>
ffffffff80009700:	48 89 c6             	mov    rsi,rax
ffffffff80009703:	48 c7 c7 60 19 01 80 	mov    rdi,0xffffffff80011960
ffffffff8000970a:	4c 89 4c 24 18       	mov    QWORD PTR [rsp+0x18],r9
ffffffff8000970f:	48 89 4c 24 10       	mov    QWORD PTR [rsp+0x10],rcx
ffffffff80009714:	4c 89 44 24 08       	mov    QWORD PTR [rsp+0x8],r8
ffffffff80009719:	e8 72 c3 ff ff       	call   ffffffff80005a90 <__ubsan_handle_type_mismatch_v1>
ffffffff8000971e:	4c 8b 4c 24 18       	mov    r9,QWORD PTR [rsp+0x18]
ffffffff80009723:	48 8b 4c 24 10       	mov    rcx,QWORD PTR [rsp+0x10]
ffffffff80009728:	4c 8b 44 24 08       	mov    r8,QWORD PTR [rsp+0x8]
ffffffff8000972d:	e9 5a fe ff ff       	jmp    ffffffff8000958c <proc_switch+0x1bc>
ffffffff80009732:	4c 89 c6             	mov    rsi,r8
ffffffff80009735:	48 c7 c7 80 19 01 80 	mov    rdi,0xffffffff80011980
ffffffff8000973c:	4c 89 4c 24 28       	mov    QWORD PTR [rsp+0x28],r9
ffffffff80009741:	48 89 4c 24 20       	mov    QWORD PTR [rsp+0x20],rcx
ffffffff80009746:	48 89 54 24 18       	mov    QWORD PTR [rsp+0x18],rdx
ffffffff8000974b:	48 89 44 24 10       	mov    QWORD PTR [rsp+0x10],rax
ffffffff80009750:	4c 89 44 24 08       	mov    QWORD PTR [rsp+0x8],r8
ffffffff80009755:	e8 36 c3 ff ff       	call   ffffffff80005a90 <__ubsan_handle_type_mismatch_v1>
ffffffff8000975a:	4c 8b 4c 24 28       	mov    r9,QWORD PTR [rsp+0x28]
ffffffff8000975f:	48 8b 4c 24 20       	mov    rcx,QWORD PTR [rsp+0x20]
ffffffff80009764:	48 8b 54 24 18       	mov    rdx,QWORD PTR [rsp+0x18]
ffffffff80009769:	48 8b 44 24 10       	mov    rax,QWORD PTR [rsp+0x10]
ffffffff8000976e:	4c 8b 44 24 08       	mov    r8,QWORD PTR [rsp+0x8]
ffffffff80009773:	e9 01 fe ff ff       	jmp    ffffffff80009579 <proc_switch+0x1a9>
ffffffff80009778:	48 89 ce             	mov    rsi,rcx
ffffffff8000977b:	48 c7 c7 e0 19 01 80 	mov    rdi,0xffffffff800119e0
ffffffff80009782:	4c 89 44 24 20       	mov    QWORD PTR [rsp+0x20],r8
ffffffff80009787:	48 89 44 24 18       	mov    QWORD PTR [rsp+0x18],rax
ffffffff8000978c:	4c 89 54 24 10       	mov    QWORD PTR [rsp+0x10],r10
ffffffff80009791:	48 89 54 24 08       	mov    QWORD PTR [rsp+0x8],rdx
ffffffff80009796:	e8 45 cb ff ff       	call   ffffffff800062e0 <__ubsan_handle_pointer_overflow>
ffffffff8000979b:	4c 8b 44 24 20       	mov    r8,QWORD PTR [rsp+0x20]
ffffffff800097a0:	48 8b 44 24 18       	mov    rax,QWORD PTR [rsp+0x18]
ffffffff800097a5:	4c 8b 54 24 10       	mov    r10,QWORD PTR [rsp+0x10]
ffffffff800097aa:	48 8b 54 24 08       	mov    rdx,QWORD PTR [rsp+0x8]
ffffffff800097af:	e9 46 fd ff ff       	jmp    ffffffff800094fa <proc_switch+0x12a>
ffffffff800097b4:	4c 89 c6             	mov    rsi,r8
ffffffff800097b7:	48 c7 c7 00 1a 01 80 	mov    rdi,0xffffffff80011a00
ffffffff800097be:	48 89 44 24 20       	mov    QWORD PTR [rsp+0x20],rax
ffffffff800097c3:	4c 89 54 24 18       	mov    QWORD PTR [rsp+0x18],r10
ffffffff800097c8:	48 89 4c 24 10       	mov    QWORD PTR [rsp+0x10],rcx
ffffffff800097cd:	4c 89 44 24 08       	mov    QWORD PTR [rsp+0x8],r8
ffffffff800097d2:	e8 b9 c2 ff ff       	call   ffffffff80005a90 <__ubsan_handle_type_mismatch_v1>
ffffffff800097d7:	48 8b 44 24 20       	mov    rax,QWORD PTR [rsp+0x20]
ffffffff800097dc:	4c 8b 54 24 18       	mov    r10,QWORD PTR [rsp+0x18]
ffffffff800097e1:	48 8b 4c 24 10       	mov    rcx,QWORD PTR [rsp+0x10]
ffffffff800097e6:	4c 8b 44 24 08       	mov    r8,QWORD PTR [rsp+0x8]
ffffffff800097eb:	e9 fc fc ff ff       	jmp    ffffffff800094ec <proc_switch+0x11c>
ffffffff800097f0:	48 89 ce             	mov    rsi,rcx
ffffffff800097f3:	48 c7 c7 20 1a 01 80 	mov    rdi,0xffffffff80011a20
ffffffff800097fa:	4c 89 44 24 20       	mov    QWORD PTR [rsp+0x20],r8
ffffffff800097ff:	48 89 44 24 18       	mov    QWORD PTR [rsp+0x18],rax
ffffffff80009804:	4c 89 54 24 10       	mov    QWORD PTR [rsp+0x10],r10
ffffffff80009809:	48 89 4c 24 08       	mov    QWORD PTR [rsp+0x8],rcx
ffffffff8000980e:	e8 7d c2 ff ff       	call   ffffffff80005a90 <__ubsan_handle_type_mismatch_v1>
ffffffff80009813:	4c 8b 44 24 20       	mov    r8,QWORD PTR [rsp+0x20]
ffffffff80009818:	48 8b 44 24 18       	mov    rax,QWORD PTR [rsp+0x18]
ffffffff8000981d:	4c 8b 54 24 10       	mov    r10,QWORD PTR [rsp+0x10]
ffffffff80009822:	48 8b 4c 24 08       	mov    rcx,QWORD PTR [rsp+0x8]
ffffffff80009827:	e9 ad fc ff ff       	jmp    ffffffff800094d9 <proc_switch+0x109>
ffffffff8000982c:	4c 89 de             	mov    rsi,r11
ffffffff8000982f:	48 c7 c7 40 1a 01 80 	mov    rdi,0xffffffff80011a40
ffffffff80009836:	4c 89 44 24 20       	mov    QWORD PTR [rsp+0x20],r8
ffffffff8000983b:	48 89 4c 24 18       	mov    QWORD PTR [rsp+0x18],rcx
ffffffff80009840:	48 89 44 24 10       	mov    QWORD PTR [rsp+0x10],rax
ffffffff80009845:	4c 89 54 24 08       	mov    QWORD PTR [rsp+0x8],r10
ffffffff8000984a:	e8 91 ca ff ff       	call   ffffffff800062e0 <__ubsan_handle_pointer_overflow>
ffffffff8000984f:	4c 8b 44 24 20       	mov    r8,QWORD PTR [rsp+0x20]
ffffffff80009854:	48 8b 4c 24 18       	mov    rcx,QWORD PTR [rsp+0x18]
ffffffff80009859:	48 8b 44 24 10       	mov    rax,QWORD PTR [rsp+0x10]
ffffffff8000985e:	4c 8b 54 24 08       	mov    r10,QWORD PTR [rsp+0x8]
ffffffff80009863:	e9 16 fc ff ff       	jmp    ffffffff8000947e <proc_switch+0xae>
ffffffff80009868:	4c 89 ce             	mov    rsi,r9
ffffffff8000986b:	48 c7 c7 60 1a 01 80 	mov    rdi,0xffffffff80011a60
ffffffff80009872:	4c 89 5c 24 28       	mov    QWORD PTR [rsp+0x28],r11
ffffffff80009877:	4c 89 44 24 20       	mov    QWORD PTR [rsp+0x20],r8
ffffffff8000987c:	48 89 4c 24 18       	mov    QWORD PTR [rsp+0x18],rcx
ffffffff80009881:	48 89 44 24 10       	mov    QWORD PTR [rsp+0x10],rax
ffffffff80009886:	4c 89 54 24 08       	mov    QWORD PTR [rsp+0x8],r10
ffffffff8000988b:	e8 00 c2 ff ff       	call   ffffffff80005a90 <__ubsan_handle_type_mismatch_v1>
ffffffff80009890:	4c 8b 5c 24 28       	mov    r11,QWORD PTR [rsp+0x28]
ffffffff80009895:	4c 8b 44 24 20       	mov    r8,QWORD PTR [rsp+0x20]
ffffffff8000989a:	48 8b 4c 24 18       	mov    rcx,QWORD PTR [rsp+0x18]
ffffffff8000989f:	48 8b 44 24 10       	mov    rax,QWORD PTR [rsp+0x10]
ffffffff800098a4:	4c 8b 54 24 08       	mov    r10,QWORD PTR [rsp+0x8]
ffffffff800098a9:	e9 c2 fb ff ff       	jmp    ffffffff80009470 <proc_switch+0xa0>
ffffffff800098ae:	4c 89 c6             	mov    rsi,r8
ffffffff800098b1:	48 c7 c7 80 1a 01 80 	mov    rdi,0xffffffff80011a80
ffffffff800098b8:	4c 89 5c 24 38       	mov    QWORD PTR [rsp+0x38],r11
ffffffff800098bd:	48 89 54 24 30       	mov    QWORD PTR [rsp+0x30],rdx
ffffffff800098c2:	48 89 4c 24 28       	mov    QWORD PTR [rsp+0x28],rcx
ffffffff800098c7:	48 89 44 24 20       	mov    QWORD PTR [rsp+0x20],rax
ffffffff800098cc:	4c 89 54 24 18       	mov    QWORD PTR [rsp+0x18],r10
ffffffff800098d1:	4c 89 4c 24 10       	mov    QWORD PTR [rsp+0x10],r9
ffffffff800098d6:	4c 89 44 24 08       	mov    QWORD PTR [rsp+0x8],r8
ffffffff800098db:	e8 b0 c1 ff ff       	call   ffffffff80005a90 <__ubsan_handle_type_mismatch_v1>
ffffffff800098e0:	4c 8b 5c 24 38       	mov    r11,QWORD PTR [rsp+0x38]
ffffffff800098e5:	48 8b 54 24 30       	mov    rdx,QWORD PTR [rsp+0x30]
ffffffff800098ea:	48 8b 4c 24 28       	mov    rcx,QWORD PTR [rsp+0x28]
ffffffff800098ef:	48 8b 44 24 20       	mov    rax,QWORD PTR [rsp+0x20]
ffffffff800098f4:	4c 8b 54 24 18       	mov    r10,QWORD PTR [rsp+0x18]
ffffffff800098f9:	4c 8b 4c 24 10       	mov    r9,QWORD PTR [rsp+0x10]
ffffffff800098fe:	4c 8b 44 24 08       	mov    r8,QWORD PTR [rsp+0x8]
ffffffff80009903:	e9 54 fb ff ff       	jmp    ffffffff8000945c <proc_switch+0x8c>
ffffffff80009908:	0f 1f 84 00 00 00 00 	nop    DWORD PTR [rax+rax*1+0x0]
ffffffff8000990f:	00 

ffffffff80009910 <fb_draw>:
ffffffff80009910:	48 83 ec 38          	sub    rsp,0x38
ffffffff80009914:	48 89 f8             	mov    rax,rdi
ffffffff80009917:	49 89 f1             	mov    r9,rsi
ffffffff8000991a:	49 89 d2             	mov    r10,rdx
ffffffff8000991d:	48 85 ff             	test   rdi,rdi
ffffffff80009920:	0f 84 12 01 00 00    	je     ffffffff80009a38 <fb_draw+0x128>
ffffffff80009926:	40 f6 c7 07          	test   dil,0x7
ffffffff8000992a:	0f 85 08 01 00 00    	jne    ffffffff80009a38 <fb_draw+0x128>
ffffffff80009930:	4c 8b 00             	mov    r8,QWORD PTR [rax]
ffffffff80009933:	48 85 c0             	test   rax,rax
ffffffff80009936:	0f 84 b8 00 00 00    	je     ffffffff800099f4 <fb_draw+0xe4>
ffffffff8000993c:	a8 07                	test   al,0x7
ffffffff8000993e:	0f 85 b0 00 00 00    	jne    ffffffff800099f4 <fb_draw+0xe4>
ffffffff80009944:	48 8d 50 18          	lea    rdx,[rax+0x18]
ffffffff80009948:	48 83 f8 e8          	cmp    rax,0xffffffffffffffe8
ffffffff8000994c:	73 62                	jae    ffffffff800099b0 <fb_draw+0xa0>
ffffffff8000994e:	48 8b 40 18          	mov    rax,QWORD PTR [rax+0x18]
ffffffff80009952:	48 c1 e8 02          	shr    rax,0x2
ffffffff80009956:	49 0f af c2          	imul   rax,r10
ffffffff8000995a:	4c 01 c8             	add    rax,r9
ffffffff8000995d:	49 8d 14 80          	lea    rdx,[r8+rax*4]
ffffffff80009961:	48 c1 e0 02          	shl    rax,0x2
ffffffff80009965:	78 21                	js     ffffffff80009988 <fb_draw+0x78>
ffffffff80009967:	4c 39 c2             	cmp    rdx,r8
ffffffff8000996a:	72 21                	jb     ffffffff8000998d <fb_draw+0x7d>
ffffffff8000996c:	48 85 d2             	test   rdx,rdx
ffffffff8000996f:	0f 84 fd 00 00 00    	je     ffffffff80009a72 <fb_draw+0x162>
ffffffff80009975:	f6 c2 03             	test   dl,0x3
ffffffff80009978:	0f 85 f4 00 00 00    	jne    ffffffff80009a72 <fb_draw+0x162>
ffffffff8000997e:	89 0a                	mov    DWORD PTR [rdx],ecx
ffffffff80009980:	48 83 c4 38          	add    rsp,0x38
ffffffff80009984:	c3                   	ret
ffffffff80009985:	0f 1f 00             	nop    DWORD PTR [rax]
ffffffff80009988:	49 39 d0             	cmp    r8,rdx
ffffffff8000998b:	73 df                	jae    ffffffff8000996c <fb_draw+0x5c>
ffffffff8000998d:	4c 89 c6             	mov    rsi,r8
ffffffff80009990:	48 c7 c7 20 25 01 80 	mov    rdi,0xffffffff80012520
ffffffff80009997:	89 4c 24 10          	mov    DWORD PTR [rsp+0x10],ecx
ffffffff8000999b:	48 89 54 24 08       	mov    QWORD PTR [rsp+0x8],rdx
ffffffff800099a0:	e8 3b c9 ff ff       	call   ffffffff800062e0 <__ubsan_handle_pointer_overflow>
ffffffff800099a5:	48 8b 54 24 08       	mov    rdx,QWORD PTR [rsp+0x8]
ffffffff800099aa:	8b 4c 24 10          	mov    ecx,DWORD PTR [rsp+0x10]
ffffffff800099ae:	eb bc                	jmp    ffffffff8000996c <fb_draw+0x5c>
ffffffff800099b0:	48 89 c6             	mov    rsi,rax
ffffffff800099b3:	48 c7 c7 30 25 01 80 	mov    rdi,0xffffffff80012530
ffffffff800099ba:	4c 89 54 24 28       	mov    QWORD PTR [rsp+0x28],r10
ffffffff800099bf:	4c 89 4c 24 20       	mov    QWORD PTR [rsp+0x20],r9
ffffffff800099c4:	89 4c 24 18          	mov    DWORD PTR [rsp+0x18],ecx
ffffffff800099c8:	4c 89 44 24 10       	mov    QWORD PTR [rsp+0x10],r8
ffffffff800099cd:	48 89 44 24 08       	mov    QWORD PTR [rsp+0x8],rax
ffffffff800099d2:	e8 09 c9 ff ff       	call   ffffffff800062e0 <__ubsan_handle_pointer_overflow>
ffffffff800099d7:	4c 8b 54 24 28       	mov    r10,QWORD PTR [rsp+0x28]
ffffffff800099dc:	4c 8b 4c 24 20       	mov    r9,QWORD PTR [rsp+0x20]
ffffffff800099e1:	8b 4c 24 18          	mov    ecx,DWORD PTR [rsp+0x18]
ffffffff800099e5:	4c 8b 44 24 10       	mov    r8,QWORD PTR [rsp+0x10]
ffffffff800099ea:	48 8b 44 24 08       	mov    rax,QWORD PTR [rsp+0x8]
ffffffff800099ef:	e9 5a ff ff ff       	jmp    ffffffff8000994e <fb_draw+0x3e>
ffffffff800099f4:	48 89 c6             	mov    rsi,rax
ffffffff800099f7:	48 c7 c7 40 25 01 80 	mov    rdi,0xffffffff80012540
ffffffff800099fe:	4c 89 54 24 28       	mov    QWORD PTR [rsp+0x28],r10
ffffffff80009a03:	4c 89 4c 24 20       	mov    QWORD PTR [rsp+0x20],r9
ffffffff80009a08:	89 4c 24 18          	mov    DWORD PTR [rsp+0x18],ecx
ffffffff80009a0c:	4c 89 44 24 10       	mov    QWORD PTR [rsp+0x10],r8
ffffffff80009a11:	48 89 44 24 08       	mov    QWORD PTR [rsp+0x8],rax
ffffffff80009a16:	e8 75 c0 ff ff       	call   ffffffff80005a90 <__ubsan_handle_type_mismatch_v1>
ffffffff80009a1b:	4c 8b 54 24 28       	mov    r10,QWORD PTR [rsp+0x28]
ffffffff80009a20:	4c 8b 4c 24 20       	mov    r9,QWORD PTR [rsp+0x20]
ffffffff80009a25:	8b 4c 24 18          	mov    ecx,DWORD PTR [rsp+0x18]
ffffffff80009a29:	4c 8b 44 24 10       	mov    r8,QWORD PTR [rsp+0x10]
ffffffff80009a2e:	48 8b 44 24 08       	mov    rax,QWORD PTR [rsp+0x8]
ffffffff80009a33:	e9 0c ff ff ff       	jmp    ffffffff80009944 <fb_draw+0x34>
ffffffff80009a38:	48 89 c6             	mov    rsi,rax
ffffffff80009a3b:	48 c7 c7 60 25 01 80 	mov    rdi,0xffffffff80012560
ffffffff80009a42:	4c 89 54 24 20       	mov    QWORD PTR [rsp+0x20],r10
ffffffff80009a47:	4c 89 4c 24 18       	mov    QWORD PTR [rsp+0x18],r9
ffffffff80009a4c:	89 4c 24 10          	mov    DWORD PTR [rsp+0x10],ecx
ffffffff80009a50:	48 89 44 24 08       	mov    QWORD PTR [rsp+0x8],rax
ffffffff80009a55:	e8 36 c0 ff ff       	call   ffffffff80005a90 <__ubsan_handle_type_mismatch_v1>
ffffffff80009a5a:	4c 8b 54 24 20       	mov    r10,QWORD PTR [rsp+0x20]
ffffffff80009a5f:	4c 8b 4c 24 18       	mov    r9,QWORD PTR [rsp+0x18]
ffffffff80009a64:	8b 4c 24 10          	mov    ecx,DWORD PTR [rsp+0x10]
ffffffff80009a68:	48 8b 44 24 08       	mov    rax,QWORD PTR [rsp+0x8]
ffffffff80009a6d:	e9 be fe ff ff       	jmp    ffffffff80009930 <fb_draw+0x20>
ffffffff80009a72:	48 89 d6             	mov    rsi,rdx
ffffffff80009a75:	48 c7 c7 e0 24 01 80 	mov    rdi,0xffffffff800124e0
ffffffff80009a7c:	89 4c 24 10          	mov    DWORD PTR [rsp+0x10],ecx
ffffffff80009a80:	48 89 54 24 08       	mov    QWORD PTR [rsp+0x8],rdx
ffffffff80009a85:	e8 06 c0 ff ff       	call   ffffffff80005a90 <__ubsan_handle_type_mismatch_v1>
ffffffff80009a8a:	8b 4c 24 10          	mov    ecx,DWORD PTR [rsp+0x10]
ffffffff80009a8e:	48 8b 54 24 08       	mov    rdx,QWORD PTR [rsp+0x8]
ffffffff80009a93:	e9 e6 fe ff ff       	jmp    ffffffff8000997e <fb_draw+0x6e>
ffffffff80009a98:	0f 1f 84 00 00 00 00 	nop    DWORD PTR [rax+rax*1+0x0]
ffffffff80009a9f:	00 

ffffffff80009aa0 <term_new>:
ffffffff80009aa0:	48 83 ec 28          	sub    rsp,0x28
ffffffff80009aa4:	48 89 f8             	mov    rax,rdi
ffffffff80009aa7:	48 85 f6             	test   rsi,rsi
ffffffff80009aaa:	74 73                	je     ffffffff80009b1f <term_new+0x7f>
ffffffff80009aac:	40 f6 c6 07          	test   sil,0x7
ffffffff80009ab0:	75 6d                	jne    ffffffff80009b1f <term_new+0x7f>
ffffffff80009ab2:	48 8d 56 08          	lea    rdx,[rsi+0x8]
ffffffff80009ab6:	48 83 fe f8          	cmp    rsi,0xfffffffffffffff8
ffffffff80009aba:	0f 83 e2 00 00 00    	jae    ffffffff80009ba2 <term_new+0x102>
ffffffff80009ac0:	48 8b 4e 08          	mov    rcx,QWORD PTR [rsi+0x8]
ffffffff80009ac4:	48 c1 e9 03          	shr    rcx,0x3
ffffffff80009ac8:	48 85 f6             	test   rsi,rsi
ffffffff80009acb:	0f 84 a2 00 00 00    	je     ffffffff80009b73 <term_new+0xd3>
ffffffff80009ad1:	40 f6 c6 07          	test   sil,0x7
ffffffff80009ad5:	0f 85 98 00 00 00    	jne    ffffffff80009b73 <term_new+0xd3>
ffffffff80009adb:	48 8d 56 10          	lea    rdx,[rsi+0x10]
ffffffff80009adf:	48 83 fe f0          	cmp    rsi,0xfffffffffffffff0
ffffffff80009ae3:	73 5f                	jae    ffffffff80009b44 <term_new+0xa4>
ffffffff80009ae5:	48 8b 56 10          	mov    rdx,QWORD PTR [rsi+0x10]
ffffffff80009ae9:	bf ff ff ff ff       	mov    edi,0xffffffff
ffffffff80009aee:	48 89 30             	mov    QWORD PTR [rax],rsi
ffffffff80009af1:	48 89 48 08          	mov    QWORD PTR [rax+0x8],rcx
ffffffff80009af5:	48 c1 ea 04          	shr    rdx,0x4
ffffffff80009af9:	48 c7 40 18 00 00 00 	mov    QWORD PTR [rax+0x18],0x0
ffffffff80009b00:	00 
ffffffff80009b01:	48 89 50 10          	mov    QWORD PTR [rax+0x10],rdx
ffffffff80009b05:	ba 04 00 00 00       	mov    edx,0x4
ffffffff80009b0a:	48 c7 40 20 00 00 00 	mov    QWORD PTR [rax+0x20],0x0
ffffffff80009b11:	00 
ffffffff80009b12:	48 89 78 28          	mov    QWORD PTR [rax+0x28],rdi
ffffffff80009b16:	66 89 50 30          	mov    WORD PTR [rax+0x30],dx
ffffffff80009b1a:	48 83 c4 28          	add    rsp,0x28
ffffffff80009b1e:	c3                   	ret
ffffffff80009b1f:	48 c7 c7 c0 24 01 80 	mov    rdi,0xffffffff800124c0
ffffffff80009b26:	48 89 44 24 10       	mov    QWORD PTR [rsp+0x10],rax
ffffffff80009b2b:	48 89 74 24 08       	mov    QWORD PTR [rsp+0x8],rsi
ffffffff80009b30:	e8 5b bf ff ff       	call   ffffffff80005a90 <__ubsan_handle_type_mismatch_v1>
ffffffff80009b35:	48 8b 44 24 10       	mov    rax,QWORD PTR [rsp+0x10]
ffffffff80009b3a:	48 8b 74 24 08       	mov    rsi,QWORD PTR [rsp+0x8]
ffffffff80009b3f:	e9 6e ff ff ff       	jmp    ffffffff80009ab2 <term_new+0x12>
ffffffff80009b44:	48 c7 c7 60 24 01 80 	mov    rdi,0xffffffff80012460
ffffffff80009b4b:	48 89 44 24 18       	mov    QWORD PTR [rsp+0x18],rax
ffffffff80009b50:	48 89 4c 24 10       	mov    QWORD PTR [rsp+0x10],rcx
ffffffff80009b55:	48 89 74 24 08       	mov    QWORD PTR [rsp+0x8],rsi
ffffffff80009b5a:	e8 81 c7 ff ff       	call   ffffffff800062e0 <__ubsan_handle_pointer_overflow>
ffffffff80009b5f:	48 8b 44 24 18       	mov    rax,QWORD PTR [rsp+0x18]
ffffffff80009b64:	48 8b 4c 24 10       	mov    rcx,QWORD PTR [rsp+0x10]
ffffffff80009b69:	48 8b 74 24 08       	mov    rsi,QWORD PTR [rsp+0x8]
ffffffff80009b6e:	e9 72 ff ff ff       	jmp    ffffffff80009ae5 <term_new+0x45>
ffffffff80009b73:	48 c7 c7 80 24 01 80 	mov    rdi,0xffffffff80012480
ffffffff80009b7a:	48 89 44 24 18       	mov    QWORD PTR [rsp+0x18],rax
ffffffff80009b7f:	48 89 4c 24 10       	mov    QWORD PTR [rsp+0x10],rcx
ffffffff80009b84:	48 89 74 24 08       	mov    QWORD PTR [rsp+0x8],rsi
ffffffff80009b89:	e8 02 bf ff ff       	call   ffffffff80005a90 <__ubsan_handle_type_mismatch_v1>
ffffffff80009b8e:	48 8b 44 24 18       	mov    rax,QWORD PTR [rsp+0x18]
ffffffff80009b93:	48 8b 4c 24 10       	mov    rcx,QWORD PTR [rsp+0x10]
ffffffff80009b98:	48 8b 74 24 08       	mov    rsi,QWORD PTR [rsp+0x8]
ffffffff80009b9d:	e9 39 ff ff ff       	jmp    ffffffff80009adb <term_new+0x3b>
ffffffff80009ba2:	48 c7 c7 a0 24 01 80 	mov    rdi,0xffffffff800124a0
ffffffff80009ba9:	48 89 44 24 10       	mov    QWORD PTR [rsp+0x10],rax
ffffffff80009bae:	48 89 74 24 08       	mov    QWORD PTR [rsp+0x8],rsi
ffffffff80009bb3:	e8 28 c7 ff ff       	call   ffffffff800062e0 <__ubsan_handle_pointer_overflow>
ffffffff80009bb8:	48 8b 44 24 10       	mov    rax,QWORD PTR [rsp+0x10]
ffffffff80009bbd:	48 8b 74 24 08       	mov    rsi,QWORD PTR [rsp+0x8]
ffffffff80009bc2:	e9 f9 fe ff ff       	jmp    ffffffff80009ac0 <term_new+0x20>
ffffffff80009bc7:	66 0f 1f 84 00 00 00 	nop    WORD PTR [rax+rax*1+0x0]
ffffffff80009bce:	00 00 

ffffffff80009bd0 <term_scroll>:
ffffffff80009bd0:	41 55                	push   r13
ffffffff80009bd2:	41 54                	push   r12
ffffffff80009bd4:	55                   	push   rbp
ffffffff80009bd5:	53                   	push   rbx
ffffffff80009bd6:	48 89 fb             	mov    rbx,rdi
ffffffff80009bd9:	48 83 ec 18          	sub    rsp,0x18
ffffffff80009bdd:	48 85 ff             	test   rdi,rdi
ffffffff80009be0:	0f 84 7c 01 00 00    	je     ffffffff80009d62 <term_scroll+0x192>
ffffffff80009be6:	40 f6 c7 07          	test   dil,0x7
ffffffff80009bea:	0f 85 72 01 00 00    	jne    ffffffff80009d62 <term_scroll+0x192>
ffffffff80009bf0:	48 8b 2b             	mov    rbp,QWORD PTR [rbx]
ffffffff80009bf3:	48 85 ed             	test   rbp,rbp
ffffffff80009bf6:	0f 84 56 02 00 00    	je     ffffffff80009e52 <term_scroll+0x282>
ffffffff80009bfc:	40 f6 c5 07          	test   bpl,0x7
ffffffff80009c00:	0f 85 4c 02 00 00    	jne    ffffffff80009e52 <term_scroll+0x282>
ffffffff80009c06:	4c 8b 65 00          	mov    r12,QWORD PTR [rbp+0x0]
ffffffff80009c0a:	48 85 db             	test   rbx,rbx
ffffffff80009c0d:	0f 84 2b 02 00 00    	je     ffffffff80009e3e <term_scroll+0x26e>
ffffffff80009c13:	f6 c3 07             	test   bl,0x7
ffffffff80009c16:	0f 85 22 02 00 00    	jne    ffffffff80009e3e <term_scroll+0x26e>
ffffffff80009c1c:	48 85 ed             	test   rbp,rbp
ffffffff80009c1f:	0f 84 05 02 00 00    	je     ffffffff80009e2a <term_scroll+0x25a>
ffffffff80009c25:	40 f6 c5 07          	test   bpl,0x7
ffffffff80009c29:	0f 85 fb 01 00 00    	jne    ffffffff80009e2a <term_scroll+0x25a>
ffffffff80009c2f:	48 8d 55 18          	lea    rdx,[rbp+0x18]
ffffffff80009c33:	48 83 fd e8          	cmp    rbp,0xffffffffffffffe8
ffffffff80009c37:	0f 83 d9 01 00 00    	jae    ffffffff80009e16 <term_scroll+0x246>
ffffffff80009c3d:	48 8b 55 18          	mov    rdx,QWORD PTR [rbp+0x18]
ffffffff80009c41:	49 89 d5             	mov    r13,rdx
ffffffff80009c44:	49 c1 e5 04          	shl    r13,0x4
ffffffff80009c48:	48 85 db             	test   rbx,rbx
ffffffff80009c4b:	0f 84 a7 01 00 00    	je     ffffffff80009df8 <term_scroll+0x228>
ffffffff80009c51:	f6 c3 07             	test   bl,0x7
ffffffff80009c54:	0f 85 9e 01 00 00    	jne    ffffffff80009df8 <term_scroll+0x228>
ffffffff80009c5a:	48 85 ed             	test   rbp,rbp
ffffffff80009c5d:	0f 84 77 01 00 00    	je     ffffffff80009dda <term_scroll+0x20a>
ffffffff80009c63:	40 f6 c5 07          	test   bpl,0x7
ffffffff80009c67:	0f 85 6d 01 00 00    	jne    ffffffff80009dda <term_scroll+0x20a>
ffffffff80009c6d:	48 85 db             	test   rbx,rbx
ffffffff80009c70:	0f 84 46 01 00 00    	je     ffffffff80009dbc <term_scroll+0x1ec>
ffffffff80009c76:	f6 c3 07             	test   bl,0x7
ffffffff80009c79:	0f 85 3d 01 00 00    	jne    ffffffff80009dbc <term_scroll+0x1ec>
ffffffff80009c7f:	48 85 ed             	test   rbp,rbp
ffffffff80009c82:	0f 84 16 01 00 00    	je     ffffffff80009d9e <term_scroll+0x1ce>
ffffffff80009c88:	40 f6 c5 07          	test   bpl,0x7
ffffffff80009c8c:	0f 85 0c 01 00 00    	jne    ffffffff80009d9e <term_scroll+0x1ce>
ffffffff80009c92:	48 8b 6d 10          	mov    rbp,QWORD PTR [rbp+0x10]
ffffffff80009c96:	4b 8d 04 2c          	lea    rax,[r12+r13*1]
ffffffff80009c9a:	48 83 ed 10          	sub    rbp,0x10
ffffffff80009c9e:	48 0f af ea          	imul   rbp,rdx
ffffffff80009ca2:	4d 85 ed             	test   r13,r13
ffffffff80009ca5:	0f 88 8d 00 00 00    	js     ffffffff80009d38 <term_scroll+0x168>
ffffffff80009cab:	4c 39 e0             	cmp    rax,r12
ffffffff80009cae:	0f 82 8d 00 00 00    	jb     ffffffff80009d41 <term_scroll+0x171>
ffffffff80009cb4:	48 89 ea             	mov    rdx,rbp
ffffffff80009cb7:	48 89 c6             	mov    rsi,rax
ffffffff80009cba:	4c 89 e7             	mov    rdi,r12
ffffffff80009cbd:	e8 46 0d 00 00       	call   ffffffff8000aa08 <memmove>
ffffffff80009cc2:	48 85 db             	test   rbx,rbx
ffffffff80009cc5:	0f 84 bf 00 00 00    	je     ffffffff80009d8a <term_scroll+0x1ba>
ffffffff80009ccb:	f6 c3 07             	test   bl,0x7
ffffffff80009cce:	0f 85 b6 00 00 00    	jne    ffffffff80009d8a <term_scroll+0x1ba>
ffffffff80009cd4:	48 8d 53 2c          	lea    rdx,[rbx+0x2c]
ffffffff80009cd8:	48 83 fb d4          	cmp    rbx,0xffffffffffffffd4
ffffffff80009cdc:	0f 83 94 00 00 00    	jae    ffffffff80009d76 <term_scroll+0x1a6>
ffffffff80009ce2:	8b 43 2c             	mov    eax,DWORD PTR [rbx+0x2c]
ffffffff80009ce5:	49 8d 1c 2c          	lea    rbx,[r12+rbp*1]
ffffffff80009ce9:	48 85 ed             	test   rbp,rbp
ffffffff80009cec:	78 22                	js     ffffffff80009d10 <term_scroll+0x140>
ffffffff80009cee:	4c 39 e3             	cmp    rbx,r12
ffffffff80009cf1:	72 22                	jb     ffffffff80009d15 <term_scroll+0x145>
ffffffff80009cf3:	48 83 c4 18          	add    rsp,0x18
ffffffff80009cf7:	4c 89 ea             	mov    rdx,r13
ffffffff80009cfa:	48 89 df             	mov    rdi,rbx
ffffffff80009cfd:	89 c6                	mov    esi,eax
ffffffff80009cff:	5b                   	pop    rbx
ffffffff80009d00:	5d                   	pop    rbp
ffffffff80009d01:	41 5c                	pop    r12
ffffffff80009d03:	41 5d                	pop    r13
ffffffff80009d05:	e9 e6 0c 00 00       	jmp    ffffffff8000a9f0 <memset>
ffffffff80009d0a:	66 0f 1f 44 00 00    	nop    WORD PTR [rax+rax*1+0x0]
ffffffff80009d10:	49 39 dc             	cmp    r12,rbx
ffffffff80009d13:	73 de                	jae    ffffffff80009cf3 <term_scroll+0x123>
ffffffff80009d15:	48 89 da             	mov    rdx,rbx
ffffffff80009d18:	4c 89 e6             	mov    rsi,r12
ffffffff80009d1b:	48 c7 c7 c0 22 01 80 	mov    rdi,0xffffffff800122c0
ffffffff80009d22:	89 44 24 08          	mov    DWORD PTR [rsp+0x8],eax
ffffffff80009d26:	e8 b5 c5 ff ff       	call   ffffffff800062e0 <__ubsan_handle_pointer_overflow>
ffffffff80009d2b:	8b 44 24 08          	mov    eax,DWORD PTR [rsp+0x8]
ffffffff80009d2f:	eb c2                	jmp    ffffffff80009cf3 <term_scroll+0x123>
ffffffff80009d31:	0f 1f 80 00 00 00 00 	nop    DWORD PTR [rax+0x0]
ffffffff80009d38:	49 39 c4             	cmp    r12,rax
ffffffff80009d3b:	0f 83 73 ff ff ff    	jae    ffffffff80009cb4 <term_scroll+0xe4>
ffffffff80009d41:	48 89 c2             	mov    rdx,rax
ffffffff80009d44:	4c 89 e6             	mov    rsi,r12
ffffffff80009d47:	48 89 44 24 08       	mov    QWORD PTR [rsp+0x8],rax
ffffffff80009d4c:	48 c7 c7 00 23 01 80 	mov    rdi,0xffffffff80012300
ffffffff80009d53:	e8 88 c5 ff ff       	call   ffffffff800062e0 <__ubsan_handle_pointer_overflow>
ffffffff80009d58:	48 8b 44 24 08       	mov    rax,QWORD PTR [rsp+0x8]
ffffffff80009d5d:	e9 52 ff ff ff       	jmp    ffffffff80009cb4 <term_scroll+0xe4>
ffffffff80009d62:	48 89 de             	mov    rsi,rbx
ffffffff80009d65:	48 c7 c7 20 24 01 80 	mov    rdi,0xffffffff80012420
ffffffff80009d6c:	e8 1f bd ff ff       	call   ffffffff80005a90 <__ubsan_handle_type_mismatch_v1>
ffffffff80009d71:	e9 7a fe ff ff       	jmp    ffffffff80009bf0 <term_scroll+0x20>
ffffffff80009d76:	48 89 de             	mov    rsi,rbx
ffffffff80009d79:	48 c7 c7 d0 22 01 80 	mov    rdi,0xffffffff800122d0
ffffffff80009d80:	e8 5b c5 ff ff       	call   ffffffff800062e0 <__ubsan_handle_pointer_overflow>
ffffffff80009d85:	e9 58 ff ff ff       	jmp    ffffffff80009ce2 <term_scroll+0x112>
ffffffff80009d8a:	48 89 de             	mov    rsi,rbx
ffffffff80009d8d:	48 c7 c7 e0 22 01 80 	mov    rdi,0xffffffff800122e0
ffffffff80009d94:	e8 f7 bc ff ff       	call   ffffffff80005a90 <__ubsan_handle_type_mismatch_v1>
ffffffff80009d99:	e9 36 ff ff ff       	jmp    ffffffff80009cd4 <term_scroll+0x104>
ffffffff80009d9e:	48 89 ee             	mov    rsi,rbp
ffffffff80009da1:	48 c7 c7 20 23 01 80 	mov    rdi,0xffffffff80012320
ffffffff80009da8:	48 89 54 24 08       	mov    QWORD PTR [rsp+0x8],rdx
ffffffff80009dad:	e8 de bc ff ff       	call   ffffffff80005a90 <__ubsan_handle_type_mismatch_v1>
ffffffff80009db2:	48 8b 54 24 08       	mov    rdx,QWORD PTR [rsp+0x8]
ffffffff80009db7:	e9 d6 fe ff ff       	jmp    ffffffff80009c92 <term_scroll+0xc2>
ffffffff80009dbc:	48 89 de             	mov    rsi,rbx
ffffffff80009dbf:	48 c7 c7 40 23 01 80 	mov    rdi,0xffffffff80012340
ffffffff80009dc6:	48 89 54 24 08       	mov    QWORD PTR [rsp+0x8],rdx
ffffffff80009dcb:	e8 c0 bc ff ff       	call   ffffffff80005a90 <__ubsan_handle_type_mismatch_v1>
ffffffff80009dd0:	48 8b 54 24 08       	mov    rdx,QWORD PTR [rsp+0x8]
ffffffff80009dd5:	e9 a5 fe ff ff       	jmp    ffffffff80009c7f <term_scroll+0xaf>
ffffffff80009dda:	48 89 ee             	mov    rsi,rbp
ffffffff80009ddd:	48 c7 c7 60 23 01 80 	mov    rdi,0xffffffff80012360
ffffffff80009de4:	48 89 54 24 08       	mov    QWORD PTR [rsp+0x8],rdx
ffffffff80009de9:	e8 a2 bc ff ff       	call   ffffffff80005a90 <__ubsan_handle_type_mismatch_v1>
ffffffff80009dee:	48 8b 54 24 08       	mov    rdx,QWORD PTR [rsp+0x8]
ffffffff80009df3:	e9 75 fe ff ff       	jmp    ffffffff80009c6d <term_scroll+0x9d>
ffffffff80009df8:	48 89 de             	mov    rsi,rbx
ffffffff80009dfb:	48 c7 c7 80 23 01 80 	mov    rdi,0xffffffff80012380
ffffffff80009e02:	48 89 54 24 08       	mov    QWORD PTR [rsp+0x8],rdx
ffffffff80009e07:	e8 84 bc ff ff       	call   ffffffff80005a90 <__ubsan_handle_type_mismatch_v1>
ffffffff80009e0c:	48 8b 54 24 08       	mov    rdx,QWORD PTR [rsp+0x8]
ffffffff80009e11:	e9 44 fe ff ff       	jmp    ffffffff80009c5a <term_scroll+0x8a>
ffffffff80009e16:	48 89 ee             	mov    rsi,rbp
ffffffff80009e19:	48 c7 c7 a0 23 01 80 	mov    rdi,0xffffffff800123a0
ffffffff80009e20:	e8 bb c4 ff ff       	call   ffffffff800062e0 <__ubsan_handle_pointer_overflow>
ffffffff80009e25:	e9 13 fe ff ff       	jmp    ffffffff80009c3d <term_scroll+0x6d>
ffffffff80009e2a:	48 89 ee             	mov    rsi,rbp
ffffffff80009e2d:	48 c7 c7 c0 23 01 80 	mov    rdi,0xffffffff800123c0
ffffffff80009e34:	e8 57 bc ff ff       	call   ffffffff80005a90 <__ubsan_handle_type_mismatch_v1>
ffffffff80009e39:	e9 f1 fd ff ff       	jmp    ffffffff80009c2f <term_scroll+0x5f>
ffffffff80009e3e:	48 89 de             	mov    rsi,rbx
ffffffff80009e41:	48 c7 c7 e0 23 01 80 	mov    rdi,0xffffffff800123e0
ffffffff80009e48:	e8 43 bc ff ff       	call   ffffffff80005a90 <__ubsan_handle_type_mismatch_v1>
ffffffff80009e4d:	e9 ca fd ff ff       	jmp    ffffffff80009c1c <term_scroll+0x4c>
ffffffff80009e52:	48 89 ee             	mov    rsi,rbp
ffffffff80009e55:	48 c7 c7 00 24 01 80 	mov    rdi,0xffffffff80012400
ffffffff80009e5c:	e8 2f bc ff ff       	call   ffffffff80005a90 <__ubsan_handle_type_mismatch_v1>
ffffffff80009e61:	e9 a0 fd ff ff       	jmp    ffffffff80009c06 <term_scroll+0x36>
ffffffff80009e66:	66 2e 0f 1f 84 00 00 	cs nop WORD PTR [rax+rax*1+0x0]
ffffffff80009e6d:	00 00 00 

ffffffff80009e70 <term_draw_char>:
ffffffff80009e70:	41 57                	push   r15
ffffffff80009e72:	48 0f be c1          	movsx  rax,cl
ffffffff80009e76:	49 89 d7             	mov    r15,rdx
ffffffff80009e79:	41 56                	push   r14
ffffffff80009e7b:	41 55                	push   r13
ffffffff80009e7d:	41 54                	push   r12
ffffffff80009e7f:	49 89 c4             	mov    r12,rax
ffffffff80009e82:	55                   	push   rbp
ffffffff80009e83:	49 c1 e4 04          	shl    r12,0x4
ffffffff80009e87:	48 89 fd             	mov    rbp,rdi
ffffffff80009e8a:	53                   	push   rbx
ffffffff80009e8b:	48 83 ec 38          	sub    rsp,0x38
ffffffff80009e8f:	48 89 44 24 08       	mov    QWORD PTR [rsp+0x8],rax
ffffffff80009e94:	48 8d 47 2c          	lea    rax,[rdi+0x2c]
ffffffff80009e98:	48 89 34 24          	mov    QWORD PTR [rsp],rsi
ffffffff80009e9c:	48 c7 44 24 10 00 00 	mov    QWORD PTR [rsp+0x10],0x0
ffffffff80009ea3:	00 00 
ffffffff80009ea5:	48 89 44 24 18       	mov    QWORD PTR [rsp+0x18],rax
ffffffff80009eaa:	66 0f 1f 44 00 00    	nop    WORD PTR [rax+rax*1+0x0]
ffffffff80009eb0:	0f b6 4c 24 10       	movzx  ecx,BYTE PTR [rsp+0x10]
ffffffff80009eb5:	bb 80 00 00 00       	mov    ebx,0x80
ffffffff80009eba:	4c 89 e2             	mov    rdx,r12
ffffffff80009ebd:	45 31 f6             	xor    r14d,r14d
ffffffff80009ec0:	d3 fb                	sar    ebx,cl
ffffffff80009ec2:	eb 6b                	jmp    ffffffff80009f2f <term_draw_char+0xbf>
ffffffff80009ec4:	0f 1f 40 00          	nop    DWORD PTR [rax+0x0]
ffffffff80009ec8:	48 81 f9 80 ce 00 80 	cmp    rcx,0xffffffff8000ce80
ffffffff80009ecf:	0f 82 a4 00 00 00    	jb     ffffffff80009f79 <term_draw_char+0x109>
ffffffff80009ed5:	43 0f b6 94 34 80 ce 	movzx  edx,BYTE PTR [r12+r14*1-0x7fff3180]
ffffffff80009edc:	00 80 
ffffffff80009ede:	4f 8d 14 37          	lea    r10,[r15+r14*1]
ffffffff80009ee2:	85 da                	test   edx,ebx
ffffffff80009ee4:	0f 84 ae 00 00 00    	je     ffffffff80009f98 <term_draw_char+0x128>
ffffffff80009eea:	48 85 ed             	test   rbp,rbp
ffffffff80009eed:	0f 84 c6 01 00 00    	je     ffffffff8000a0b9 <term_draw_char+0x249>
ffffffff80009ef3:	40 f6 c5 07          	test   bpl,0x7
ffffffff80009ef7:	0f 85 bc 01 00 00    	jne    ffffffff8000a0b9 <term_draw_char+0x249>
ffffffff80009efd:	48 8d 55 28          	lea    rdx,[rbp+0x28]
ffffffff80009f01:	48 83 fd d8          	cmp    rbp,0xffffffffffffffd8
ffffffff80009f05:	0f 83 6d 01 00 00    	jae    ffffffff8000a078 <term_draw_char+0x208>
ffffffff80009f0b:	8b 4d 28             	mov    ecx,DWORD PTR [rbp+0x28]
ffffffff80009f0e:	48 8b 7d 00          	mov    rdi,QWORD PTR [rbp+0x0]
ffffffff80009f12:	4c 89 d2             	mov    rdx,r10
ffffffff80009f15:	49 83 c6 01          	add    r14,0x1
ffffffff80009f19:	48 8b 34 24          	mov    rsi,QWORD PTR [rsp]
ffffffff80009f1d:	e8 ee f9 ff ff       	call   ffffffff80009910 <fb_draw>
ffffffff80009f22:	49 83 fe 10          	cmp    r14,0x10
ffffffff80009f26:	0f 84 aa 00 00 00    	je     ffffffff80009fd6 <term_draw_char+0x166>
ffffffff80009f2c:	4c 89 ea             	mov    rdx,r13
ffffffff80009f2f:	48 81 7c 24 08 00 01 	cmp    QWORD PTR [rsp+0x8],0x100
ffffffff80009f36:	00 00 
ffffffff80009f38:	0f 83 c1 00 00 00    	jae    ffffffff80009fff <term_draw_char+0x18f>
ffffffff80009f3e:	49 83 fe 10          	cmp    r14,0x10
ffffffff80009f42:	0f 83 d7 00 00 00    	jae    ffffffff8000a01f <term_draw_char+0x1af>
ffffffff80009f48:	4c 8d 6a 01          	lea    r13,[rdx+0x1]
ffffffff80009f4c:	48 8d 8a 80 ce 00 80 	lea    rcx,[rdx-0x7fff3180]
ffffffff80009f53:	49 81 fd 00 10 00 00 	cmp    r13,0x1000
ffffffff80009f5a:	0f 87 dd 00 00 00    	ja     ffffffff8000a03d <term_draw_char+0x1cd>
ffffffff80009f60:	48 85 d2             	test   rdx,rdx
ffffffff80009f63:	0f 89 5f ff ff ff    	jns    ffffffff80009ec8 <term_draw_char+0x58>
ffffffff80009f69:	48 c7 c0 80 ce 00 80 	mov    rax,0xffffffff8000ce80
ffffffff80009f70:	48 39 c8             	cmp    rax,rcx
ffffffff80009f73:	0f 83 5c ff ff ff    	jae    ffffffff80009ed5 <term_draw_char+0x65>
ffffffff80009f79:	48 89 ca             	mov    rdx,rcx
ffffffff80009f7c:	48 c7 c6 80 ce 00 80 	mov    rsi,0xffffffff8000ce80
ffffffff80009f83:	48 c7 c7 e0 21 01 80 	mov    rdi,0xffffffff800121e0
ffffffff80009f8a:	e8 51 c3 ff ff       	call   ffffffff800062e0 <__ubsan_handle_pointer_overflow>
ffffffff80009f8f:	e9 41 ff ff ff       	jmp    ffffffff80009ed5 <term_draw_char+0x65>
ffffffff80009f94:	0f 1f 40 00          	nop    DWORD PTR [rax+0x0]
ffffffff80009f98:	48 85 ed             	test   rbp,rbp
ffffffff80009f9b:	0f 84 36 01 00 00    	je     ffffffff8000a0d7 <term_draw_char+0x267>
ffffffff80009fa1:	40 f6 c5 07          	test   bpl,0x7
ffffffff80009fa5:	0f 85 2c 01 00 00    	jne    ffffffff8000a0d7 <term_draw_char+0x267>
ffffffff80009fab:	48 83 fd d4          	cmp    rbp,0xffffffffffffffd4
ffffffff80009faf:	0f 83 e1 00 00 00    	jae    ffffffff8000a096 <term_draw_char+0x226>
ffffffff80009fb5:	8b 4d 2c             	mov    ecx,DWORD PTR [rbp+0x2c]
ffffffff80009fb8:	48 8b 7d 00          	mov    rdi,QWORD PTR [rbp+0x0]
ffffffff80009fbc:	4c 89 d2             	mov    rdx,r10
ffffffff80009fbf:	49 83 c6 01          	add    r14,0x1
ffffffff80009fc3:	48 8b 34 24          	mov    rsi,QWORD PTR [rsp]
ffffffff80009fc7:	e8 44 f9 ff ff       	call   ffffffff80009910 <fb_draw>
ffffffff80009fcc:	49 83 fe 10          	cmp    r14,0x10
ffffffff80009fd0:	0f 85 56 ff ff ff    	jne    ffffffff80009f2c <term_draw_char+0xbc>
ffffffff80009fd6:	48 83 44 24 10 01    	add    QWORD PTR [rsp+0x10],0x1
ffffffff80009fdc:	48 8b 44 24 10       	mov    rax,QWORD PTR [rsp+0x10]
ffffffff80009fe1:	48 83 04 24 01       	add    QWORD PTR [rsp],0x1
ffffffff80009fe6:	48 83 f8 08          	cmp    rax,0x8
ffffffff80009fea:	0f 85 c0 fe ff ff    	jne    ffffffff80009eb0 <term_draw_char+0x40>
ffffffff80009ff0:	48 83 c4 38          	add    rsp,0x38
ffffffff80009ff4:	5b                   	pop    rbx
ffffffff80009ff5:	5d                   	pop    rbp
ffffffff80009ff6:	41 5c                	pop    r12
ffffffff80009ff8:	41 5d                	pop    r13
ffffffff80009ffa:	41 5e                	pop    r14
ffffffff80009ffc:	41 5f                	pop    r15
ffffffff80009ffe:	c3                   	ret
ffffffff80009fff:	48 8b 74 24 08       	mov    rsi,QWORD PTR [rsp+0x8]
ffffffff8000a004:	48 c7 c7 80 22 01 80 	mov    rdi,0xffffffff80012280
ffffffff8000a00b:	48 89 54 24 20       	mov    QWORD PTR [rsp+0x20],rdx
ffffffff8000a010:	e8 6b c3 ff ff       	call   ffffffff80006380 <__ubsan_handle_out_of_bounds>
ffffffff8000a015:	48 8b 54 24 20       	mov    rdx,QWORD PTR [rsp+0x20]
ffffffff8000a01a:	e9 1f ff ff ff       	jmp    ffffffff80009f3e <term_draw_char+0xce>
ffffffff8000a01f:	4c 89 f6             	mov    rsi,r14
ffffffff8000a022:	48 c7 c7 40 22 01 80 	mov    rdi,0xffffffff80012240
ffffffff8000a029:	48 89 54 24 20       	mov    QWORD PTR [rsp+0x20],rdx
ffffffff8000a02e:	e8 4d c3 ff ff       	call   ffffffff80006380 <__ubsan_handle_out_of_bounds>
ffffffff8000a033:	48 8b 54 24 20       	mov    rdx,QWORD PTR [rsp+0x20]
ffffffff8000a038:	e9 0b ff ff ff       	jmp    ffffffff80009f48 <term_draw_char+0xd8>
ffffffff8000a03d:	48 89 c8             	mov    rax,rcx
ffffffff8000a040:	4c 01 e8             	add    rax,r13
ffffffff8000a043:	0f 82 17 ff ff ff    	jb     ffffffff80009f60 <term_draw_char+0xf0>
ffffffff8000a049:	48 89 ce             	mov    rsi,rcx
ffffffff8000a04c:	48 c7 c7 00 22 01 80 	mov    rdi,0xffffffff80012200
ffffffff8000a053:	48 89 54 24 28       	mov    QWORD PTR [rsp+0x28],rdx
ffffffff8000a058:	48 89 4c 24 20       	mov    QWORD PTR [rsp+0x20],rcx
ffffffff8000a05d:	e8 2e ba ff ff       	call   ffffffff80005a90 <__ubsan_handle_type_mismatch_v1>
ffffffff8000a062:	48 8b 54 24 28       	mov    rdx,QWORD PTR [rsp+0x28]
ffffffff8000a067:	48 8b 4c 24 20       	mov    rcx,QWORD PTR [rsp+0x20]
ffffffff8000a06c:	e9 ef fe ff ff       	jmp    ffffffff80009f60 <term_draw_char+0xf0>
ffffffff8000a071:	0f 1f 80 00 00 00 00 	nop    DWORD PTR [rax+0x0]
ffffffff8000a078:	48 89 ee             	mov    rsi,rbp
ffffffff8000a07b:	48 c7 c7 a0 21 01 80 	mov    rdi,0xffffffff800121a0
ffffffff8000a082:	4c 89 54 24 20       	mov    QWORD PTR [rsp+0x20],r10
ffffffff8000a087:	e8 54 c2 ff ff       	call   ffffffff800062e0 <__ubsan_handle_pointer_overflow>
ffffffff8000a08c:	4c 8b 54 24 20       	mov    r10,QWORD PTR [rsp+0x20]
ffffffff8000a091:	e9 75 fe ff ff       	jmp    ffffffff80009f0b <term_draw_char+0x9b>
ffffffff8000a096:	48 8b 54 24 18       	mov    rdx,QWORD PTR [rsp+0x18]
ffffffff8000a09b:	48 89 ee             	mov    rsi,rbp
ffffffff8000a09e:	4c 89 54 24 20       	mov    QWORD PTR [rsp+0x20],r10
ffffffff8000a0a3:	48 c7 c7 60 21 01 80 	mov    rdi,0xffffffff80012160
ffffffff8000a0aa:	e8 31 c2 ff ff       	call   ffffffff800062e0 <__ubsan_handle_pointer_overflow>
ffffffff8000a0af:	4c 8b 54 24 20       	mov    r10,QWORD PTR [rsp+0x20]
ffffffff8000a0b4:	e9 fc fe ff ff       	jmp    ffffffff80009fb5 <term_draw_char+0x145>
ffffffff8000a0b9:	48 89 ee             	mov    rsi,rbp
ffffffff8000a0bc:	48 c7 c7 c0 21 01 80 	mov    rdi,0xffffffff800121c0
ffffffff8000a0c3:	4c 89 54 24 20       	mov    QWORD PTR [rsp+0x20],r10
ffffffff8000a0c8:	e8 c3 b9 ff ff       	call   ffffffff80005a90 <__ubsan_handle_type_mismatch_v1>
ffffffff8000a0cd:	4c 8b 54 24 20       	mov    r10,QWORD PTR [rsp+0x20]
ffffffff8000a0d2:	e9 26 fe ff ff       	jmp    ffffffff80009efd <term_draw_char+0x8d>
ffffffff8000a0d7:	48 89 ee             	mov    rsi,rbp
ffffffff8000a0da:	48 c7 c7 80 21 01 80 	mov    rdi,0xffffffff80012180
ffffffff8000a0e1:	4c 89 54 24 20       	mov    QWORD PTR [rsp+0x20],r10
ffffffff8000a0e6:	e8 a5 b9 ff ff       	call   ffffffff80005a90 <__ubsan_handle_type_mismatch_v1>
ffffffff8000a0eb:	4c 8b 54 24 20       	mov    r10,QWORD PTR [rsp+0x20]
ffffffff8000a0f0:	e9 b6 fe ff ff       	jmp    ffffffff80009fab <term_draw_char+0x13b>

ffffffff8000a0f5 <term_write_char.cold>:
ffffffff8000a0f5:	48 89 c6             	mov    rsi,rax
ffffffff8000a0f8:	31 d2                	xor    edx,edx
ffffffff8000a0fa:	4c 89 4c 24 18       	mov    QWORD PTR [rsp+0x18],r9
ffffffff8000a0ff:	48 c7 c7 d0 25 01 80 	mov    rdi,0xffffffff800125d0
ffffffff8000a106:	48 89 4c 24 10       	mov    QWORD PTR [rsp+0x10],rcx
ffffffff8000a10b:	48 89 44 24 08       	mov    QWORD PTR [rsp+0x8],rax
ffffffff8000a110:	e8 3b c0 ff ff       	call   ffffffff80006150 <__ubsan_handle_divrem_overflow>
ffffffff8000a115:	48 8b 44 24 08       	mov    rax,QWORD PTR [rsp+0x8]
ffffffff8000a11a:	48 8b 4c 24 10       	mov    rcx,QWORD PTR [rsp+0x10]
ffffffff8000a11f:	4c 8b 4c 24 18       	mov    r9,QWORD PTR [rsp+0x18]
ffffffff8000a124:	e9 eb 00 00 00       	jmp    ffffffff8000a214 <term_write_char+0xc4>
ffffffff8000a129:	0f b6 f0             	movzx  esi,al
ffffffff8000a12c:	48 c7 c7 a0 25 01 80 	mov    rdi,0xffffffff800125a0
ffffffff8000a133:	4c 89 4c 24 10       	mov    QWORD PTR [rsp+0x10],r9
ffffffff8000a138:	88 44 24 08          	mov    BYTE PTR [rsp+0x8],al
ffffffff8000a13c:	e8 7f c4 ff ff       	call   ffffffff800065c0 <__ubsan_handle_load_invalid_value>
ffffffff8000a141:	0f b6 44 24 08       	movzx  eax,BYTE PTR [rsp+0x8]
ffffffff8000a146:	4c 8b 4c 24 10       	mov    r9,QWORD PTR [rsp+0x10]
ffffffff8000a14b:	e9 ae 03 00 00       	jmp    ffffffff8000a4fe <term_write_char+0x3ae>

ffffffff8000a150 <term_write_char>:
ffffffff8000a150:	53                   	push   rbx
ffffffff8000a151:	48 89 fb             	mov    rbx,rdi
ffffffff8000a154:	48 83 ec 20          	sub    rsp,0x20
ffffffff8000a158:	eb 08                	jmp    ffffffff8000a162 <term_write_char+0x12>
ffffffff8000a15a:	66 0f 1f 44 00 00    	nop    WORD PTR [rax+rax*1+0x0]
ffffffff8000a160:	f3 90                	pause
ffffffff8000a162:	b8 01 00 00 00       	mov    eax,0x1
ffffffff8000a167:	86 05 b3 ad 00 00    	xchg   BYTE PTR [rip+0xadb3],al        # ffffffff80014f20 <term_lock>
ffffffff8000a16d:	84 c0                	test   al,al
ffffffff8000a16f:	75 ef                	jne    ffffffff8000a160 <term_write_char+0x10>
ffffffff8000a171:	fa                   	cli
ffffffff8000a172:	40 80 fe 0a          	cmp    sil,0xa
ffffffff8000a176:	0f 84 f4 01 00 00    	je     ffffffff8000a370 <term_write_char+0x220>
ffffffff8000a17c:	40 80 fe 09          	cmp    sil,0x9
ffffffff8000a180:	0f 85 52 01 00 00    	jne    ffffffff8000a2d8 <term_write_char+0x188>
ffffffff8000a186:	48 85 db             	test   rbx,rbx
ffffffff8000a189:	0f 84 a6 07 00 00    	je     ffffffff8000a935 <term_write_char+0x7e5>
ffffffff8000a18f:	f6 c3 07             	test   bl,0x7
ffffffff8000a192:	0f 85 9d 07 00 00    	jne    ffffffff8000a935 <term_write_char+0x7e5>
ffffffff8000a198:	4c 8d 4b 18          	lea    r9,[rbx+0x18]
ffffffff8000a19c:	48 83 fb e8          	cmp    rbx,0xffffffffffffffe8
ffffffff8000a1a0:	0f 83 a3 07 00 00    	jae    ffffffff8000a949 <term_write_char+0x7f9>
ffffffff8000a1a6:	48 8b 43 18          	mov    rax,QWORD PTR [rbx+0x18]
ffffffff8000a1aa:	48 85 db             	test   rbx,rbx
ffffffff8000a1ad:	0f 84 b7 07 00 00    	je     ffffffff8000a96a <term_write_char+0x81a>
ffffffff8000a1b3:	f6 c3 07             	test   bl,0x7
ffffffff8000a1b6:	0f 85 ae 07 00 00    	jne    ffffffff8000a96a <term_write_char+0x81a>
ffffffff8000a1bc:	48 8d 53 30          	lea    rdx,[rbx+0x30]
ffffffff8000a1c0:	48 83 fb d0          	cmp    rbx,0xffffffffffffffd0
ffffffff8000a1c4:	0f 83 c8 07 00 00    	jae    ffffffff8000a992 <term_write_char+0x842>
ffffffff8000a1ca:	0f b6 4b 30          	movzx  ecx,BYTE PTR [rbx+0x30]
ffffffff8000a1ce:	48 01 c8             	add    rax,rcx
ffffffff8000a1d1:	48 85 db             	test   rbx,rbx
ffffffff8000a1d4:	0f 84 e0 07 00 00    	je     ffffffff8000a9ba <term_write_char+0x86a>
ffffffff8000a1da:	f6 c3 07             	test   bl,0x7
ffffffff8000a1dd:	0f 85 d7 07 00 00    	jne    ffffffff8000a9ba <term_write_char+0x86a>
ffffffff8000a1e3:	48 89 43 18          	mov    QWORD PTR [rbx+0x18],rax
ffffffff8000a1e7:	48 85 db             	test   rbx,rbx
ffffffff8000a1ea:	0f 84 b7 04 00 00    	je     ffffffff8000a6a7 <term_write_char+0x557>
ffffffff8000a1f0:	f6 c3 07             	test   bl,0x7
ffffffff8000a1f3:	0f 85 ae 04 00 00    	jne    ffffffff8000a6a7 <term_write_char+0x557>
ffffffff8000a1f9:	48 85 db             	test   rbx,rbx
ffffffff8000a1fc:	0f 84 d7 04 00 00    	je     ffffffff8000a6d9 <term_write_char+0x589>
ffffffff8000a202:	f6 c3 07             	test   bl,0x7
ffffffff8000a205:	0f 85 ce 04 00 00    	jne    ffffffff8000a6d9 <term_write_char+0x589>
ffffffff8000a20b:	48 85 c9             	test   rcx,rcx
ffffffff8000a20e:	0f 84 e1 fe ff ff    	je     ffffffff8000a0f5 <term_write_char.cold>
ffffffff8000a214:	31 d2                	xor    edx,edx
ffffffff8000a216:	48 f7 f1             	div    rcx
ffffffff8000a219:	48 85 db             	test   rbx,rbx
ffffffff8000a21c:	0f 84 e9 04 00 00    	je     ffffffff8000a70b <term_write_char+0x5bb>
ffffffff8000a222:	f6 c3 07             	test   bl,0x7
ffffffff8000a225:	0f 85 e0 04 00 00    	jne    ffffffff8000a70b <term_write_char+0x5bb>
ffffffff8000a22b:	48 8b 43 18          	mov    rax,QWORD PTR [rbx+0x18]
ffffffff8000a22f:	48 29 d0             	sub    rax,rdx
ffffffff8000a232:	48 85 db             	test   rbx,rbx
ffffffff8000a235:	0f 84 f8 04 00 00    	je     ffffffff8000a733 <term_write_char+0x5e3>
ffffffff8000a23b:	f6 c3 07             	test   bl,0x7
ffffffff8000a23e:	0f 85 ef 04 00 00    	jne    ffffffff8000a733 <term_write_char+0x5e3>
ffffffff8000a244:	48 89 43 18          	mov    QWORD PTR [rbx+0x18],rax
ffffffff8000a248:	4c 8d 43 20          	lea    r8,[rbx+0x20]
ffffffff8000a24c:	48 85 db             	test   rbx,rbx
ffffffff8000a24f:	0f 84 d8 02 00 00    	je     ffffffff8000a52d <term_write_char+0x3dd>
ffffffff8000a255:	f6 c3 07             	test   bl,0x7
ffffffff8000a258:	0f 85 cf 02 00 00    	jne    ffffffff8000a52d <term_write_char+0x3dd>
ffffffff8000a25e:	48 83 fb e8          	cmp    rbx,0xffffffffffffffe8
ffffffff8000a262:	0f 83 ed 02 00 00    	jae    ffffffff8000a555 <term_write_char+0x405>
ffffffff8000a268:	48 8b 43 18          	mov    rax,QWORD PTR [rbx+0x18]
ffffffff8000a26c:	48 85 db             	test   rbx,rbx
ffffffff8000a26f:	0f 84 01 03 00 00    	je     ffffffff8000a576 <term_write_char+0x426>
ffffffff8000a275:	f6 c3 07             	test   bl,0x7
ffffffff8000a278:	0f 85 f8 02 00 00    	jne    ffffffff8000a576 <term_write_char+0x426>
ffffffff8000a27e:	48 3b 43 08          	cmp    rax,QWORD PTR [rbx+0x8]
ffffffff8000a282:	0f 84 78 01 00 00    	je     ffffffff8000a400 <term_write_char+0x2b0>
ffffffff8000a288:	48 85 db             	test   rbx,rbx
ffffffff8000a28b:	0f 84 0d 03 00 00    	je     ffffffff8000a59e <term_write_char+0x44e>
ffffffff8000a291:	f6 c3 07             	test   bl,0x7
ffffffff8000a294:	0f 85 04 03 00 00    	jne    ffffffff8000a59e <term_write_char+0x44e>
ffffffff8000a29a:	48 83 fb e0          	cmp    rbx,0xffffffffffffffe0
ffffffff8000a29e:	0f 83 18 03 00 00    	jae    ffffffff8000a5bc <term_write_char+0x46c>
ffffffff8000a2a4:	48 8b 43 20          	mov    rax,QWORD PTR [rbx+0x20]
ffffffff8000a2a8:	48 85 db             	test   rbx,rbx
ffffffff8000a2ab:	0f 84 5e 02 00 00    	je     ffffffff8000a50f <term_write_char+0x3bf>
ffffffff8000a2b1:	f6 c3 07             	test   bl,0x7
ffffffff8000a2b4:	0f 85 55 02 00 00    	jne    ffffffff8000a50f <term_write_char+0x3bf>
ffffffff8000a2ba:	48 3b 43 10          	cmp    rax,QWORD PTR [rbx+0x10]
ffffffff8000a2be:	0f 84 bc 01 00 00    	je     ffffffff8000a480 <term_write_char+0x330>
ffffffff8000a2c4:	c6 05 55 ac 00 00 00 	mov    BYTE PTR [rip+0xac55],0x0        # ffffffff80014f20 <term_lock>
ffffffff8000a2cb:	fb                   	sti
ffffffff8000a2cc:	48 83 c4 20          	add    rsp,0x20
ffffffff8000a2d0:	5b                   	pop    rbx
ffffffff8000a2d1:	c3                   	ret
ffffffff8000a2d2:	66 0f 1f 44 00 00    	nop    WORD PTR [rax+rax*1+0x0]
ffffffff8000a2d8:	40 0f be ce          	movsx  ecx,sil
ffffffff8000a2dc:	48 85 db             	test   rbx,rbx
ffffffff8000a2df:	0f 84 76 04 00 00    	je     ffffffff8000a75b <term_write_char+0x60b>
ffffffff8000a2e5:	f6 c3 07             	test   bl,0x7
ffffffff8000a2e8:	0f 85 6d 04 00 00    	jne    ffffffff8000a75b <term_write_char+0x60b>
ffffffff8000a2ee:	4c 8d 43 20          	lea    r8,[rbx+0x20]
ffffffff8000a2f2:	48 83 fb e0          	cmp    rbx,0xffffffffffffffe0
ffffffff8000a2f6:	0f 83 82 03 00 00    	jae    ffffffff8000a67e <term_write_char+0x52e>
ffffffff8000a2fc:	48 8b 53 20          	mov    rdx,QWORD PTR [rbx+0x20]
ffffffff8000a300:	48 c1 e2 04          	shl    rdx,0x4
ffffffff8000a304:	48 85 db             	test   rbx,rbx
ffffffff8000a307:	0f 84 20 03 00 00    	je     ffffffff8000a62d <term_write_char+0x4dd>
ffffffff8000a30d:	f6 c3 07             	test   bl,0x7
ffffffff8000a310:	0f 85 17 03 00 00    	jne    ffffffff8000a62d <term_write_char+0x4dd>
ffffffff8000a316:	48 8b 43 18          	mov    rax,QWORD PTR [rbx+0x18]
ffffffff8000a31a:	48 89 df             	mov    rdi,rbx
ffffffff8000a31d:	4c 89 44 24 08       	mov    QWORD PTR [rsp+0x8],r8
ffffffff8000a322:	48 8d 34 c5 00 00 00 	lea    rsi,[rax*8+0x0]
ffffffff8000a329:	00 
ffffffff8000a32a:	e8 41 fb ff ff       	call   ffffffff80009e70 <term_draw_char>
ffffffff8000a32f:	48 85 db             	test   rbx,rbx
ffffffff8000a332:	4c 8b 44 24 08       	mov    r8,QWORD PTR [rsp+0x8]
ffffffff8000a337:	0f 84 3a 04 00 00    	je     ffffffff8000a777 <term_write_char+0x627>
ffffffff8000a33d:	f6 c3 07             	test   bl,0x7
ffffffff8000a340:	0f 85 31 04 00 00    	jne    ffffffff8000a777 <term_write_char+0x627>
ffffffff8000a346:	48 8b 43 18          	mov    rax,QWORD PTR [rbx+0x18]
ffffffff8000a34a:	48 83 c0 01          	add    rax,0x1
ffffffff8000a34e:	48 85 db             	test   rbx,rbx
ffffffff8000a351:	0f 84 3e 04 00 00    	je     ffffffff8000a795 <term_write_char+0x645>
ffffffff8000a357:	f6 c3 07             	test   bl,0x7
ffffffff8000a35a:	0f 85 35 04 00 00    	jne    ffffffff8000a795 <term_write_char+0x645>
ffffffff8000a360:	48 89 43 18          	mov    QWORD PTR [rbx+0x18],rax
ffffffff8000a364:	4c 8d 4b 18          	lea    r9,[rbx+0x18]
ffffffff8000a368:	e9 df fe ff ff       	jmp    ffffffff8000a24c <term_write_char+0xfc>
ffffffff8000a36d:	0f 1f 00             	nop    DWORD PTR [rax]
ffffffff8000a370:	48 85 db             	test   rbx,rbx
ffffffff8000a373:	0f 84 44 04 00 00    	je     ffffffff8000a7bd <term_write_char+0x66d>
ffffffff8000a379:	f6 c3 07             	test   bl,0x7
ffffffff8000a37c:	0f 85 3b 04 00 00    	jne    ffffffff8000a7bd <term_write_char+0x66d>
ffffffff8000a382:	4c 8d 4b 18          	lea    r9,[rbx+0x18]
ffffffff8000a386:	48 83 fb e8          	cmp    rbx,0xffffffffffffffe8
ffffffff8000a38a:	0f 83 cd 02 00 00    	jae    ffffffff8000a65d <term_write_char+0x50d>
ffffffff8000a390:	48 83 7b 18 00       	cmp    QWORD PTR [rbx+0x18],0x0
ffffffff8000a395:	0f 84 45 01 00 00    	je     ffffffff8000a4e0 <term_write_char+0x390>
ffffffff8000a39b:	48 85 db             	test   rbx,rbx
ffffffff8000a39e:	0f 84 4d 02 00 00    	je     ffffffff8000a5f1 <term_write_char+0x4a1>
ffffffff8000a3a4:	f6 c3 07             	test   bl,0x7
ffffffff8000a3a7:	0f 85 44 02 00 00    	jne    ffffffff8000a5f1 <term_write_char+0x4a1>
ffffffff8000a3ad:	48 c7 43 18 00 00 00 	mov    QWORD PTR [rbx+0x18],0x0
ffffffff8000a3b4:	00 
ffffffff8000a3b5:	48 85 db             	test   rbx,rbx
ffffffff8000a3b8:	0f 84 51 02 00 00    	je     ffffffff8000a60f <term_write_char+0x4bf>
ffffffff8000a3be:	f6 c3 07             	test   bl,0x7
ffffffff8000a3c1:	0f 85 48 02 00 00    	jne    ffffffff8000a60f <term_write_char+0x4bf>
ffffffff8000a3c7:	4c 8d 43 20          	lea    r8,[rbx+0x20]
ffffffff8000a3cb:	48 83 fb e0          	cmp    rbx,0xffffffffffffffe0
ffffffff8000a3cf:	0f 83 fc 03 00 00    	jae    ffffffff8000a7d1 <term_write_char+0x681>
ffffffff8000a3d5:	48 8b 43 20          	mov    rax,QWORD PTR [rbx+0x20]
ffffffff8000a3d9:	48 83 c0 01          	add    rax,0x1
ffffffff8000a3dd:	48 85 db             	test   rbx,rbx
ffffffff8000a3e0:	0f 84 16 04 00 00    	je     ffffffff8000a7fc <term_write_char+0x6ac>
ffffffff8000a3e6:	f6 c3 07             	test   bl,0x7
ffffffff8000a3e9:	0f 85 0d 04 00 00    	jne    ffffffff8000a7fc <term_write_char+0x6ac>
ffffffff8000a3ef:	48 89 43 20          	mov    QWORD PTR [rbx+0x20],rax
ffffffff8000a3f3:	e9 54 fe ff ff       	jmp    ffffffff8000a24c <term_write_char+0xfc>
ffffffff8000a3f8:	0f 1f 84 00 00 00 00 	nop    DWORD PTR [rax+rax*1+0x0]
ffffffff8000a3ff:	00 
ffffffff8000a400:	48 85 db             	test   rbx,rbx
ffffffff8000a403:	0f 84 25 04 00 00    	je     ffffffff8000a82e <term_write_char+0x6de>
ffffffff8000a409:	f6 c3 07             	test   bl,0x7
ffffffff8000a40c:	0f 85 1c 04 00 00    	jne    ffffffff8000a82e <term_write_char+0x6de>
ffffffff8000a412:	48 c7 43 18 00 00 00 	mov    QWORD PTR [rbx+0x18],0x0
ffffffff8000a419:	00 
ffffffff8000a41a:	48 85 db             	test   rbx,rbx
ffffffff8000a41d:	0f 84 29 04 00 00    	je     ffffffff8000a84c <term_write_char+0x6fc>
ffffffff8000a423:	f6 c3 07             	test   bl,0x7
ffffffff8000a426:	0f 85 20 04 00 00    	jne    ffffffff8000a84c <term_write_char+0x6fc>
ffffffff8000a42c:	48 83 fb e0          	cmp    rbx,0xffffffffffffffe0
ffffffff8000a430:	0f 83 34 04 00 00    	jae    ffffffff8000a86a <term_write_char+0x71a>
ffffffff8000a436:	48 8b 43 20          	mov    rax,QWORD PTR [rbx+0x20]
ffffffff8000a43a:	48 83 c0 01          	add    rax,0x1
ffffffff8000a43e:	48 85 db             	test   rbx,rbx
ffffffff8000a441:	0f 84 44 04 00 00    	je     ffffffff8000a88b <term_write_char+0x73b>
ffffffff8000a447:	f6 c3 07             	test   bl,0x7
ffffffff8000a44a:	0f 85 3b 04 00 00    	jne    ffffffff8000a88b <term_write_char+0x73b>
ffffffff8000a450:	48 89 43 20          	mov    QWORD PTR [rbx+0x20],rax
ffffffff8000a454:	48 85 db             	test   rbx,rbx
ffffffff8000a457:	0f 84 56 04 00 00    	je     ffffffff8000a8b3 <term_write_char+0x763>
ffffffff8000a45d:	f6 c3 07             	test   bl,0x7
ffffffff8000a460:	0f 85 4d 04 00 00    	jne    ffffffff8000a8b3 <term_write_char+0x763>
ffffffff8000a466:	48 8d 53 31          	lea    rdx,[rbx+0x31]
ffffffff8000a46a:	48 83 fb cf          	cmp    rbx,0xffffffffffffffcf
ffffffff8000a46e:	0f 83 5d 04 00 00    	jae    ffffffff8000a8d1 <term_write_char+0x781>
ffffffff8000a474:	c6 43 31 01          	mov    BYTE PTR [rbx+0x31],0x1
ffffffff8000a478:	e9 0b fe ff ff       	jmp    ffffffff8000a288 <term_write_char+0x138>
ffffffff8000a47d:	0f 1f 00             	nop    DWORD PTR [rax]
ffffffff8000a480:	48 89 df             	mov    rdi,rbx
ffffffff8000a483:	e8 48 f7 ff ff       	call   ffffffff80009bd0 <term_scroll>
ffffffff8000a488:	48 85 db             	test   rbx,rbx
ffffffff8000a48b:	0f 84 5e 04 00 00    	je     ffffffff8000a8ef <term_write_char+0x79f>
ffffffff8000a491:	f6 c3 07             	test   bl,0x7
ffffffff8000a494:	0f 85 55 04 00 00    	jne    ffffffff8000a8ef <term_write_char+0x79f>
ffffffff8000a49a:	48 8b 43 20          	mov    rax,QWORD PTR [rbx+0x20]
ffffffff8000a49e:	48 83 e8 01          	sub    rax,0x1
ffffffff8000a4a2:	48 85 db             	test   rbx,rbx
ffffffff8000a4a5:	0f 84 58 04 00 00    	je     ffffffff8000a903 <term_write_char+0x7b3>
ffffffff8000a4ab:	f6 c3 07             	test   bl,0x7
ffffffff8000a4ae:	0f 85 4f 04 00 00    	jne    ffffffff8000a903 <term_write_char+0x7b3>
ffffffff8000a4b4:	48 89 43 20          	mov    QWORD PTR [rbx+0x20],rax
ffffffff8000a4b8:	48 85 db             	test   rbx,rbx
ffffffff8000a4bb:	0f 84 60 04 00 00    	je     ffffffff8000a921 <term_write_char+0x7d1>
ffffffff8000a4c1:	f6 c3 07             	test   bl,0x7
ffffffff8000a4c4:	0f 85 57 04 00 00    	jne    ffffffff8000a921 <term_write_char+0x7d1>
ffffffff8000a4ca:	48 c7 43 18 00 00 00 	mov    QWORD PTR [rbx+0x18],0x0
ffffffff8000a4d1:	00 
ffffffff8000a4d2:	e9 ed fd ff ff       	jmp    ffffffff8000a2c4 <term_write_char+0x174>
ffffffff8000a4d7:	66 0f 1f 84 00 00 00 	nop    WORD PTR [rax+rax*1+0x0]
ffffffff8000a4de:	00 00 
ffffffff8000a4e0:	48 85 db             	test   rbx,rbx
ffffffff8000a4e3:	0f 84 ea 00 00 00    	je     ffffffff8000a5d3 <term_write_char+0x483>
ffffffff8000a4e9:	f6 c3 07             	test   bl,0x7
ffffffff8000a4ec:	0f 85 e1 00 00 00    	jne    ffffffff8000a5d3 <term_write_char+0x483>
ffffffff8000a4f2:	0f b6 43 31          	movzx  eax,BYTE PTR [rbx+0x31]
ffffffff8000a4f6:	3c 01                	cmp    al,0x1
ffffffff8000a4f8:	0f 87 2b fc ff ff    	ja     ffffffff8000a129 <term_write_char.cold+0x34>
ffffffff8000a4fe:	4c 8d 43 20          	lea    r8,[rbx+0x20]
ffffffff8000a502:	a8 01                	test   al,0x1
ffffffff8000a504:	0f 85 42 fd ff ff    	jne    ffffffff8000a24c <term_write_char+0xfc>
ffffffff8000a50a:	e9 8c fe ff ff       	jmp    ffffffff8000a39b <term_write_char+0x24b>
ffffffff8000a50f:	48 89 de             	mov    rsi,rbx
ffffffff8000a512:	48 c7 c7 40 1d 01 80 	mov    rdi,0xffffffff80011d40
ffffffff8000a519:	48 89 44 24 08       	mov    QWORD PTR [rsp+0x8],rax
ffffffff8000a51e:	e8 6d b5 ff ff       	call   ffffffff80005a90 <__ubsan_handle_type_mismatch_v1>
ffffffff8000a523:	48 8b 44 24 08       	mov    rax,QWORD PTR [rsp+0x8]
ffffffff8000a528:	e9 8d fd ff ff       	jmp    ffffffff8000a2ba <term_write_char+0x16a>
ffffffff8000a52d:	48 89 de             	mov    rsi,rbx
ffffffff8000a530:	48 c7 c7 a0 1e 01 80 	mov    rdi,0xffffffff80011ea0
ffffffff8000a537:	4c 89 44 24 10       	mov    QWORD PTR [rsp+0x10],r8
ffffffff8000a53c:	4c 89 4c 24 08       	mov    QWORD PTR [rsp+0x8],r9
ffffffff8000a541:	e8 4a b5 ff ff       	call   ffffffff80005a90 <__ubsan_handle_type_mismatch_v1>
ffffffff8000a546:	4c 8b 44 24 10       	mov    r8,QWORD PTR [rsp+0x10]
ffffffff8000a54b:	4c 8b 4c 24 08       	mov    r9,QWORD PTR [rsp+0x8]
ffffffff8000a550:	e9 09 fd ff ff       	jmp    ffffffff8000a25e <term_write_char+0x10e>
ffffffff8000a555:	4c 89 ca             	mov    rdx,r9
ffffffff8000a558:	48 89 de             	mov    rsi,rbx
ffffffff8000a55b:	4c 89 44 24 08       	mov    QWORD PTR [rsp+0x8],r8
ffffffff8000a560:	48 c7 c7 80 1e 01 80 	mov    rdi,0xffffffff80011e80
ffffffff8000a567:	e8 74 bd ff ff       	call   ffffffff800062e0 <__ubsan_handle_pointer_overflow>
ffffffff8000a56c:	4c 8b 44 24 08       	mov    r8,QWORD PTR [rsp+0x8]
ffffffff8000a571:	e9 f2 fc ff ff       	jmp    ffffffff8000a268 <term_write_char+0x118>
ffffffff8000a576:	48 89 de             	mov    rsi,rbx
ffffffff8000a579:	48 c7 c7 60 1e 01 80 	mov    rdi,0xffffffff80011e60
ffffffff8000a580:	4c 89 44 24 10       	mov    QWORD PTR [rsp+0x10],r8
ffffffff8000a585:	48 89 44 24 08       	mov    QWORD PTR [rsp+0x8],rax
ffffffff8000a58a:	e8 01 b5 ff ff       	call   ffffffff80005a90 <__ubsan_handle_type_mismatch_v1>
ffffffff8000a58f:	4c 8b 44 24 10       	mov    r8,QWORD PTR [rsp+0x10]
ffffffff8000a594:	48 8b 44 24 08       	mov    rax,QWORD PTR [rsp+0x8]
ffffffff8000a599:	e9 e0 fc ff ff       	jmp    ffffffff8000a27e <term_write_char+0x12e>
ffffffff8000a59e:	48 89 de             	mov    rsi,rbx
ffffffff8000a5a1:	48 c7 c7 80 1d 01 80 	mov    rdi,0xffffffff80011d80
ffffffff8000a5a8:	4c 89 44 24 08       	mov    QWORD PTR [rsp+0x8],r8
ffffffff8000a5ad:	e8 de b4 ff ff       	call   ffffffff80005a90 <__ubsan_handle_type_mismatch_v1>
ffffffff8000a5b2:	4c 8b 44 24 08       	mov    r8,QWORD PTR [rsp+0x8]
ffffffff8000a5b7:	e9 de fc ff ff       	jmp    ffffffff8000a29a <term_write_char+0x14a>
ffffffff8000a5bc:	4c 89 c2             	mov    rdx,r8
ffffffff8000a5bf:	48 89 de             	mov    rsi,rbx
ffffffff8000a5c2:	48 c7 c7 60 1d 01 80 	mov    rdi,0xffffffff80011d60
ffffffff8000a5c9:	e8 12 bd ff ff       	call   ffffffff800062e0 <__ubsan_handle_pointer_overflow>
ffffffff8000a5ce:	e9 d1 fc ff ff       	jmp    ffffffff8000a2a4 <term_write_char+0x154>
ffffffff8000a5d3:	48 89 de             	mov    rsi,rbx
ffffffff8000a5d6:	48 c7 c7 80 20 01 80 	mov    rdi,0xffffffff80012080
ffffffff8000a5dd:	4c 89 4c 24 08       	mov    QWORD PTR [rsp+0x8],r9
ffffffff8000a5e2:	e8 a9 b4 ff ff       	call   ffffffff80005a90 <__ubsan_handle_type_mismatch_v1>
ffffffff8000a5e7:	4c 8b 4c 24 08       	mov    r9,QWORD PTR [rsp+0x8]
ffffffff8000a5ec:	e9 01 ff ff ff       	jmp    ffffffff8000a4f2 <term_write_char+0x3a2>
ffffffff8000a5f1:	48 89 de             	mov    rsi,rbx
ffffffff8000a5f4:	48 c7 c7 00 21 01 80 	mov    rdi,0xffffffff80012100
ffffffff8000a5fb:	4c 89 4c 24 08       	mov    QWORD PTR [rsp+0x8],r9
ffffffff8000a600:	e8 8b b4 ff ff       	call   ffffffff80005a90 <__ubsan_handle_type_mismatch_v1>
ffffffff8000a605:	4c 8b 4c 24 08       	mov    r9,QWORD PTR [rsp+0x8]
ffffffff8000a60a:	e9 9e fd ff ff       	jmp    ffffffff8000a3ad <term_write_char+0x25d>
ffffffff8000a60f:	48 89 de             	mov    rsi,rbx
ffffffff8000a612:	48 c7 c7 e0 20 01 80 	mov    rdi,0xffffffff800120e0
ffffffff8000a619:	4c 89 4c 24 08       	mov    QWORD PTR [rsp+0x8],r9
ffffffff8000a61e:	e8 6d b4 ff ff       	call   ffffffff80005a90 <__ubsan_handle_type_mismatch_v1>
ffffffff8000a623:	4c 8b 4c 24 08       	mov    r9,QWORD PTR [rsp+0x8]
ffffffff8000a628:	e9 9a fd ff ff       	jmp    ffffffff8000a3c7 <term_write_char+0x277>
ffffffff8000a62d:	48 89 de             	mov    rsi,rbx
ffffffff8000a630:	48 c7 c7 00 1f 01 80 	mov    rdi,0xffffffff80011f00
ffffffff8000a637:	4c 89 44 24 18       	mov    QWORD PTR [rsp+0x18],r8
ffffffff8000a63c:	48 89 54 24 10       	mov    QWORD PTR [rsp+0x10],rdx
ffffffff8000a641:	89 4c 24 08          	mov    DWORD PTR [rsp+0x8],ecx
ffffffff8000a645:	e8 46 b4 ff ff       	call   ffffffff80005a90 <__ubsan_handle_type_mismatch_v1>
ffffffff8000a64a:	4c 8b 44 24 18       	mov    r8,QWORD PTR [rsp+0x18]
ffffffff8000a64f:	48 8b 54 24 10       	mov    rdx,QWORD PTR [rsp+0x10]
ffffffff8000a654:	8b 4c 24 08          	mov    ecx,DWORD PTR [rsp+0x8]
ffffffff8000a658:	e9 b9 fc ff ff       	jmp    ffffffff8000a316 <term_write_char+0x1c6>
ffffffff8000a65d:	4c 89 ca             	mov    rdx,r9
ffffffff8000a660:	48 89 de             	mov    rsi,rbx
ffffffff8000a663:	4c 89 4c 24 08       	mov    QWORD PTR [rsp+0x8],r9
ffffffff8000a668:	48 c7 c7 20 21 01 80 	mov    rdi,0xffffffff80012120
ffffffff8000a66f:	e8 6c bc ff ff       	call   ffffffff800062e0 <__ubsan_handle_pointer_overflow>
ffffffff8000a674:	4c 8b 4c 24 08       	mov    r9,QWORD PTR [rsp+0x8]
ffffffff8000a679:	e9 12 fd ff ff       	jmp    ffffffff8000a390 <term_write_char+0x240>
ffffffff8000a67e:	4c 89 c2             	mov    rdx,r8
ffffffff8000a681:	48 89 de             	mov    rsi,rbx
ffffffff8000a684:	48 c7 c7 20 1f 01 80 	mov    rdi,0xffffffff80011f20
ffffffff8000a68b:	89 4c 24 10          	mov    DWORD PTR [rsp+0x10],ecx
ffffffff8000a68f:	4c 89 44 24 08       	mov    QWORD PTR [rsp+0x8],r8
ffffffff8000a694:	e8 47 bc ff ff       	call   ffffffff800062e0 <__ubsan_handle_pointer_overflow>
ffffffff8000a699:	8b 4c 24 10          	mov    ecx,DWORD PTR [rsp+0x10]
ffffffff8000a69d:	4c 8b 44 24 08       	mov    r8,QWORD PTR [rsp+0x8]
ffffffff8000a6a2:	e9 55 fc ff ff       	jmp    ffffffff8000a2fc <term_write_char+0x1ac>
ffffffff8000a6a7:	48 89 de             	mov    rsi,rbx
ffffffff8000a6aa:	48 c7 c7 c0 1f 01 80 	mov    rdi,0xffffffff80011fc0
ffffffff8000a6b1:	4c 89 4c 24 18       	mov    QWORD PTR [rsp+0x18],r9
ffffffff8000a6b6:	48 89 44 24 10       	mov    QWORD PTR [rsp+0x10],rax
ffffffff8000a6bb:	48 89 4c 24 08       	mov    QWORD PTR [rsp+0x8],rcx
ffffffff8000a6c0:	e8 cb b3 ff ff       	call   ffffffff80005a90 <__ubsan_handle_type_mismatch_v1>
ffffffff8000a6c5:	4c 8b 4c 24 18       	mov    r9,QWORD PTR [rsp+0x18]
ffffffff8000a6ca:	48 8b 44 24 10       	mov    rax,QWORD PTR [rsp+0x10]
ffffffff8000a6cf:	48 8b 4c 24 08       	mov    rcx,QWORD PTR [rsp+0x8]
ffffffff8000a6d4:	e9 20 fb ff ff       	jmp    ffffffff8000a1f9 <term_write_char+0xa9>
ffffffff8000a6d9:	48 89 de             	mov    rsi,rbx
ffffffff8000a6dc:	48 c7 c7 a0 1f 01 80 	mov    rdi,0xffffffff80011fa0
ffffffff8000a6e3:	4c 89 4c 24 18       	mov    QWORD PTR [rsp+0x18],r9
ffffffff8000a6e8:	48 89 44 24 10       	mov    QWORD PTR [rsp+0x10],rax
ffffffff8000a6ed:	48 89 4c 24 08       	mov    QWORD PTR [rsp+0x8],rcx
ffffffff8000a6f2:	e8 99 b3 ff ff       	call   ffffffff80005a90 <__ubsan_handle_type_mismatch_v1>
ffffffff8000a6f7:	4c 8b 4c 24 18       	mov    r9,QWORD PTR [rsp+0x18]
ffffffff8000a6fc:	48 8b 44 24 10       	mov    rax,QWORD PTR [rsp+0x10]
ffffffff8000a701:	48 8b 4c 24 08       	mov    rcx,QWORD PTR [rsp+0x8]
ffffffff8000a706:	e9 00 fb ff ff       	jmp    ffffffff8000a20b <term_write_char+0xbb>
ffffffff8000a70b:	48 89 de             	mov    rsi,rbx
ffffffff8000a70e:	48 c7 c7 80 1f 01 80 	mov    rdi,0xffffffff80011f80
ffffffff8000a715:	4c 89 4c 24 10       	mov    QWORD PTR [rsp+0x10],r9
ffffffff8000a71a:	48 89 54 24 08       	mov    QWORD PTR [rsp+0x8],rdx
ffffffff8000a71f:	e8 6c b3 ff ff       	call   ffffffff80005a90 <__ubsan_handle_type_mismatch_v1>
ffffffff8000a724:	4c 8b 4c 24 10       	mov    r9,QWORD PTR [rsp+0x10]
ffffffff8000a729:	48 8b 54 24 08       	mov    rdx,QWORD PTR [rsp+0x8]
ffffffff8000a72e:	e9 f8 fa ff ff       	jmp    ffffffff8000a22b <term_write_char+0xdb>
ffffffff8000a733:	48 89 de             	mov    rsi,rbx
ffffffff8000a736:	48 c7 c7 60 1f 01 80 	mov    rdi,0xffffffff80011f60
ffffffff8000a73d:	4c 89 4c 24 10       	mov    QWORD PTR [rsp+0x10],r9
ffffffff8000a742:	48 89 44 24 08       	mov    QWORD PTR [rsp+0x8],rax
ffffffff8000a747:	e8 44 b3 ff ff       	call   ffffffff80005a90 <__ubsan_handle_type_mismatch_v1>
ffffffff8000a74c:	4c 8b 4c 24 10       	mov    r9,QWORD PTR [rsp+0x10]
ffffffff8000a751:	48 8b 44 24 08       	mov    rax,QWORD PTR [rsp+0x8]
ffffffff8000a756:	e9 e9 fa ff ff       	jmp    ffffffff8000a244 <term_write_char+0xf4>
ffffffff8000a75b:	48 89 de             	mov    rsi,rbx
ffffffff8000a75e:	48 c7 c7 40 1f 01 80 	mov    rdi,0xffffffff80011f40
ffffffff8000a765:	89 4c 24 08          	mov    DWORD PTR [rsp+0x8],ecx
ffffffff8000a769:	e8 22 b3 ff ff       	call   ffffffff80005a90 <__ubsan_handle_type_mismatch_v1>
ffffffff8000a76e:	8b 4c 24 08          	mov    ecx,DWORD PTR [rsp+0x8]
ffffffff8000a772:	e9 77 fb ff ff       	jmp    ffffffff8000a2ee <term_write_char+0x19e>
ffffffff8000a777:	48 89 de             	mov    rsi,rbx
ffffffff8000a77a:	48 c7 c7 e0 1e 01 80 	mov    rdi,0xffffffff80011ee0
ffffffff8000a781:	4c 89 44 24 08       	mov    QWORD PTR [rsp+0x8],r8
ffffffff8000a786:	e8 05 b3 ff ff       	call   ffffffff80005a90 <__ubsan_handle_type_mismatch_v1>
ffffffff8000a78b:	4c 8b 44 24 08       	mov    r8,QWORD PTR [rsp+0x8]
ffffffff8000a790:	e9 b1 fb ff ff       	jmp    ffffffff8000a346 <term_write_char+0x1f6>
ffffffff8000a795:	48 89 de             	mov    rsi,rbx
ffffffff8000a798:	48 c7 c7 c0 1e 01 80 	mov    rdi,0xffffffff80011ec0
ffffffff8000a79f:	4c 89 44 24 10       	mov    QWORD PTR [rsp+0x10],r8
ffffffff8000a7a4:	48 89 44 24 08       	mov    QWORD PTR [rsp+0x8],rax
ffffffff8000a7a9:	e8 e2 b2 ff ff       	call   ffffffff80005a90 <__ubsan_handle_type_mismatch_v1>
ffffffff8000a7ae:	4c 8b 44 24 10       	mov    r8,QWORD PTR [rsp+0x10]
ffffffff8000a7b3:	48 8b 44 24 08       	mov    rax,QWORD PTR [rsp+0x8]
ffffffff8000a7b8:	e9 a3 fb ff ff       	jmp    ffffffff8000a360 <term_write_char+0x210>
ffffffff8000a7bd:	48 89 de             	mov    rsi,rbx
ffffffff8000a7c0:	48 c7 c7 40 21 01 80 	mov    rdi,0xffffffff80012140
ffffffff8000a7c7:	e8 c4 b2 ff ff       	call   ffffffff80005a90 <__ubsan_handle_type_mismatch_v1>
ffffffff8000a7cc:	e9 b1 fb ff ff       	jmp    ffffffff8000a382 <term_write_char+0x232>
ffffffff8000a7d1:	4c 89 c2             	mov    rdx,r8
ffffffff8000a7d4:	48 89 de             	mov    rsi,rbx
ffffffff8000a7d7:	4c 89 4c 24 10       	mov    QWORD PTR [rsp+0x10],r9
ffffffff8000a7dc:	48 c7 c7 c0 20 01 80 	mov    rdi,0xffffffff800120c0
ffffffff8000a7e3:	4c 89 44 24 08       	mov    QWORD PTR [rsp+0x8],r8
ffffffff8000a7e8:	e8 f3 ba ff ff       	call   ffffffff800062e0 <__ubsan_handle_pointer_overflow>
ffffffff8000a7ed:	4c 8b 4c 24 10       	mov    r9,QWORD PTR [rsp+0x10]
ffffffff8000a7f2:	4c 8b 44 24 08       	mov    r8,QWORD PTR [rsp+0x8]
ffffffff8000a7f7:	e9 d9 fb ff ff       	jmp    ffffffff8000a3d5 <term_write_char+0x285>
ffffffff8000a7fc:	48 89 de             	mov    rsi,rbx
ffffffff8000a7ff:	48 c7 c7 a0 20 01 80 	mov    rdi,0xffffffff800120a0
ffffffff8000a806:	4c 89 44 24 18       	mov    QWORD PTR [rsp+0x18],r8
ffffffff8000a80b:	4c 89 4c 24 10       	mov    QWORD PTR [rsp+0x10],r9
ffffffff8000a810:	48 89 44 24 08       	mov    QWORD PTR [rsp+0x8],rax
ffffffff8000a815:	e8 76 b2 ff ff       	call   ffffffff80005a90 <__ubsan_handle_type_mismatch_v1>
ffffffff8000a81a:	4c 8b 44 24 18       	mov    r8,QWORD PTR [rsp+0x18]
ffffffff8000a81f:	4c 8b 4c 24 10       	mov    r9,QWORD PTR [rsp+0x10]
ffffffff8000a824:	48 8b 44 24 08       	mov    rax,QWORD PTR [rsp+0x8]
ffffffff8000a829:	e9 c1 fb ff ff       	jmp    ffffffff8000a3ef <term_write_char+0x29f>
ffffffff8000a82e:	48 89 de             	mov    rsi,rbx
ffffffff8000a831:	48 c7 c7 40 1e 01 80 	mov    rdi,0xffffffff80011e40
ffffffff8000a838:	4c 89 44 24 08       	mov    QWORD PTR [rsp+0x8],r8
ffffffff8000a83d:	e8 4e b2 ff ff       	call   ffffffff80005a90 <__ubsan_handle_type_mismatch_v1>
ffffffff8000a842:	4c 8b 44 24 08       	mov    r8,QWORD PTR [rsp+0x8]
ffffffff8000a847:	e9 c6 fb ff ff       	jmp    ffffffff8000a412 <term_write_char+0x2c2>
ffffffff8000a84c:	48 89 de             	mov    rsi,rbx
ffffffff8000a84f:	48 c7 c7 20 1e 01 80 	mov    rdi,0xffffffff80011e20
ffffffff8000a856:	4c 89 44 24 08       	mov    QWORD PTR [rsp+0x8],r8
ffffffff8000a85b:	e8 30 b2 ff ff       	call   ffffffff80005a90 <__ubsan_handle_type_mismatch_v1>
ffffffff8000a860:	4c 8b 44 24 08       	mov    r8,QWORD PTR [rsp+0x8]
ffffffff8000a865:	e9 c2 fb ff ff       	jmp    ffffffff8000a42c <term_write_char+0x2dc>
ffffffff8000a86a:	4c 89 c2             	mov    rdx,r8
ffffffff8000a86d:	48 89 de             	mov    rsi,rbx
ffffffff8000a870:	4c 89 44 24 08       	mov    QWORD PTR [rsp+0x8],r8
ffffffff8000a875:	48 c7 c7 00 1e 01 80 	mov    rdi,0xffffffff80011e00
ffffffff8000a87c:	e8 5f ba ff ff       	call   ffffffff800062e0 <__ubsan_handle_pointer_overflow>
ffffffff8000a881:	4c 8b 44 24 08       	mov    r8,QWORD PTR [rsp+0x8]
ffffffff8000a886:	e9 ab fb ff ff       	jmp    ffffffff8000a436 <term_write_char+0x2e6>
ffffffff8000a88b:	48 89 de             	mov    rsi,rbx
ffffffff8000a88e:	48 c7 c7 e0 1d 01 80 	mov    rdi,0xffffffff80011de0
ffffffff8000a895:	4c 89 44 24 10       	mov    QWORD PTR [rsp+0x10],r8
ffffffff8000a89a:	48 89 44 24 08       	mov    QWORD PTR [rsp+0x8],rax
ffffffff8000a89f:	e8 ec b1 ff ff       	call   ffffffff80005a90 <__ubsan_handle_type_mismatch_v1>
ffffffff8000a8a4:	4c 8b 44 24 10       	mov    r8,QWORD PTR [rsp+0x10]
ffffffff8000a8a9:	48 8b 44 24 08       	mov    rax,QWORD PTR [rsp+0x8]
ffffffff8000a8ae:	e9 9d fb ff ff       	jmp    ffffffff8000a450 <term_write_char+0x300>
ffffffff8000a8b3:	48 89 de             	mov    rsi,rbx
ffffffff8000a8b6:	48 c7 c7 c0 1d 01 80 	mov    rdi,0xffffffff80011dc0
ffffffff8000a8bd:	4c 89 44 24 08       	mov    QWORD PTR [rsp+0x8],r8
ffffffff8000a8c2:	e8 c9 b1 ff ff       	call   ffffffff80005a90 <__ubsan_handle_type_mismatch_v1>
ffffffff8000a8c7:	4c 8b 44 24 08       	mov    r8,QWORD PTR [rsp+0x8]
ffffffff8000a8cc:	e9 95 fb ff ff       	jmp    ffffffff8000a466 <term_write_char+0x316>
ffffffff8000a8d1:	48 89 de             	mov    rsi,rbx
ffffffff8000a8d4:	48 c7 c7 a0 1d 01 80 	mov    rdi,0xffffffff80011da0
ffffffff8000a8db:	4c 89 44 24 08       	mov    QWORD PTR [rsp+0x8],r8
ffffffff8000a8e0:	e8 fb b9 ff ff       	call   ffffffff800062e0 <__ubsan_handle_pointer_overflow>
ffffffff8000a8e5:	4c 8b 44 24 08       	mov    r8,QWORD PTR [rsp+0x8]
ffffffff8000a8ea:	e9 85 fb ff ff       	jmp    ffffffff8000a474 <term_write_char+0x324>
ffffffff8000a8ef:	48 89 de             	mov    rsi,rbx
ffffffff8000a8f2:	48 c7 c7 20 1d 01 80 	mov    rdi,0xffffffff80011d20
ffffffff8000a8f9:	e8 92 b1 ff ff       	call   ffffffff80005a90 <__ubsan_handle_type_mismatch_v1>
ffffffff8000a8fe:	e9 97 fb ff ff       	jmp    ffffffff8000a49a <term_write_char+0x34a>
ffffffff8000a903:	48 89 de             	mov    rsi,rbx
ffffffff8000a906:	48 c7 c7 00 1d 01 80 	mov    rdi,0xffffffff80011d00
ffffffff8000a90d:	48 89 44 24 08       	mov    QWORD PTR [rsp+0x8],rax
ffffffff8000a912:	e8 79 b1 ff ff       	call   ffffffff80005a90 <__ubsan_handle_type_mismatch_v1>
ffffffff8000a917:	48 8b 44 24 08       	mov    rax,QWORD PTR [rsp+0x8]
ffffffff8000a91c:	e9 93 fb ff ff       	jmp    ffffffff8000a4b4 <term_write_char+0x364>
ffffffff8000a921:	48 89 de             	mov    rsi,rbx
ffffffff8000a924:	48 c7 c7 e0 1c 01 80 	mov    rdi,0xffffffff80011ce0
ffffffff8000a92b:	e8 60 b1 ff ff       	call   ffffffff80005a90 <__ubsan_handle_type_mismatch_v1>
ffffffff8000a930:	e9 95 fb ff ff       	jmp    ffffffff8000a4ca <term_write_char+0x37a>
ffffffff8000a935:	48 89 de             	mov    rsi,rbx
ffffffff8000a938:	48 c7 c7 60 20 01 80 	mov    rdi,0xffffffff80012060
ffffffff8000a93f:	e8 4c b1 ff ff       	call   ffffffff80005a90 <__ubsan_handle_type_mismatch_v1>
ffffffff8000a944:	e9 4f f8 ff ff       	jmp    ffffffff8000a198 <term_write_char+0x48>
ffffffff8000a949:	4c 89 ca             	mov    rdx,r9
ffffffff8000a94c:	48 89 de             	mov    rsi,rbx
ffffffff8000a94f:	4c 89 4c 24 08       	mov    QWORD PTR [rsp+0x8],r9
ffffffff8000a954:	48 c7 c7 40 20 01 80 	mov    rdi,0xffffffff80012040
ffffffff8000a95b:	e8 80 b9 ff ff       	call   ffffffff800062e0 <__ubsan_handle_pointer_overflow>
ffffffff8000a960:	4c 8b 4c 24 08       	mov    r9,QWORD PTR [rsp+0x8]
ffffffff8000a965:	e9 3c f8 ff ff       	jmp    ffffffff8000a1a6 <term_write_char+0x56>
ffffffff8000a96a:	48 89 de             	mov    rsi,rbx
ffffffff8000a96d:	48 c7 c7 20 20 01 80 	mov    rdi,0xffffffff80012020
ffffffff8000a974:	4c 89 4c 24 10       	mov    QWORD PTR [rsp+0x10],r9
ffffffff8000a979:	48 89 44 24 08       	mov    QWORD PTR [rsp+0x8],rax
ffffffff8000a97e:	e8 0d b1 ff ff       	call   ffffffff80005a90 <__ubsan_handle_type_mismatch_v1>
ffffffff8000a983:	4c 8b 4c 24 10       	mov    r9,QWORD PTR [rsp+0x10]
ffffffff8000a988:	48 8b 44 24 08       	mov    rax,QWORD PTR [rsp+0x8]
ffffffff8000a98d:	e9 2a f8 ff ff       	jmp    ffffffff8000a1bc <term_write_char+0x6c>
ffffffff8000a992:	48 89 de             	mov    rsi,rbx
ffffffff8000a995:	48 c7 c7 00 20 01 80 	mov    rdi,0xffffffff80012000
ffffffff8000a99c:	4c 89 4c 24 10       	mov    QWORD PTR [rsp+0x10],r9
ffffffff8000a9a1:	48 89 44 24 08       	mov    QWORD PTR [rsp+0x8],rax
ffffffff8000a9a6:	e8 35 b9 ff ff       	call   ffffffff800062e0 <__ubsan_handle_pointer_overflow>
ffffffff8000a9ab:	4c 8b 4c 24 10       	mov    r9,QWORD PTR [rsp+0x10]
ffffffff8000a9b0:	48 8b 44 24 08       	mov    rax,QWORD PTR [rsp+0x8]
ffffffff8000a9b5:	e9 10 f8 ff ff       	jmp    ffffffff8000a1ca <term_write_char+0x7a>
ffffffff8000a9ba:	48 89 de             	mov    rsi,rbx
ffffffff8000a9bd:	48 c7 c7 e0 1f 01 80 	mov    rdi,0xffffffff80011fe0
ffffffff8000a9c4:	4c 89 4c 24 18       	mov    QWORD PTR [rsp+0x18],r9
ffffffff8000a9c9:	48 89 44 24 10       	mov    QWORD PTR [rsp+0x10],rax
ffffffff8000a9ce:	48 89 4c 24 08       	mov    QWORD PTR [rsp+0x8],rcx
ffffffff8000a9d3:	e8 b8 b0 ff ff       	call   ffffffff80005a90 <__ubsan_handle_type_mismatch_v1>
ffffffff8000a9d8:	4c 8b 4c 24 18       	mov    r9,QWORD PTR [rsp+0x18]
ffffffff8000a9dd:	48 8b 44 24 10       	mov    rax,QWORD PTR [rsp+0x10]
ffffffff8000a9e2:	48 8b 4c 24 08       	mov    rcx,QWORD PTR [rsp+0x8]
ffffffff8000a9e7:	e9 f7 f7 ff ff       	jmp    ffffffff8000a1e3 <term_write_char+0x93>
ffffffff8000a9ec:	0f 1f 40 00          	nop    DWORD PTR [rax+0x0]

ffffffff8000a9f0 <memset>:
ffffffff8000a9f0:	48 89 f0             	mov    rax,rsi
ffffffff8000a9f3:	48 89 d1             	mov    rcx,rdx
ffffffff8000a9f6:	49 89 f8             	mov    r8,rdi
ffffffff8000a9f9:	f3 aa                	rep stos BYTE PTR es:[rdi],al
ffffffff8000a9fb:	4c 89 c0             	mov    rax,r8
ffffffff8000a9fe:	c3                   	ret

ffffffff8000a9ff <memcpy>:
ffffffff8000a9ff:	48 89 f8             	mov    rax,rdi
ffffffff8000aa02:	48 89 d1             	mov    rcx,rdx
ffffffff8000aa05:	f3 a4                	rep movs BYTE PTR es:[rdi],BYTE PTR ds:[rsi]
ffffffff8000aa07:	c3                   	ret

ffffffff8000aa08 <memmove>:
ffffffff8000aa08:	48 89 f8             	mov    rax,rdi
ffffffff8000aa0b:	48 89 d1             	mov    rcx,rdx
ffffffff8000aa0e:	48 39 fe             	cmp    rsi,rdi
ffffffff8000aa11:	72 04                	jb     ffffffff8000aa17 <memmove.backwards_copy>
ffffffff8000aa13:	f3 a4                	rep movs BYTE PTR es:[rdi],BYTE PTR ds:[rsi]
ffffffff8000aa15:	eb 0e                	jmp    ffffffff8000aa25 <memmove.done>

ffffffff8000aa17 <memmove.backwards_copy>:
ffffffff8000aa17:	fd                   	std
ffffffff8000aa18:	48 8d 7c 17 ff       	lea    rdi,[rdi+rdx*1-0x1]
ffffffff8000aa1d:	48 8d 74 16 ff       	lea    rsi,[rsi+rdx*1-0x1]
ffffffff8000aa22:	f3 a4                	rep movs BYTE PTR es:[rdi],BYTE PTR ds:[rsi]
ffffffff8000aa24:	fc                   	cld

ffffffff8000aa25 <memmove.done>:
ffffffff8000aa25:	c3                   	ret

ffffffff8000aa26 <memcmp>:
ffffffff8000aa26:	48 89 d1             	mov    rcx,rdx
ffffffff8000aa29:	f3 a6                	repz cmps BYTE PTR ds:[rsi],BYTE PTR es:[rdi]
ffffffff8000aa2b:	74 0b                	je     ffffffff8000aa38 <memcmp.eq>
ffffffff8000aa2d:	8a 47 ff             	mov    al,BYTE PTR [rdi-0x1]
ffffffff8000aa30:	2a 46 ff             	sub    al,BYTE PTR [rsi-0x1]
ffffffff8000aa33:	0f be c0             	movsx  eax,al
ffffffff8000aa36:	eb 02                	jmp    ffffffff8000aa3a <memcmp.done>

ffffffff8000aa38 <memcmp.eq>:
ffffffff8000aa38:	31 c0                	xor    eax,eax

ffffffff8000aa3a <memcmp.done>:
ffffffff8000aa3a:	c3                   	ret

ffffffff8000aa3b <memchr>:
ffffffff8000aa3b:	48 89 d1             	mov    rcx,rdx
ffffffff8000aa3e:	48 89 f0             	mov    rax,rsi
ffffffff8000aa41:	f2 ae                	repnz scas al,BYTE PTR es:[rdi]
ffffffff8000aa43:	74 05                	je     ffffffff8000aa4a <memchr.found>
ffffffff8000aa45:	48 31 c0             	xor    rax,rax
ffffffff8000aa48:	eb 06                	jmp    ffffffff8000aa50 <memchr.done>

ffffffff8000aa4a <memchr.found>:
ffffffff8000aa4a:	48 ff cf             	dec    rdi
ffffffff8000aa4d:	48 89 f8             	mov    rax,rdi

ffffffff8000aa50 <memchr.done>:
ffffffff8000aa50:	c3                   	ret

ffffffff8000aa51 <memrchr>:
ffffffff8000aa51:	48 89 d1             	mov    rcx,rdx
ffffffff8000aa54:	48 89 f0             	mov    rax,rsi
ffffffff8000aa57:	48 8d 7c 17 ff       	lea    rdi,[rdi+rdx*1-0x1]
ffffffff8000aa5c:	fd                   	std
ffffffff8000aa5d:	f2 ae                	repnz scas al,BYTE PTR es:[rdi]
ffffffff8000aa5f:	74 05                	je     ffffffff8000aa66 <memrchr.found>
ffffffff8000aa61:	48 31 c0             	xor    rax,rax
ffffffff8000aa64:	eb 06                	jmp    ffffffff8000aa6c <memrchr.done>

ffffffff8000aa66 <memrchr.found>:
ffffffff8000aa66:	48 ff c7             	inc    rdi
ffffffff8000aa69:	48 89 f8             	mov    rax,rdi

ffffffff8000aa6c <memrchr.done>:
ffffffff8000aa6c:	fc                   	cld
ffffffff8000aa6d:	c3                   	ret
ffffffff8000aa6e:	66 90                	xchg   ax,ax

ffffffff8000aa70 <except0>:
ffffffff8000aa70:	6a 00                	push   0x0
ffffffff8000aa72:	6a 00                	push   0x0
ffffffff8000aa74:	e9 a4 00 00 00       	jmp    ffffffff8000ab1d <except_common>

ffffffff8000aa79 <except1>:
ffffffff8000aa79:	6a 00                	push   0x0
ffffffff8000aa7b:	6a 01                	push   0x1
ffffffff8000aa7d:	e9 9b 00 00 00       	jmp    ffffffff8000ab1d <except_common>

ffffffff8000aa82 <except2>:
ffffffff8000aa82:	6a 00                	push   0x0
ffffffff8000aa84:	6a 02                	push   0x2
ffffffff8000aa86:	e9 92 00 00 00       	jmp    ffffffff8000ab1d <except_common>

ffffffff8000aa8b <except3>:
ffffffff8000aa8b:	6a 00                	push   0x0
ffffffff8000aa8d:	6a 03                	push   0x3
ffffffff8000aa8f:	e9 89 00 00 00       	jmp    ffffffff8000ab1d <except_common>

ffffffff8000aa94 <except4>:
ffffffff8000aa94:	6a 00                	push   0x0
ffffffff8000aa96:	6a 04                	push   0x4
ffffffff8000aa98:	e9 80 00 00 00       	jmp    ffffffff8000ab1d <except_common>

ffffffff8000aa9d <except5>:
ffffffff8000aa9d:	6a 00                	push   0x0
ffffffff8000aa9f:	6a 05                	push   0x5
ffffffff8000aaa1:	eb 7a                	jmp    ffffffff8000ab1d <except_common>

ffffffff8000aaa3 <except6>:
ffffffff8000aaa3:	6a 00                	push   0x0
ffffffff8000aaa5:	6a 06                	push   0x6
ffffffff8000aaa7:	eb 74                	jmp    ffffffff8000ab1d <except_common>

ffffffff8000aaa9 <except7>:
ffffffff8000aaa9:	6a 00                	push   0x0
ffffffff8000aaab:	6a 07                	push   0x7
ffffffff8000aaad:	eb 6e                	jmp    ffffffff8000ab1d <except_common>

ffffffff8000aaaf <except8>:
ffffffff8000aaaf:	6a 00                	push   0x0
ffffffff8000aab1:	6a 08                	push   0x8
ffffffff8000aab3:	eb 68                	jmp    ffffffff8000ab1d <except_common>

ffffffff8000aab5 <except9>:
ffffffff8000aab5:	6a 00                	push   0x0
ffffffff8000aab7:	6a 09                	push   0x9
ffffffff8000aab9:	eb 62                	jmp    ffffffff8000ab1d <except_common>

ffffffff8000aabb <except10>:
ffffffff8000aabb:	6a 0a                	push   0xa
ffffffff8000aabd:	eb 5e                	jmp    ffffffff8000ab1d <except_common>

ffffffff8000aabf <except11>:
ffffffff8000aabf:	6a 0b                	push   0xb
ffffffff8000aac1:	eb 5a                	jmp    ffffffff8000ab1d <except_common>

ffffffff8000aac3 <except12>:
ffffffff8000aac3:	6a 0c                	push   0xc
ffffffff8000aac5:	eb 56                	jmp    ffffffff8000ab1d <except_common>

ffffffff8000aac7 <except13>:
ffffffff8000aac7:	6a 0d                	push   0xd
ffffffff8000aac9:	eb 52                	jmp    ffffffff8000ab1d <except_common>

ffffffff8000aacb <except14>:
ffffffff8000aacb:	6a 0e                	push   0xe
ffffffff8000aacd:	eb 4e                	jmp    ffffffff8000ab1d <except_common>

ffffffff8000aacf <except15>:
ffffffff8000aacf:	6a 00                	push   0x0
ffffffff8000aad1:	6a 0f                	push   0xf
ffffffff8000aad3:	eb 48                	jmp    ffffffff8000ab1d <except_common>

ffffffff8000aad5 <except16>:
ffffffff8000aad5:	6a 00                	push   0x0
ffffffff8000aad7:	6a 10                	push   0x10
ffffffff8000aad9:	eb 42                	jmp    ffffffff8000ab1d <except_common>

ffffffff8000aadb <except17>:
ffffffff8000aadb:	6a 11                	push   0x11
ffffffff8000aadd:	eb 3e                	jmp    ffffffff8000ab1d <except_common>

ffffffff8000aadf <except18>:
ffffffff8000aadf:	6a 00                	push   0x0
ffffffff8000aae1:	6a 12                	push   0x12
ffffffff8000aae3:	eb 38                	jmp    ffffffff8000ab1d <except_common>

ffffffff8000aae5 <except19>:
ffffffff8000aae5:	6a 00                	push   0x0
ffffffff8000aae7:	6a 13                	push   0x13
ffffffff8000aae9:	eb 32                	jmp    ffffffff8000ab1d <except_common>

ffffffff8000aaeb <except20>:
ffffffff8000aaeb:	6a 00                	push   0x0
ffffffff8000aaed:	6a 14                	push   0x14
ffffffff8000aaef:	eb 2c                	jmp    ffffffff8000ab1d <except_common>

ffffffff8000aaf1 <except21>:
ffffffff8000aaf1:	6a 15                	push   0x15
ffffffff8000aaf3:	eb 28                	jmp    ffffffff8000ab1d <except_common>

ffffffff8000aaf5 <except22>:
ffffffff8000aaf5:	6a 16                	push   0x16
ffffffff8000aaf7:	eb 24                	jmp    ffffffff8000ab1d <except_common>

ffffffff8000aaf9 <except23>:
ffffffff8000aaf9:	6a 17                	push   0x17
ffffffff8000aafb:	eb 20                	jmp    ffffffff8000ab1d <except_common>

ffffffff8000aafd <except24>:
ffffffff8000aafd:	6a 18                	push   0x18
ffffffff8000aaff:	eb 1c                	jmp    ffffffff8000ab1d <except_common>

ffffffff8000ab01 <except25>:
ffffffff8000ab01:	6a 19                	push   0x19
ffffffff8000ab03:	eb 18                	jmp    ffffffff8000ab1d <except_common>

ffffffff8000ab05 <except26>:
ffffffff8000ab05:	6a 1a                	push   0x1a
ffffffff8000ab07:	eb 14                	jmp    ffffffff8000ab1d <except_common>

ffffffff8000ab09 <except27>:
ffffffff8000ab09:	6a 1b                	push   0x1b
ffffffff8000ab0b:	eb 10                	jmp    ffffffff8000ab1d <except_common>

ffffffff8000ab0d <except28>:
ffffffff8000ab0d:	6a 1c                	push   0x1c
ffffffff8000ab0f:	eb 0c                	jmp    ffffffff8000ab1d <except_common>

ffffffff8000ab11 <except29>:
ffffffff8000ab11:	6a 1d                	push   0x1d
ffffffff8000ab13:	eb 08                	jmp    ffffffff8000ab1d <except_common>

ffffffff8000ab15 <except30>:
ffffffff8000ab15:	6a 1e                	push   0x1e
ffffffff8000ab17:	eb 04                	jmp    ffffffff8000ab1d <except_common>

ffffffff8000ab19 <except31>:
ffffffff8000ab19:	6a 1f                	push   0x1f
ffffffff8000ab1b:	eb 00                	jmp    ffffffff8000ab1d <except_common>

ffffffff8000ab1d <except_common>:
ffffffff8000ab1d:	50                   	push   rax
ffffffff8000ab1e:	53                   	push   rbx
ffffffff8000ab1f:	51                   	push   rcx
ffffffff8000ab20:	52                   	push   rdx
ffffffff8000ab21:	56                   	push   rsi
ffffffff8000ab22:	57                   	push   rdi
ffffffff8000ab23:	55                   	push   rbp
ffffffff8000ab24:	41 50                	push   r8
ffffffff8000ab26:	41 51                	push   r9
ffffffff8000ab28:	41 52                	push   r10
ffffffff8000ab2a:	41 53                	push   r11
ffffffff8000ab2c:	41 54                	push   r12
ffffffff8000ab2e:	41 55                	push   r13
ffffffff8000ab30:	41 56                	push   r14
ffffffff8000ab32:	41 57                	push   r15
ffffffff8000ab34:	48 89 e7             	mov    rdi,rsp
ffffffff8000ab37:	e8 94 c4 ff ff       	call   ffffffff80006fd0 <except_handler>
ffffffff8000ab3c:	41 5f                	pop    r15
ffffffff8000ab3e:	41 5e                	pop    r14
ffffffff8000ab40:	41 5d                	pop    r13
ffffffff8000ab42:	41 5c                	pop    r12
ffffffff8000ab44:	41 5b                	pop    r11
ffffffff8000ab46:	41 5a                	pop    r10
ffffffff8000ab48:	41 59                	pop    r9
ffffffff8000ab4a:	41 58                	pop    r8
ffffffff8000ab4c:	5d                   	pop    rbp
ffffffff8000ab4d:	5f                   	pop    rdi
ffffffff8000ab4e:	5e                   	pop    rsi
ffffffff8000ab4f:	5a                   	pop    rdx
ffffffff8000ab50:	59                   	pop    rcx
ffffffff8000ab51:	5b                   	pop    rbx
ffffffff8000ab52:	58                   	pop    rax
ffffffff8000ab53:	48 83 c4 10          	add    rsp,0x10
ffffffff8000ab57:	48 cf                	iretq

ffffffff8000ab59 <irq32>:
ffffffff8000ab59:	6a 00                	push   0x0
ffffffff8000ab5b:	6a 20                	push   0x20
ffffffff8000ab5d:	e9 2a 09 00 00       	jmp    ffffffff8000b48c <irq_common>

ffffffff8000ab62 <irq33>:
ffffffff8000ab62:	6a 00                	push   0x0
ffffffff8000ab64:	6a 21                	push   0x21
ffffffff8000ab66:	e9 21 09 00 00       	jmp    ffffffff8000b48c <irq_common>

ffffffff8000ab6b <irq34>:
ffffffff8000ab6b:	6a 00                	push   0x0
ffffffff8000ab6d:	6a 22                	push   0x22
ffffffff8000ab6f:	e9 18 09 00 00       	jmp    ffffffff8000b48c <irq_common>

ffffffff8000ab74 <irq35>:
ffffffff8000ab74:	6a 00                	push   0x0
ffffffff8000ab76:	6a 23                	push   0x23
ffffffff8000ab78:	e9 0f 09 00 00       	jmp    ffffffff8000b48c <irq_common>

ffffffff8000ab7d <irq36>:
ffffffff8000ab7d:	6a 00                	push   0x0
ffffffff8000ab7f:	6a 24                	push   0x24
ffffffff8000ab81:	e9 06 09 00 00       	jmp    ffffffff8000b48c <irq_common>

ffffffff8000ab86 <irq37>:
ffffffff8000ab86:	6a 00                	push   0x0
ffffffff8000ab88:	6a 25                	push   0x25
ffffffff8000ab8a:	e9 fd 08 00 00       	jmp    ffffffff8000b48c <irq_common>

ffffffff8000ab8f <irq38>:
ffffffff8000ab8f:	6a 00                	push   0x0
ffffffff8000ab91:	6a 26                	push   0x26
ffffffff8000ab93:	e9 f4 08 00 00       	jmp    ffffffff8000b48c <irq_common>

ffffffff8000ab98 <irq39>:
ffffffff8000ab98:	6a 00                	push   0x0
ffffffff8000ab9a:	6a 27                	push   0x27
ffffffff8000ab9c:	e9 eb 08 00 00       	jmp    ffffffff8000b48c <irq_common>

ffffffff8000aba1 <irq40>:
ffffffff8000aba1:	6a 00                	push   0x0
ffffffff8000aba3:	6a 28                	push   0x28
ffffffff8000aba5:	e9 e2 08 00 00       	jmp    ffffffff8000b48c <irq_common>

ffffffff8000abaa <irq41>:
ffffffff8000abaa:	6a 00                	push   0x0
ffffffff8000abac:	6a 29                	push   0x29
ffffffff8000abae:	e9 d9 08 00 00       	jmp    ffffffff8000b48c <irq_common>

ffffffff8000abb3 <irq42>:
ffffffff8000abb3:	6a 00                	push   0x0
ffffffff8000abb5:	6a 2a                	push   0x2a
ffffffff8000abb7:	e9 d0 08 00 00       	jmp    ffffffff8000b48c <irq_common>

ffffffff8000abbc <irq43>:
ffffffff8000abbc:	6a 00                	push   0x0
ffffffff8000abbe:	6a 2b                	push   0x2b
ffffffff8000abc0:	e9 c7 08 00 00       	jmp    ffffffff8000b48c <irq_common>

ffffffff8000abc5 <irq44>:
ffffffff8000abc5:	6a 00                	push   0x0
ffffffff8000abc7:	6a 2c                	push   0x2c
ffffffff8000abc9:	e9 be 08 00 00       	jmp    ffffffff8000b48c <irq_common>

ffffffff8000abce <irq45>:
ffffffff8000abce:	6a 00                	push   0x0
ffffffff8000abd0:	6a 2d                	push   0x2d
ffffffff8000abd2:	e9 b5 08 00 00       	jmp    ffffffff8000b48c <irq_common>

ffffffff8000abd7 <irq46>:
ffffffff8000abd7:	6a 00                	push   0x0
ffffffff8000abd9:	6a 2e                	push   0x2e
ffffffff8000abdb:	e9 ac 08 00 00       	jmp    ffffffff8000b48c <irq_common>

ffffffff8000abe0 <irq47>:
ffffffff8000abe0:	6a 00                	push   0x0
ffffffff8000abe2:	6a 2f                	push   0x2f
ffffffff8000abe4:	e9 a3 08 00 00       	jmp    ffffffff8000b48c <irq_common>

ffffffff8000abe9 <irq48>:
ffffffff8000abe9:	6a 00                	push   0x0
ffffffff8000abeb:	6a 30                	push   0x30
ffffffff8000abed:	e9 9a 08 00 00       	jmp    ffffffff8000b48c <irq_common>

ffffffff8000abf2 <irq49>:
ffffffff8000abf2:	6a 00                	push   0x0
ffffffff8000abf4:	6a 31                	push   0x31
ffffffff8000abf6:	e9 91 08 00 00       	jmp    ffffffff8000b48c <irq_common>

ffffffff8000abfb <irq50>:
ffffffff8000abfb:	6a 00                	push   0x0
ffffffff8000abfd:	6a 32                	push   0x32
ffffffff8000abff:	e9 88 08 00 00       	jmp    ffffffff8000b48c <irq_common>

ffffffff8000ac04 <irq51>:
ffffffff8000ac04:	6a 00                	push   0x0
ffffffff8000ac06:	6a 33                	push   0x33
ffffffff8000ac08:	e9 7f 08 00 00       	jmp    ffffffff8000b48c <irq_common>

ffffffff8000ac0d <irq52>:
ffffffff8000ac0d:	6a 00                	push   0x0
ffffffff8000ac0f:	6a 34                	push   0x34
ffffffff8000ac11:	e9 76 08 00 00       	jmp    ffffffff8000b48c <irq_common>

ffffffff8000ac16 <irq53>:
ffffffff8000ac16:	6a 00                	push   0x0
ffffffff8000ac18:	6a 35                	push   0x35
ffffffff8000ac1a:	e9 6d 08 00 00       	jmp    ffffffff8000b48c <irq_common>

ffffffff8000ac1f <irq54>:
ffffffff8000ac1f:	6a 00                	push   0x0
ffffffff8000ac21:	6a 36                	push   0x36
ffffffff8000ac23:	e9 64 08 00 00       	jmp    ffffffff8000b48c <irq_common>

ffffffff8000ac28 <irq55>:
ffffffff8000ac28:	6a 00                	push   0x0
ffffffff8000ac2a:	6a 37                	push   0x37
ffffffff8000ac2c:	e9 5b 08 00 00       	jmp    ffffffff8000b48c <irq_common>

ffffffff8000ac31 <irq56>:
ffffffff8000ac31:	6a 00                	push   0x0
ffffffff8000ac33:	6a 38                	push   0x38
ffffffff8000ac35:	e9 52 08 00 00       	jmp    ffffffff8000b48c <irq_common>

ffffffff8000ac3a <irq57>:
ffffffff8000ac3a:	6a 00                	push   0x0
ffffffff8000ac3c:	6a 39                	push   0x39
ffffffff8000ac3e:	e9 49 08 00 00       	jmp    ffffffff8000b48c <irq_common>

ffffffff8000ac43 <irq58>:
ffffffff8000ac43:	6a 00                	push   0x0
ffffffff8000ac45:	6a 3a                	push   0x3a
ffffffff8000ac47:	e9 40 08 00 00       	jmp    ffffffff8000b48c <irq_common>

ffffffff8000ac4c <irq59>:
ffffffff8000ac4c:	6a 00                	push   0x0
ffffffff8000ac4e:	6a 3b                	push   0x3b
ffffffff8000ac50:	e9 37 08 00 00       	jmp    ffffffff8000b48c <irq_common>

ffffffff8000ac55 <irq60>:
ffffffff8000ac55:	6a 00                	push   0x0
ffffffff8000ac57:	6a 3c                	push   0x3c
ffffffff8000ac59:	e9 2e 08 00 00       	jmp    ffffffff8000b48c <irq_common>

ffffffff8000ac5e <irq61>:
ffffffff8000ac5e:	6a 00                	push   0x0
ffffffff8000ac60:	6a 3d                	push   0x3d
ffffffff8000ac62:	e9 25 08 00 00       	jmp    ffffffff8000b48c <irq_common>

ffffffff8000ac67 <irq62>:
ffffffff8000ac67:	6a 00                	push   0x0
ffffffff8000ac69:	6a 3e                	push   0x3e
ffffffff8000ac6b:	e9 1c 08 00 00       	jmp    ffffffff8000b48c <irq_common>

ffffffff8000ac70 <irq63>:
ffffffff8000ac70:	6a 00                	push   0x0
ffffffff8000ac72:	6a 3f                	push   0x3f
ffffffff8000ac74:	e9 13 08 00 00       	jmp    ffffffff8000b48c <irq_common>

ffffffff8000ac79 <irq64>:
ffffffff8000ac79:	6a 00                	push   0x0
ffffffff8000ac7b:	6a 40                	push   0x40
ffffffff8000ac7d:	e9 0a 08 00 00       	jmp    ffffffff8000b48c <irq_common>

ffffffff8000ac82 <irq65>:
ffffffff8000ac82:	6a 00                	push   0x0
ffffffff8000ac84:	6a 41                	push   0x41
ffffffff8000ac86:	e9 01 08 00 00       	jmp    ffffffff8000b48c <irq_common>

ffffffff8000ac8b <irq66>:
ffffffff8000ac8b:	6a 00                	push   0x0
ffffffff8000ac8d:	6a 42                	push   0x42
ffffffff8000ac8f:	e9 f8 07 00 00       	jmp    ffffffff8000b48c <irq_common>

ffffffff8000ac94 <irq67>:
ffffffff8000ac94:	6a 00                	push   0x0
ffffffff8000ac96:	6a 43                	push   0x43
ffffffff8000ac98:	e9 ef 07 00 00       	jmp    ffffffff8000b48c <irq_common>

ffffffff8000ac9d <irq68>:
ffffffff8000ac9d:	6a 00                	push   0x0
ffffffff8000ac9f:	6a 44                	push   0x44
ffffffff8000aca1:	e9 e6 07 00 00       	jmp    ffffffff8000b48c <irq_common>

ffffffff8000aca6 <irq69>:
ffffffff8000aca6:	6a 00                	push   0x0
ffffffff8000aca8:	6a 45                	push   0x45
ffffffff8000acaa:	e9 dd 07 00 00       	jmp    ffffffff8000b48c <irq_common>

ffffffff8000acaf <irq70>:
ffffffff8000acaf:	6a 00                	push   0x0
ffffffff8000acb1:	6a 46                	push   0x46
ffffffff8000acb3:	e9 d4 07 00 00       	jmp    ffffffff8000b48c <irq_common>

ffffffff8000acb8 <irq71>:
ffffffff8000acb8:	6a 00                	push   0x0
ffffffff8000acba:	6a 47                	push   0x47
ffffffff8000acbc:	e9 cb 07 00 00       	jmp    ffffffff8000b48c <irq_common>

ffffffff8000acc1 <irq72>:
ffffffff8000acc1:	6a 00                	push   0x0
ffffffff8000acc3:	6a 48                	push   0x48
ffffffff8000acc5:	e9 c2 07 00 00       	jmp    ffffffff8000b48c <irq_common>

ffffffff8000acca <irq73>:
ffffffff8000acca:	6a 00                	push   0x0
ffffffff8000accc:	6a 49                	push   0x49
ffffffff8000acce:	e9 b9 07 00 00       	jmp    ffffffff8000b48c <irq_common>

ffffffff8000acd3 <irq74>:
ffffffff8000acd3:	6a 00                	push   0x0
ffffffff8000acd5:	6a 4a                	push   0x4a
ffffffff8000acd7:	e9 b0 07 00 00       	jmp    ffffffff8000b48c <irq_common>

ffffffff8000acdc <irq75>:
ffffffff8000acdc:	6a 00                	push   0x0
ffffffff8000acde:	6a 4b                	push   0x4b
ffffffff8000ace0:	e9 a7 07 00 00       	jmp    ffffffff8000b48c <irq_common>

ffffffff8000ace5 <irq76>:
ffffffff8000ace5:	6a 00                	push   0x0
ffffffff8000ace7:	6a 4c                	push   0x4c
ffffffff8000ace9:	e9 9e 07 00 00       	jmp    ffffffff8000b48c <irq_common>

ffffffff8000acee <irq77>:
ffffffff8000acee:	6a 00                	push   0x0
ffffffff8000acf0:	6a 4d                	push   0x4d
ffffffff8000acf2:	e9 95 07 00 00       	jmp    ffffffff8000b48c <irq_common>

ffffffff8000acf7 <irq78>:
ffffffff8000acf7:	6a 00                	push   0x0
ffffffff8000acf9:	6a 4e                	push   0x4e
ffffffff8000acfb:	e9 8c 07 00 00       	jmp    ffffffff8000b48c <irq_common>

ffffffff8000ad00 <irq79>:
ffffffff8000ad00:	6a 00                	push   0x0
ffffffff8000ad02:	6a 4f                	push   0x4f
ffffffff8000ad04:	e9 83 07 00 00       	jmp    ffffffff8000b48c <irq_common>

ffffffff8000ad09 <irq80>:
ffffffff8000ad09:	6a 00                	push   0x0
ffffffff8000ad0b:	6a 50                	push   0x50
ffffffff8000ad0d:	e9 7a 07 00 00       	jmp    ffffffff8000b48c <irq_common>

ffffffff8000ad12 <irq81>:
ffffffff8000ad12:	6a 00                	push   0x0
ffffffff8000ad14:	6a 51                	push   0x51
ffffffff8000ad16:	e9 71 07 00 00       	jmp    ffffffff8000b48c <irq_common>

ffffffff8000ad1b <irq82>:
ffffffff8000ad1b:	6a 00                	push   0x0
ffffffff8000ad1d:	6a 52                	push   0x52
ffffffff8000ad1f:	e9 68 07 00 00       	jmp    ffffffff8000b48c <irq_common>

ffffffff8000ad24 <irq83>:
ffffffff8000ad24:	6a 00                	push   0x0
ffffffff8000ad26:	6a 53                	push   0x53
ffffffff8000ad28:	e9 5f 07 00 00       	jmp    ffffffff8000b48c <irq_common>

ffffffff8000ad2d <irq84>:
ffffffff8000ad2d:	6a 00                	push   0x0
ffffffff8000ad2f:	6a 54                	push   0x54
ffffffff8000ad31:	e9 56 07 00 00       	jmp    ffffffff8000b48c <irq_common>

ffffffff8000ad36 <irq85>:
ffffffff8000ad36:	6a 00                	push   0x0
ffffffff8000ad38:	6a 55                	push   0x55
ffffffff8000ad3a:	e9 4d 07 00 00       	jmp    ffffffff8000b48c <irq_common>

ffffffff8000ad3f <irq86>:
ffffffff8000ad3f:	6a 00                	push   0x0
ffffffff8000ad41:	6a 56                	push   0x56
ffffffff8000ad43:	e9 44 07 00 00       	jmp    ffffffff8000b48c <irq_common>

ffffffff8000ad48 <irq87>:
ffffffff8000ad48:	6a 00                	push   0x0
ffffffff8000ad4a:	6a 57                	push   0x57
ffffffff8000ad4c:	e9 3b 07 00 00       	jmp    ffffffff8000b48c <irq_common>

ffffffff8000ad51 <irq88>:
ffffffff8000ad51:	6a 00                	push   0x0
ffffffff8000ad53:	6a 58                	push   0x58
ffffffff8000ad55:	e9 32 07 00 00       	jmp    ffffffff8000b48c <irq_common>

ffffffff8000ad5a <irq89>:
ffffffff8000ad5a:	6a 00                	push   0x0
ffffffff8000ad5c:	6a 59                	push   0x59
ffffffff8000ad5e:	e9 29 07 00 00       	jmp    ffffffff8000b48c <irq_common>

ffffffff8000ad63 <irq90>:
ffffffff8000ad63:	6a 00                	push   0x0
ffffffff8000ad65:	6a 5a                	push   0x5a
ffffffff8000ad67:	e9 20 07 00 00       	jmp    ffffffff8000b48c <irq_common>

ffffffff8000ad6c <irq91>:
ffffffff8000ad6c:	6a 00                	push   0x0
ffffffff8000ad6e:	6a 5b                	push   0x5b
ffffffff8000ad70:	e9 17 07 00 00       	jmp    ffffffff8000b48c <irq_common>

ffffffff8000ad75 <irq92>:
ffffffff8000ad75:	6a 00                	push   0x0
ffffffff8000ad77:	6a 5c                	push   0x5c
ffffffff8000ad79:	e9 0e 07 00 00       	jmp    ffffffff8000b48c <irq_common>

ffffffff8000ad7e <irq93>:
ffffffff8000ad7e:	6a 00                	push   0x0
ffffffff8000ad80:	6a 5d                	push   0x5d
ffffffff8000ad82:	e9 05 07 00 00       	jmp    ffffffff8000b48c <irq_common>

ffffffff8000ad87 <irq94>:
ffffffff8000ad87:	6a 00                	push   0x0
ffffffff8000ad89:	6a 5e                	push   0x5e
ffffffff8000ad8b:	e9 fc 06 00 00       	jmp    ffffffff8000b48c <irq_common>

ffffffff8000ad90 <irq95>:
ffffffff8000ad90:	6a 00                	push   0x0
ffffffff8000ad92:	6a 5f                	push   0x5f
ffffffff8000ad94:	e9 f3 06 00 00       	jmp    ffffffff8000b48c <irq_common>

ffffffff8000ad99 <irq96>:
ffffffff8000ad99:	6a 00                	push   0x0
ffffffff8000ad9b:	6a 60                	push   0x60
ffffffff8000ad9d:	e9 ea 06 00 00       	jmp    ffffffff8000b48c <irq_common>

ffffffff8000ada2 <irq97>:
ffffffff8000ada2:	6a 00                	push   0x0
ffffffff8000ada4:	6a 61                	push   0x61
ffffffff8000ada6:	e9 e1 06 00 00       	jmp    ffffffff8000b48c <irq_common>

ffffffff8000adab <irq98>:
ffffffff8000adab:	6a 00                	push   0x0
ffffffff8000adad:	6a 62                	push   0x62
ffffffff8000adaf:	e9 d8 06 00 00       	jmp    ffffffff8000b48c <irq_common>

ffffffff8000adb4 <irq99>:
ffffffff8000adb4:	6a 00                	push   0x0
ffffffff8000adb6:	6a 63                	push   0x63
ffffffff8000adb8:	e9 cf 06 00 00       	jmp    ffffffff8000b48c <irq_common>

ffffffff8000adbd <irq100>:
ffffffff8000adbd:	6a 00                	push   0x0
ffffffff8000adbf:	6a 64                	push   0x64
ffffffff8000adc1:	e9 c6 06 00 00       	jmp    ffffffff8000b48c <irq_common>

ffffffff8000adc6 <irq101>:
ffffffff8000adc6:	6a 00                	push   0x0
ffffffff8000adc8:	6a 65                	push   0x65
ffffffff8000adca:	e9 bd 06 00 00       	jmp    ffffffff8000b48c <irq_common>

ffffffff8000adcf <irq102>:
ffffffff8000adcf:	6a 00                	push   0x0
ffffffff8000add1:	6a 66                	push   0x66
ffffffff8000add3:	e9 b4 06 00 00       	jmp    ffffffff8000b48c <irq_common>

ffffffff8000add8 <irq103>:
ffffffff8000add8:	6a 00                	push   0x0
ffffffff8000adda:	6a 67                	push   0x67
ffffffff8000addc:	e9 ab 06 00 00       	jmp    ffffffff8000b48c <irq_common>

ffffffff8000ade1 <irq104>:
ffffffff8000ade1:	6a 00                	push   0x0
ffffffff8000ade3:	6a 68                	push   0x68
ffffffff8000ade5:	e9 a2 06 00 00       	jmp    ffffffff8000b48c <irq_common>

ffffffff8000adea <irq105>:
ffffffff8000adea:	6a 00                	push   0x0
ffffffff8000adec:	6a 69                	push   0x69
ffffffff8000adee:	e9 99 06 00 00       	jmp    ffffffff8000b48c <irq_common>

ffffffff8000adf3 <irq106>:
ffffffff8000adf3:	6a 00                	push   0x0
ffffffff8000adf5:	6a 6a                	push   0x6a
ffffffff8000adf7:	e9 90 06 00 00       	jmp    ffffffff8000b48c <irq_common>

ffffffff8000adfc <irq107>:
ffffffff8000adfc:	6a 00                	push   0x0
ffffffff8000adfe:	6a 6b                	push   0x6b
ffffffff8000ae00:	e9 87 06 00 00       	jmp    ffffffff8000b48c <irq_common>

ffffffff8000ae05 <irq108>:
ffffffff8000ae05:	6a 00                	push   0x0
ffffffff8000ae07:	6a 6c                	push   0x6c
ffffffff8000ae09:	e9 7e 06 00 00       	jmp    ffffffff8000b48c <irq_common>

ffffffff8000ae0e <irq109>:
ffffffff8000ae0e:	6a 00                	push   0x0
ffffffff8000ae10:	6a 6d                	push   0x6d
ffffffff8000ae12:	e9 75 06 00 00       	jmp    ffffffff8000b48c <irq_common>

ffffffff8000ae17 <irq110>:
ffffffff8000ae17:	6a 00                	push   0x0
ffffffff8000ae19:	6a 6e                	push   0x6e
ffffffff8000ae1b:	e9 6c 06 00 00       	jmp    ffffffff8000b48c <irq_common>

ffffffff8000ae20 <irq111>:
ffffffff8000ae20:	6a 00                	push   0x0
ffffffff8000ae22:	6a 6f                	push   0x6f
ffffffff8000ae24:	e9 63 06 00 00       	jmp    ffffffff8000b48c <irq_common>

ffffffff8000ae29 <irq112>:
ffffffff8000ae29:	6a 00                	push   0x0
ffffffff8000ae2b:	6a 70                	push   0x70
ffffffff8000ae2d:	e9 5a 06 00 00       	jmp    ffffffff8000b48c <irq_common>

ffffffff8000ae32 <irq113>:
ffffffff8000ae32:	6a 00                	push   0x0
ffffffff8000ae34:	6a 71                	push   0x71
ffffffff8000ae36:	e9 51 06 00 00       	jmp    ffffffff8000b48c <irq_common>

ffffffff8000ae3b <irq114>:
ffffffff8000ae3b:	6a 00                	push   0x0
ffffffff8000ae3d:	6a 72                	push   0x72
ffffffff8000ae3f:	e9 48 06 00 00       	jmp    ffffffff8000b48c <irq_common>

ffffffff8000ae44 <irq115>:
ffffffff8000ae44:	6a 00                	push   0x0
ffffffff8000ae46:	6a 73                	push   0x73
ffffffff8000ae48:	e9 3f 06 00 00       	jmp    ffffffff8000b48c <irq_common>

ffffffff8000ae4d <irq116>:
ffffffff8000ae4d:	6a 00                	push   0x0
ffffffff8000ae4f:	6a 74                	push   0x74
ffffffff8000ae51:	e9 36 06 00 00       	jmp    ffffffff8000b48c <irq_common>

ffffffff8000ae56 <irq117>:
ffffffff8000ae56:	6a 00                	push   0x0
ffffffff8000ae58:	6a 75                	push   0x75
ffffffff8000ae5a:	e9 2d 06 00 00       	jmp    ffffffff8000b48c <irq_common>

ffffffff8000ae5f <irq118>:
ffffffff8000ae5f:	6a 00                	push   0x0
ffffffff8000ae61:	6a 76                	push   0x76
ffffffff8000ae63:	e9 24 06 00 00       	jmp    ffffffff8000b48c <irq_common>

ffffffff8000ae68 <irq119>:
ffffffff8000ae68:	6a 00                	push   0x0
ffffffff8000ae6a:	6a 77                	push   0x77
ffffffff8000ae6c:	e9 1b 06 00 00       	jmp    ffffffff8000b48c <irq_common>

ffffffff8000ae71 <irq120>:
ffffffff8000ae71:	6a 00                	push   0x0
ffffffff8000ae73:	6a 78                	push   0x78
ffffffff8000ae75:	e9 12 06 00 00       	jmp    ffffffff8000b48c <irq_common>

ffffffff8000ae7a <irq121>:
ffffffff8000ae7a:	6a 00                	push   0x0
ffffffff8000ae7c:	6a 79                	push   0x79
ffffffff8000ae7e:	e9 09 06 00 00       	jmp    ffffffff8000b48c <irq_common>

ffffffff8000ae83 <irq122>:
ffffffff8000ae83:	6a 00                	push   0x0
ffffffff8000ae85:	6a 7a                	push   0x7a
ffffffff8000ae87:	e9 00 06 00 00       	jmp    ffffffff8000b48c <irq_common>

ffffffff8000ae8c <irq123>:
ffffffff8000ae8c:	6a 00                	push   0x0
ffffffff8000ae8e:	6a 7b                	push   0x7b
ffffffff8000ae90:	e9 f7 05 00 00       	jmp    ffffffff8000b48c <irq_common>

ffffffff8000ae95 <irq124>:
ffffffff8000ae95:	6a 00                	push   0x0
ffffffff8000ae97:	6a 7c                	push   0x7c
ffffffff8000ae99:	e9 ee 05 00 00       	jmp    ffffffff8000b48c <irq_common>

ffffffff8000ae9e <irq125>:
ffffffff8000ae9e:	6a 00                	push   0x0
ffffffff8000aea0:	6a 7d                	push   0x7d
ffffffff8000aea2:	e9 e5 05 00 00       	jmp    ffffffff8000b48c <irq_common>

ffffffff8000aea7 <irq126>:
ffffffff8000aea7:	6a 00                	push   0x0
ffffffff8000aea9:	6a 7e                	push   0x7e
ffffffff8000aeab:	e9 dc 05 00 00       	jmp    ffffffff8000b48c <irq_common>

ffffffff8000aeb0 <irq127>:
ffffffff8000aeb0:	6a 00                	push   0x0
ffffffff8000aeb2:	6a 7f                	push   0x7f
ffffffff8000aeb4:	e9 d3 05 00 00       	jmp    ffffffff8000b48c <irq_common>

ffffffff8000aeb9 <irq128>:
ffffffff8000aeb9:	6a 00                	push   0x0
ffffffff8000aebb:	68 80 00 00 00       	push   0x80
ffffffff8000aec0:	e9 c7 05 00 00       	jmp    ffffffff8000b48c <irq_common>

ffffffff8000aec5 <irq129>:
ffffffff8000aec5:	6a 00                	push   0x0
ffffffff8000aec7:	68 81 00 00 00       	push   0x81
ffffffff8000aecc:	e9 bb 05 00 00       	jmp    ffffffff8000b48c <irq_common>

ffffffff8000aed1 <irq130>:
ffffffff8000aed1:	6a 00                	push   0x0
ffffffff8000aed3:	68 82 00 00 00       	push   0x82
ffffffff8000aed8:	e9 af 05 00 00       	jmp    ffffffff8000b48c <irq_common>

ffffffff8000aedd <irq131>:
ffffffff8000aedd:	6a 00                	push   0x0
ffffffff8000aedf:	68 83 00 00 00       	push   0x83
ffffffff8000aee4:	e9 a3 05 00 00       	jmp    ffffffff8000b48c <irq_common>

ffffffff8000aee9 <irq132>:
ffffffff8000aee9:	6a 00                	push   0x0
ffffffff8000aeeb:	68 84 00 00 00       	push   0x84
ffffffff8000aef0:	e9 97 05 00 00       	jmp    ffffffff8000b48c <irq_common>

ffffffff8000aef5 <irq133>:
ffffffff8000aef5:	6a 00                	push   0x0
ffffffff8000aef7:	68 85 00 00 00       	push   0x85
ffffffff8000aefc:	e9 8b 05 00 00       	jmp    ffffffff8000b48c <irq_common>

ffffffff8000af01 <irq134>:
ffffffff8000af01:	6a 00                	push   0x0
ffffffff8000af03:	68 86 00 00 00       	push   0x86
ffffffff8000af08:	e9 7f 05 00 00       	jmp    ffffffff8000b48c <irq_common>

ffffffff8000af0d <irq135>:
ffffffff8000af0d:	6a 00                	push   0x0
ffffffff8000af0f:	68 87 00 00 00       	push   0x87
ffffffff8000af14:	e9 73 05 00 00       	jmp    ffffffff8000b48c <irq_common>

ffffffff8000af19 <irq136>:
ffffffff8000af19:	6a 00                	push   0x0
ffffffff8000af1b:	68 88 00 00 00       	push   0x88
ffffffff8000af20:	e9 67 05 00 00       	jmp    ffffffff8000b48c <irq_common>

ffffffff8000af25 <irq137>:
ffffffff8000af25:	6a 00                	push   0x0
ffffffff8000af27:	68 89 00 00 00       	push   0x89
ffffffff8000af2c:	e9 5b 05 00 00       	jmp    ffffffff8000b48c <irq_common>

ffffffff8000af31 <irq138>:
ffffffff8000af31:	6a 00                	push   0x0
ffffffff8000af33:	68 8a 00 00 00       	push   0x8a
ffffffff8000af38:	e9 4f 05 00 00       	jmp    ffffffff8000b48c <irq_common>

ffffffff8000af3d <irq139>:
ffffffff8000af3d:	6a 00                	push   0x0
ffffffff8000af3f:	68 8b 00 00 00       	push   0x8b
ffffffff8000af44:	e9 43 05 00 00       	jmp    ffffffff8000b48c <irq_common>

ffffffff8000af49 <irq140>:
ffffffff8000af49:	6a 00                	push   0x0
ffffffff8000af4b:	68 8c 00 00 00       	push   0x8c
ffffffff8000af50:	e9 37 05 00 00       	jmp    ffffffff8000b48c <irq_common>

ffffffff8000af55 <irq141>:
ffffffff8000af55:	6a 00                	push   0x0
ffffffff8000af57:	68 8d 00 00 00       	push   0x8d
ffffffff8000af5c:	e9 2b 05 00 00       	jmp    ffffffff8000b48c <irq_common>

ffffffff8000af61 <irq142>:
ffffffff8000af61:	6a 00                	push   0x0
ffffffff8000af63:	68 8e 00 00 00       	push   0x8e
ffffffff8000af68:	e9 1f 05 00 00       	jmp    ffffffff8000b48c <irq_common>

ffffffff8000af6d <irq143>:
ffffffff8000af6d:	6a 00                	push   0x0
ffffffff8000af6f:	68 8f 00 00 00       	push   0x8f
ffffffff8000af74:	e9 13 05 00 00       	jmp    ffffffff8000b48c <irq_common>

ffffffff8000af79 <irq144>:
ffffffff8000af79:	6a 00                	push   0x0
ffffffff8000af7b:	68 90 00 00 00       	push   0x90
ffffffff8000af80:	e9 07 05 00 00       	jmp    ffffffff8000b48c <irq_common>

ffffffff8000af85 <irq145>:
ffffffff8000af85:	6a 00                	push   0x0
ffffffff8000af87:	68 91 00 00 00       	push   0x91
ffffffff8000af8c:	e9 fb 04 00 00       	jmp    ffffffff8000b48c <irq_common>

ffffffff8000af91 <irq146>:
ffffffff8000af91:	6a 00                	push   0x0
ffffffff8000af93:	68 92 00 00 00       	push   0x92
ffffffff8000af98:	e9 ef 04 00 00       	jmp    ffffffff8000b48c <irq_common>

ffffffff8000af9d <irq147>:
ffffffff8000af9d:	6a 00                	push   0x0
ffffffff8000af9f:	68 93 00 00 00       	push   0x93
ffffffff8000afa4:	e9 e3 04 00 00       	jmp    ffffffff8000b48c <irq_common>

ffffffff8000afa9 <irq148>:
ffffffff8000afa9:	6a 00                	push   0x0
ffffffff8000afab:	68 94 00 00 00       	push   0x94
ffffffff8000afb0:	e9 d7 04 00 00       	jmp    ffffffff8000b48c <irq_common>

ffffffff8000afb5 <irq149>:
ffffffff8000afb5:	6a 00                	push   0x0
ffffffff8000afb7:	68 95 00 00 00       	push   0x95
ffffffff8000afbc:	e9 cb 04 00 00       	jmp    ffffffff8000b48c <irq_common>

ffffffff8000afc1 <irq150>:
ffffffff8000afc1:	6a 00                	push   0x0
ffffffff8000afc3:	68 96 00 00 00       	push   0x96
ffffffff8000afc8:	e9 bf 04 00 00       	jmp    ffffffff8000b48c <irq_common>

ffffffff8000afcd <irq151>:
ffffffff8000afcd:	6a 00                	push   0x0
ffffffff8000afcf:	68 97 00 00 00       	push   0x97
ffffffff8000afd4:	e9 b3 04 00 00       	jmp    ffffffff8000b48c <irq_common>

ffffffff8000afd9 <irq152>:
ffffffff8000afd9:	6a 00                	push   0x0
ffffffff8000afdb:	68 98 00 00 00       	push   0x98
ffffffff8000afe0:	e9 a7 04 00 00       	jmp    ffffffff8000b48c <irq_common>

ffffffff8000afe5 <irq153>:
ffffffff8000afe5:	6a 00                	push   0x0
ffffffff8000afe7:	68 99 00 00 00       	push   0x99
ffffffff8000afec:	e9 9b 04 00 00       	jmp    ffffffff8000b48c <irq_common>

ffffffff8000aff1 <irq154>:
ffffffff8000aff1:	6a 00                	push   0x0
ffffffff8000aff3:	68 9a 00 00 00       	push   0x9a
ffffffff8000aff8:	e9 8f 04 00 00       	jmp    ffffffff8000b48c <irq_common>

ffffffff8000affd <irq155>:
ffffffff8000affd:	6a 00                	push   0x0
ffffffff8000afff:	68 9b 00 00 00       	push   0x9b
ffffffff8000b004:	e9 83 04 00 00       	jmp    ffffffff8000b48c <irq_common>

ffffffff8000b009 <irq156>:
ffffffff8000b009:	6a 00                	push   0x0
ffffffff8000b00b:	68 9c 00 00 00       	push   0x9c
ffffffff8000b010:	e9 77 04 00 00       	jmp    ffffffff8000b48c <irq_common>

ffffffff8000b015 <irq157>:
ffffffff8000b015:	6a 00                	push   0x0
ffffffff8000b017:	68 9d 00 00 00       	push   0x9d
ffffffff8000b01c:	e9 6b 04 00 00       	jmp    ffffffff8000b48c <irq_common>

ffffffff8000b021 <irq158>:
ffffffff8000b021:	6a 00                	push   0x0
ffffffff8000b023:	68 9e 00 00 00       	push   0x9e
ffffffff8000b028:	e9 5f 04 00 00       	jmp    ffffffff8000b48c <irq_common>

ffffffff8000b02d <irq159>:
ffffffff8000b02d:	6a 00                	push   0x0
ffffffff8000b02f:	68 9f 00 00 00       	push   0x9f
ffffffff8000b034:	e9 53 04 00 00       	jmp    ffffffff8000b48c <irq_common>

ffffffff8000b039 <irq160>:
ffffffff8000b039:	6a 00                	push   0x0
ffffffff8000b03b:	68 a0 00 00 00       	push   0xa0
ffffffff8000b040:	e9 47 04 00 00       	jmp    ffffffff8000b48c <irq_common>

ffffffff8000b045 <irq161>:
ffffffff8000b045:	6a 00                	push   0x0
ffffffff8000b047:	68 a1 00 00 00       	push   0xa1
ffffffff8000b04c:	e9 3b 04 00 00       	jmp    ffffffff8000b48c <irq_common>

ffffffff8000b051 <irq162>:
ffffffff8000b051:	6a 00                	push   0x0
ffffffff8000b053:	68 a2 00 00 00       	push   0xa2
ffffffff8000b058:	e9 2f 04 00 00       	jmp    ffffffff8000b48c <irq_common>

ffffffff8000b05d <irq163>:
ffffffff8000b05d:	6a 00                	push   0x0
ffffffff8000b05f:	68 a3 00 00 00       	push   0xa3
ffffffff8000b064:	e9 23 04 00 00       	jmp    ffffffff8000b48c <irq_common>

ffffffff8000b069 <irq164>:
ffffffff8000b069:	6a 00                	push   0x0
ffffffff8000b06b:	68 a4 00 00 00       	push   0xa4
ffffffff8000b070:	e9 17 04 00 00       	jmp    ffffffff8000b48c <irq_common>

ffffffff8000b075 <irq165>:
ffffffff8000b075:	6a 00                	push   0x0
ffffffff8000b077:	68 a5 00 00 00       	push   0xa5
ffffffff8000b07c:	e9 0b 04 00 00       	jmp    ffffffff8000b48c <irq_common>

ffffffff8000b081 <irq166>:
ffffffff8000b081:	6a 00                	push   0x0
ffffffff8000b083:	68 a6 00 00 00       	push   0xa6
ffffffff8000b088:	e9 ff 03 00 00       	jmp    ffffffff8000b48c <irq_common>

ffffffff8000b08d <irq167>:
ffffffff8000b08d:	6a 00                	push   0x0
ffffffff8000b08f:	68 a7 00 00 00       	push   0xa7
ffffffff8000b094:	e9 f3 03 00 00       	jmp    ffffffff8000b48c <irq_common>

ffffffff8000b099 <irq168>:
ffffffff8000b099:	6a 00                	push   0x0
ffffffff8000b09b:	68 a8 00 00 00       	push   0xa8
ffffffff8000b0a0:	e9 e7 03 00 00       	jmp    ffffffff8000b48c <irq_common>

ffffffff8000b0a5 <irq169>:
ffffffff8000b0a5:	6a 00                	push   0x0
ffffffff8000b0a7:	68 a9 00 00 00       	push   0xa9
ffffffff8000b0ac:	e9 db 03 00 00       	jmp    ffffffff8000b48c <irq_common>

ffffffff8000b0b1 <irq170>:
ffffffff8000b0b1:	6a 00                	push   0x0
ffffffff8000b0b3:	68 aa 00 00 00       	push   0xaa
ffffffff8000b0b8:	e9 cf 03 00 00       	jmp    ffffffff8000b48c <irq_common>

ffffffff8000b0bd <irq171>:
ffffffff8000b0bd:	6a 00                	push   0x0
ffffffff8000b0bf:	68 ab 00 00 00       	push   0xab
ffffffff8000b0c4:	e9 c3 03 00 00       	jmp    ffffffff8000b48c <irq_common>

ffffffff8000b0c9 <irq172>:
ffffffff8000b0c9:	6a 00                	push   0x0
ffffffff8000b0cb:	68 ac 00 00 00       	push   0xac
ffffffff8000b0d0:	e9 b7 03 00 00       	jmp    ffffffff8000b48c <irq_common>

ffffffff8000b0d5 <irq173>:
ffffffff8000b0d5:	6a 00                	push   0x0
ffffffff8000b0d7:	68 ad 00 00 00       	push   0xad
ffffffff8000b0dc:	e9 ab 03 00 00       	jmp    ffffffff8000b48c <irq_common>

ffffffff8000b0e1 <irq174>:
ffffffff8000b0e1:	6a 00                	push   0x0
ffffffff8000b0e3:	68 ae 00 00 00       	push   0xae
ffffffff8000b0e8:	e9 9f 03 00 00       	jmp    ffffffff8000b48c <irq_common>

ffffffff8000b0ed <irq175>:
ffffffff8000b0ed:	6a 00                	push   0x0
ffffffff8000b0ef:	68 af 00 00 00       	push   0xaf
ffffffff8000b0f4:	e9 93 03 00 00       	jmp    ffffffff8000b48c <irq_common>

ffffffff8000b0f9 <irq176>:
ffffffff8000b0f9:	6a 00                	push   0x0
ffffffff8000b0fb:	68 b0 00 00 00       	push   0xb0
ffffffff8000b100:	e9 87 03 00 00       	jmp    ffffffff8000b48c <irq_common>

ffffffff8000b105 <irq177>:
ffffffff8000b105:	6a 00                	push   0x0
ffffffff8000b107:	68 b1 00 00 00       	push   0xb1
ffffffff8000b10c:	e9 7b 03 00 00       	jmp    ffffffff8000b48c <irq_common>

ffffffff8000b111 <irq178>:
ffffffff8000b111:	6a 00                	push   0x0
ffffffff8000b113:	68 b2 00 00 00       	push   0xb2
ffffffff8000b118:	e9 6f 03 00 00       	jmp    ffffffff8000b48c <irq_common>

ffffffff8000b11d <irq179>:
ffffffff8000b11d:	6a 00                	push   0x0
ffffffff8000b11f:	68 b3 00 00 00       	push   0xb3
ffffffff8000b124:	e9 63 03 00 00       	jmp    ffffffff8000b48c <irq_common>

ffffffff8000b129 <irq180>:
ffffffff8000b129:	6a 00                	push   0x0
ffffffff8000b12b:	68 b4 00 00 00       	push   0xb4
ffffffff8000b130:	e9 57 03 00 00       	jmp    ffffffff8000b48c <irq_common>

ffffffff8000b135 <irq181>:
ffffffff8000b135:	6a 00                	push   0x0
ffffffff8000b137:	68 b5 00 00 00       	push   0xb5
ffffffff8000b13c:	e9 4b 03 00 00       	jmp    ffffffff8000b48c <irq_common>

ffffffff8000b141 <irq182>:
ffffffff8000b141:	6a 00                	push   0x0
ffffffff8000b143:	68 b6 00 00 00       	push   0xb6
ffffffff8000b148:	e9 3f 03 00 00       	jmp    ffffffff8000b48c <irq_common>

ffffffff8000b14d <irq183>:
ffffffff8000b14d:	6a 00                	push   0x0
ffffffff8000b14f:	68 b7 00 00 00       	push   0xb7
ffffffff8000b154:	e9 33 03 00 00       	jmp    ffffffff8000b48c <irq_common>

ffffffff8000b159 <irq184>:
ffffffff8000b159:	6a 00                	push   0x0
ffffffff8000b15b:	68 b8 00 00 00       	push   0xb8
ffffffff8000b160:	e9 27 03 00 00       	jmp    ffffffff8000b48c <irq_common>

ffffffff8000b165 <irq185>:
ffffffff8000b165:	6a 00                	push   0x0
ffffffff8000b167:	68 b9 00 00 00       	push   0xb9
ffffffff8000b16c:	e9 1b 03 00 00       	jmp    ffffffff8000b48c <irq_common>

ffffffff8000b171 <irq186>:
ffffffff8000b171:	6a 00                	push   0x0
ffffffff8000b173:	68 ba 00 00 00       	push   0xba
ffffffff8000b178:	e9 0f 03 00 00       	jmp    ffffffff8000b48c <irq_common>

ffffffff8000b17d <irq187>:
ffffffff8000b17d:	6a 00                	push   0x0
ffffffff8000b17f:	68 bb 00 00 00       	push   0xbb
ffffffff8000b184:	e9 03 03 00 00       	jmp    ffffffff8000b48c <irq_common>

ffffffff8000b189 <irq188>:
ffffffff8000b189:	6a 00                	push   0x0
ffffffff8000b18b:	68 bc 00 00 00       	push   0xbc
ffffffff8000b190:	e9 f7 02 00 00       	jmp    ffffffff8000b48c <irq_common>

ffffffff8000b195 <irq189>:
ffffffff8000b195:	6a 00                	push   0x0
ffffffff8000b197:	68 bd 00 00 00       	push   0xbd
ffffffff8000b19c:	e9 eb 02 00 00       	jmp    ffffffff8000b48c <irq_common>

ffffffff8000b1a1 <irq190>:
ffffffff8000b1a1:	6a 00                	push   0x0
ffffffff8000b1a3:	68 be 00 00 00       	push   0xbe
ffffffff8000b1a8:	e9 df 02 00 00       	jmp    ffffffff8000b48c <irq_common>

ffffffff8000b1ad <irq191>:
ffffffff8000b1ad:	6a 00                	push   0x0
ffffffff8000b1af:	68 bf 00 00 00       	push   0xbf
ffffffff8000b1b4:	e9 d3 02 00 00       	jmp    ffffffff8000b48c <irq_common>

ffffffff8000b1b9 <irq192>:
ffffffff8000b1b9:	6a 00                	push   0x0
ffffffff8000b1bb:	68 c0 00 00 00       	push   0xc0
ffffffff8000b1c0:	e9 c7 02 00 00       	jmp    ffffffff8000b48c <irq_common>

ffffffff8000b1c5 <irq193>:
ffffffff8000b1c5:	6a 00                	push   0x0
ffffffff8000b1c7:	68 c1 00 00 00       	push   0xc1
ffffffff8000b1cc:	e9 bb 02 00 00       	jmp    ffffffff8000b48c <irq_common>

ffffffff8000b1d1 <irq194>:
ffffffff8000b1d1:	6a 00                	push   0x0
ffffffff8000b1d3:	68 c2 00 00 00       	push   0xc2
ffffffff8000b1d8:	e9 af 02 00 00       	jmp    ffffffff8000b48c <irq_common>

ffffffff8000b1dd <irq195>:
ffffffff8000b1dd:	6a 00                	push   0x0
ffffffff8000b1df:	68 c3 00 00 00       	push   0xc3
ffffffff8000b1e4:	e9 a3 02 00 00       	jmp    ffffffff8000b48c <irq_common>

ffffffff8000b1e9 <irq196>:
ffffffff8000b1e9:	6a 00                	push   0x0
ffffffff8000b1eb:	68 c4 00 00 00       	push   0xc4
ffffffff8000b1f0:	e9 97 02 00 00       	jmp    ffffffff8000b48c <irq_common>

ffffffff8000b1f5 <irq197>:
ffffffff8000b1f5:	6a 00                	push   0x0
ffffffff8000b1f7:	68 c5 00 00 00       	push   0xc5
ffffffff8000b1fc:	e9 8b 02 00 00       	jmp    ffffffff8000b48c <irq_common>

ffffffff8000b201 <irq198>:
ffffffff8000b201:	6a 00                	push   0x0
ffffffff8000b203:	68 c6 00 00 00       	push   0xc6
ffffffff8000b208:	e9 7f 02 00 00       	jmp    ffffffff8000b48c <irq_common>

ffffffff8000b20d <irq199>:
ffffffff8000b20d:	6a 00                	push   0x0
ffffffff8000b20f:	68 c7 00 00 00       	push   0xc7
ffffffff8000b214:	e9 73 02 00 00       	jmp    ffffffff8000b48c <irq_common>

ffffffff8000b219 <irq200>:
ffffffff8000b219:	6a 00                	push   0x0
ffffffff8000b21b:	68 c8 00 00 00       	push   0xc8
ffffffff8000b220:	e9 67 02 00 00       	jmp    ffffffff8000b48c <irq_common>

ffffffff8000b225 <irq201>:
ffffffff8000b225:	6a 00                	push   0x0
ffffffff8000b227:	68 c9 00 00 00       	push   0xc9
ffffffff8000b22c:	e9 5b 02 00 00       	jmp    ffffffff8000b48c <irq_common>

ffffffff8000b231 <irq202>:
ffffffff8000b231:	6a 00                	push   0x0
ffffffff8000b233:	68 ca 00 00 00       	push   0xca
ffffffff8000b238:	e9 4f 02 00 00       	jmp    ffffffff8000b48c <irq_common>

ffffffff8000b23d <irq203>:
ffffffff8000b23d:	6a 00                	push   0x0
ffffffff8000b23f:	68 cb 00 00 00       	push   0xcb
ffffffff8000b244:	e9 43 02 00 00       	jmp    ffffffff8000b48c <irq_common>

ffffffff8000b249 <irq204>:
ffffffff8000b249:	6a 00                	push   0x0
ffffffff8000b24b:	68 cc 00 00 00       	push   0xcc
ffffffff8000b250:	e9 37 02 00 00       	jmp    ffffffff8000b48c <irq_common>

ffffffff8000b255 <irq205>:
ffffffff8000b255:	6a 00                	push   0x0
ffffffff8000b257:	68 cd 00 00 00       	push   0xcd
ffffffff8000b25c:	e9 2b 02 00 00       	jmp    ffffffff8000b48c <irq_common>

ffffffff8000b261 <irq206>:
ffffffff8000b261:	6a 00                	push   0x0
ffffffff8000b263:	68 ce 00 00 00       	push   0xce
ffffffff8000b268:	e9 1f 02 00 00       	jmp    ffffffff8000b48c <irq_common>

ffffffff8000b26d <irq207>:
ffffffff8000b26d:	6a 00                	push   0x0
ffffffff8000b26f:	68 cf 00 00 00       	push   0xcf
ffffffff8000b274:	e9 13 02 00 00       	jmp    ffffffff8000b48c <irq_common>

ffffffff8000b279 <irq208>:
ffffffff8000b279:	6a 00                	push   0x0
ffffffff8000b27b:	68 d0 00 00 00       	push   0xd0
ffffffff8000b280:	e9 07 02 00 00       	jmp    ffffffff8000b48c <irq_common>

ffffffff8000b285 <irq209>:
ffffffff8000b285:	6a 00                	push   0x0
ffffffff8000b287:	68 d1 00 00 00       	push   0xd1
ffffffff8000b28c:	e9 fb 01 00 00       	jmp    ffffffff8000b48c <irq_common>

ffffffff8000b291 <irq210>:
ffffffff8000b291:	6a 00                	push   0x0
ffffffff8000b293:	68 d2 00 00 00       	push   0xd2
ffffffff8000b298:	e9 ef 01 00 00       	jmp    ffffffff8000b48c <irq_common>

ffffffff8000b29d <irq211>:
ffffffff8000b29d:	6a 00                	push   0x0
ffffffff8000b29f:	68 d3 00 00 00       	push   0xd3
ffffffff8000b2a4:	e9 e3 01 00 00       	jmp    ffffffff8000b48c <irq_common>

ffffffff8000b2a9 <irq212>:
ffffffff8000b2a9:	6a 00                	push   0x0
ffffffff8000b2ab:	68 d4 00 00 00       	push   0xd4
ffffffff8000b2b0:	e9 d7 01 00 00       	jmp    ffffffff8000b48c <irq_common>

ffffffff8000b2b5 <irq213>:
ffffffff8000b2b5:	6a 00                	push   0x0
ffffffff8000b2b7:	68 d5 00 00 00       	push   0xd5
ffffffff8000b2bc:	e9 cb 01 00 00       	jmp    ffffffff8000b48c <irq_common>

ffffffff8000b2c1 <irq214>:
ffffffff8000b2c1:	6a 00                	push   0x0
ffffffff8000b2c3:	68 d6 00 00 00       	push   0xd6
ffffffff8000b2c8:	e9 bf 01 00 00       	jmp    ffffffff8000b48c <irq_common>

ffffffff8000b2cd <irq215>:
ffffffff8000b2cd:	6a 00                	push   0x0
ffffffff8000b2cf:	68 d7 00 00 00       	push   0xd7
ffffffff8000b2d4:	e9 b3 01 00 00       	jmp    ffffffff8000b48c <irq_common>

ffffffff8000b2d9 <irq216>:
ffffffff8000b2d9:	6a 00                	push   0x0
ffffffff8000b2db:	68 d8 00 00 00       	push   0xd8
ffffffff8000b2e0:	e9 a7 01 00 00       	jmp    ffffffff8000b48c <irq_common>

ffffffff8000b2e5 <irq217>:
ffffffff8000b2e5:	6a 00                	push   0x0
ffffffff8000b2e7:	68 d9 00 00 00       	push   0xd9
ffffffff8000b2ec:	e9 9b 01 00 00       	jmp    ffffffff8000b48c <irq_common>

ffffffff8000b2f1 <irq218>:
ffffffff8000b2f1:	6a 00                	push   0x0
ffffffff8000b2f3:	68 da 00 00 00       	push   0xda
ffffffff8000b2f8:	e9 8f 01 00 00       	jmp    ffffffff8000b48c <irq_common>

ffffffff8000b2fd <irq219>:
ffffffff8000b2fd:	6a 00                	push   0x0
ffffffff8000b2ff:	68 db 00 00 00       	push   0xdb
ffffffff8000b304:	e9 83 01 00 00       	jmp    ffffffff8000b48c <irq_common>

ffffffff8000b309 <irq220>:
ffffffff8000b309:	6a 00                	push   0x0
ffffffff8000b30b:	68 dc 00 00 00       	push   0xdc
ffffffff8000b310:	e9 77 01 00 00       	jmp    ffffffff8000b48c <irq_common>

ffffffff8000b315 <irq221>:
ffffffff8000b315:	6a 00                	push   0x0
ffffffff8000b317:	68 dd 00 00 00       	push   0xdd
ffffffff8000b31c:	e9 6b 01 00 00       	jmp    ffffffff8000b48c <irq_common>

ffffffff8000b321 <irq222>:
ffffffff8000b321:	6a 00                	push   0x0
ffffffff8000b323:	68 de 00 00 00       	push   0xde
ffffffff8000b328:	e9 5f 01 00 00       	jmp    ffffffff8000b48c <irq_common>

ffffffff8000b32d <irq223>:
ffffffff8000b32d:	6a 00                	push   0x0
ffffffff8000b32f:	68 df 00 00 00       	push   0xdf
ffffffff8000b334:	e9 53 01 00 00       	jmp    ffffffff8000b48c <irq_common>

ffffffff8000b339 <irq224>:
ffffffff8000b339:	6a 00                	push   0x0
ffffffff8000b33b:	68 e0 00 00 00       	push   0xe0
ffffffff8000b340:	e9 47 01 00 00       	jmp    ffffffff8000b48c <irq_common>

ffffffff8000b345 <irq225>:
ffffffff8000b345:	6a 00                	push   0x0
ffffffff8000b347:	68 e1 00 00 00       	push   0xe1
ffffffff8000b34c:	e9 3b 01 00 00       	jmp    ffffffff8000b48c <irq_common>

ffffffff8000b351 <irq226>:
ffffffff8000b351:	6a 00                	push   0x0
ffffffff8000b353:	68 e2 00 00 00       	push   0xe2
ffffffff8000b358:	e9 2f 01 00 00       	jmp    ffffffff8000b48c <irq_common>

ffffffff8000b35d <irq227>:
ffffffff8000b35d:	6a 00                	push   0x0
ffffffff8000b35f:	68 e3 00 00 00       	push   0xe3
ffffffff8000b364:	e9 23 01 00 00       	jmp    ffffffff8000b48c <irq_common>

ffffffff8000b369 <irq228>:
ffffffff8000b369:	6a 00                	push   0x0
ffffffff8000b36b:	68 e4 00 00 00       	push   0xe4
ffffffff8000b370:	e9 17 01 00 00       	jmp    ffffffff8000b48c <irq_common>

ffffffff8000b375 <irq229>:
ffffffff8000b375:	6a 00                	push   0x0
ffffffff8000b377:	68 e5 00 00 00       	push   0xe5
ffffffff8000b37c:	e9 0b 01 00 00       	jmp    ffffffff8000b48c <irq_common>

ffffffff8000b381 <irq230>:
ffffffff8000b381:	6a 00                	push   0x0
ffffffff8000b383:	68 e6 00 00 00       	push   0xe6
ffffffff8000b388:	e9 ff 00 00 00       	jmp    ffffffff8000b48c <irq_common>

ffffffff8000b38d <irq231>:
ffffffff8000b38d:	6a 00                	push   0x0
ffffffff8000b38f:	68 e7 00 00 00       	push   0xe7
ffffffff8000b394:	e9 f3 00 00 00       	jmp    ffffffff8000b48c <irq_common>

ffffffff8000b399 <irq232>:
ffffffff8000b399:	6a 00                	push   0x0
ffffffff8000b39b:	68 e8 00 00 00       	push   0xe8
ffffffff8000b3a0:	e9 e7 00 00 00       	jmp    ffffffff8000b48c <irq_common>

ffffffff8000b3a5 <irq233>:
ffffffff8000b3a5:	6a 00                	push   0x0
ffffffff8000b3a7:	68 e9 00 00 00       	push   0xe9
ffffffff8000b3ac:	e9 db 00 00 00       	jmp    ffffffff8000b48c <irq_common>

ffffffff8000b3b1 <irq234>:
ffffffff8000b3b1:	6a 00                	push   0x0
ffffffff8000b3b3:	68 ea 00 00 00       	push   0xea
ffffffff8000b3b8:	e9 cf 00 00 00       	jmp    ffffffff8000b48c <irq_common>

ffffffff8000b3bd <irq235>:
ffffffff8000b3bd:	6a 00                	push   0x0
ffffffff8000b3bf:	68 eb 00 00 00       	push   0xeb
ffffffff8000b3c4:	e9 c3 00 00 00       	jmp    ffffffff8000b48c <irq_common>

ffffffff8000b3c9 <irq236>:
ffffffff8000b3c9:	6a 00                	push   0x0
ffffffff8000b3cb:	68 ec 00 00 00       	push   0xec
ffffffff8000b3d0:	e9 b7 00 00 00       	jmp    ffffffff8000b48c <irq_common>

ffffffff8000b3d5 <irq237>:
ffffffff8000b3d5:	6a 00                	push   0x0
ffffffff8000b3d7:	68 ed 00 00 00       	push   0xed
ffffffff8000b3dc:	e9 ab 00 00 00       	jmp    ffffffff8000b48c <irq_common>

ffffffff8000b3e1 <irq238>:
ffffffff8000b3e1:	6a 00                	push   0x0
ffffffff8000b3e3:	68 ee 00 00 00       	push   0xee
ffffffff8000b3e8:	e9 9f 00 00 00       	jmp    ffffffff8000b48c <irq_common>

ffffffff8000b3ed <irq239>:
ffffffff8000b3ed:	6a 00                	push   0x0
ffffffff8000b3ef:	68 ef 00 00 00       	push   0xef
ffffffff8000b3f4:	e9 93 00 00 00       	jmp    ffffffff8000b48c <irq_common>

ffffffff8000b3f9 <irq240>:
ffffffff8000b3f9:	6a 00                	push   0x0
ffffffff8000b3fb:	68 f0 00 00 00       	push   0xf0
ffffffff8000b400:	e9 87 00 00 00       	jmp    ffffffff8000b48c <irq_common>

ffffffff8000b405 <irq241>:
ffffffff8000b405:	6a 00                	push   0x0
ffffffff8000b407:	68 f1 00 00 00       	push   0xf1
ffffffff8000b40c:	eb 7e                	jmp    ffffffff8000b48c <irq_common>

ffffffff8000b40e <irq242>:
ffffffff8000b40e:	6a 00                	push   0x0
ffffffff8000b410:	68 f2 00 00 00       	push   0xf2
ffffffff8000b415:	eb 75                	jmp    ffffffff8000b48c <irq_common>

ffffffff8000b417 <irq243>:
ffffffff8000b417:	6a 00                	push   0x0
ffffffff8000b419:	68 f3 00 00 00       	push   0xf3
ffffffff8000b41e:	eb 6c                	jmp    ffffffff8000b48c <irq_common>

ffffffff8000b420 <irq244>:
ffffffff8000b420:	6a 00                	push   0x0
ffffffff8000b422:	68 f4 00 00 00       	push   0xf4
ffffffff8000b427:	eb 63                	jmp    ffffffff8000b48c <irq_common>

ffffffff8000b429 <irq245>:
ffffffff8000b429:	6a 00                	push   0x0
ffffffff8000b42b:	68 f5 00 00 00       	push   0xf5
ffffffff8000b430:	eb 5a                	jmp    ffffffff8000b48c <irq_common>

ffffffff8000b432 <irq246>:
ffffffff8000b432:	6a 00                	push   0x0
ffffffff8000b434:	68 f6 00 00 00       	push   0xf6
ffffffff8000b439:	eb 51                	jmp    ffffffff8000b48c <irq_common>

ffffffff8000b43b <irq247>:
ffffffff8000b43b:	6a 00                	push   0x0
ffffffff8000b43d:	68 f7 00 00 00       	push   0xf7
ffffffff8000b442:	eb 48                	jmp    ffffffff8000b48c <irq_common>

ffffffff8000b444 <irq248>:
ffffffff8000b444:	6a 00                	push   0x0
ffffffff8000b446:	68 f8 00 00 00       	push   0xf8
ffffffff8000b44b:	eb 3f                	jmp    ffffffff8000b48c <irq_common>

ffffffff8000b44d <irq249>:
ffffffff8000b44d:	6a 00                	push   0x0
ffffffff8000b44f:	68 f9 00 00 00       	push   0xf9
ffffffff8000b454:	eb 36                	jmp    ffffffff8000b48c <irq_common>

ffffffff8000b456 <irq250>:
ffffffff8000b456:	6a 00                	push   0x0
ffffffff8000b458:	68 fa 00 00 00       	push   0xfa
ffffffff8000b45d:	eb 2d                	jmp    ffffffff8000b48c <irq_common>

ffffffff8000b45f <irq251>:
ffffffff8000b45f:	6a 00                	push   0x0
ffffffff8000b461:	68 fb 00 00 00       	push   0xfb
ffffffff8000b466:	eb 24                	jmp    ffffffff8000b48c <irq_common>

ffffffff8000b468 <irq252>:
ffffffff8000b468:	6a 00                	push   0x0
ffffffff8000b46a:	68 fc 00 00 00       	push   0xfc
ffffffff8000b46f:	eb 1b                	jmp    ffffffff8000b48c <irq_common>

ffffffff8000b471 <irq253>:
ffffffff8000b471:	6a 00                	push   0x0
ffffffff8000b473:	68 fd 00 00 00       	push   0xfd
ffffffff8000b478:	eb 12                	jmp    ffffffff8000b48c <irq_common>

ffffffff8000b47a <irq254>:
ffffffff8000b47a:	6a 00                	push   0x0
ffffffff8000b47c:	68 fe 00 00 00       	push   0xfe
ffffffff8000b481:	eb 09                	jmp    ffffffff8000b48c <irq_common>

ffffffff8000b483 <irq255>:
ffffffff8000b483:	6a 00                	push   0x0
ffffffff8000b485:	68 ff 00 00 00       	push   0xff
ffffffff8000b48a:	eb 00                	jmp    ffffffff8000b48c <irq_common>

ffffffff8000b48c <irq_common>:
ffffffff8000b48c:	50                   	push   rax
ffffffff8000b48d:	53                   	push   rbx
ffffffff8000b48e:	51                   	push   rcx
ffffffff8000b48f:	52                   	push   rdx
ffffffff8000b490:	56                   	push   rsi
ffffffff8000b491:	57                   	push   rdi
ffffffff8000b492:	55                   	push   rbp
ffffffff8000b493:	41 50                	push   r8
ffffffff8000b495:	41 51                	push   r9
ffffffff8000b497:	41 52                	push   r10
ffffffff8000b499:	41 53                	push   r11
ffffffff8000b49b:	41 54                	push   r12
ffffffff8000b49d:	41 55                	push   r13
ffffffff8000b49f:	41 56                	push   r14
ffffffff8000b4a1:	41 57                	push   r15
ffffffff8000b4a3:	48 89 e7             	mov    rdi,rsp
ffffffff8000b4a6:	e8 35 ce ff ff       	call   ffffffff800082e0 <irq_handler>
ffffffff8000b4ab:	41 5f                	pop    r15
ffffffff8000b4ad:	41 5e                	pop    r14
ffffffff8000b4af:	41 5d                	pop    r13
ffffffff8000b4b1:	41 5c                	pop    r12
ffffffff8000b4b3:	41 5b                	pop    r11
ffffffff8000b4b5:	41 5a                	pop    r10
ffffffff8000b4b7:	41 59                	pop    r9
ffffffff8000b4b9:	41 58                	pop    r8
ffffffff8000b4bb:	5d                   	pop    rbp
ffffffff8000b4bc:	5f                   	pop    rdi
ffffffff8000b4bd:	5e                   	pop    rsi
ffffffff8000b4be:	5a                   	pop    rdx
ffffffff8000b4bf:	59                   	pop    rcx
ffffffff8000b4c0:	5b                   	pop    rbx
ffffffff8000b4c1:	58                   	pop    rax
ffffffff8000b4c2:	48 83 c4 10          	add    rsp,0x10
ffffffff8000b4c6:	48 cf                	iretq
